ARM GAS  C:\Users\Lonnie\AppData\Local\Temp\ccbLKr61.s 			page 1


   1              		.cpu cortex-m0
   2              		.fpu softvfp
   3              		.eabi_attribute 20, 1
   4              		.eabi_attribute 21, 1
   5              		.eabi_attribute 23, 3
   6              		.eabi_attribute 24, 1
   7              		.eabi_attribute 25, 1
   8              		.eabi_attribute 26, 1
   9              		.eabi_attribute 30, 6
  10              		.eabi_attribute 34, 0
  11              		.eabi_attribute 18, 4
  12              		.code	16
  13              		.file	"BLE_HAL_PVT.c"
  14              		.text
  15              	.Ltext0:
  16              		.cfi_sections	.debug_frame
  17              		.section	.text.CyBLE_Nvram_Write,"ax",%progbits
  18              		.align	2
  19              		.global	CyBLE_Nvram_Write
  20              		.code	16
  21              		.thumb_func
  22              		.type	CyBLE_Nvram_Write, %function
  23              	CyBLE_Nvram_Write:
  24              	.LFB2:
  25              		.file 1 ".\\Generated_Source\\PSoC4\\BLE_HAL_PVT.c"
   1:.\Generated_Source\PSoC4/BLE_HAL_PVT.c **** /*******************************************************************************
   2:.\Generated_Source\PSoC4/BLE_HAL_PVT.c **** * File Name: CYBLE_HAL_PVT.c
   3:.\Generated_Source\PSoC4/BLE_HAL_PVT.c **** * Version 1.10
   4:.\Generated_Source\PSoC4/BLE_HAL_PVT.c **** *
   5:.\Generated_Source\PSoC4/BLE_HAL_PVT.c **** * Description:
   6:.\Generated_Source\PSoC4/BLE_HAL_PVT.c **** *  This file contains the source code for the HAL section of the BLE component
   7:.\Generated_Source\PSoC4/BLE_HAL_PVT.c **** *
   8:.\Generated_Source\PSoC4/BLE_HAL_PVT.c **** ********************************************************************************
   9:.\Generated_Source\PSoC4/BLE_HAL_PVT.c **** * Copyright 2014, Cypress Semiconductor Corporation.  All rights reserved.
  10:.\Generated_Source\PSoC4/BLE_HAL_PVT.c **** * You may use this file only in accordance with the license, terms, conditions,
  11:.\Generated_Source\PSoC4/BLE_HAL_PVT.c **** * disclaimers, and limitations in the end user license agreement accompanying
  12:.\Generated_Source\PSoC4/BLE_HAL_PVT.c **** * the software package with which this file was provided.
  13:.\Generated_Source\PSoC4/BLE_HAL_PVT.c **** *******************************************************************************/
  14:.\Generated_Source\PSoC4/BLE_HAL_PVT.c **** 
  15:.\Generated_Source\PSoC4/BLE_HAL_PVT.c **** #include "BLE_HAL_PVT.h"
  16:.\Generated_Source\PSoC4/BLE_HAL_PVT.c **** 
  17:.\Generated_Source\PSoC4/BLE_HAL_PVT.c **** 
  18:.\Generated_Source\PSoC4/BLE_HAL_PVT.c **** #if(CYBLE_MODE == CYBLE_HCI)
  19:.\Generated_Source\PSoC4/BLE_HAL_PVT.c **** 
  20:.\Generated_Source\PSoC4/BLE_HAL_PVT.c **** 
  21:.\Generated_Source\PSoC4/BLE_HAL_PVT.c **** /*******************************************************************************
  22:.\Generated_Source\PSoC4/BLE_HAL_PVT.c **** * Function Name: CyBLE_Uart_Start
  23:.\Generated_Source\PSoC4/BLE_HAL_PVT.c **** ********************************************************************************
  24:.\Generated_Source\PSoC4/BLE_HAL_PVT.c **** *
  25:.\Generated_Source\PSoC4/BLE_HAL_PVT.c **** * Summary:
  26:.\Generated_Source\PSoC4/BLE_HAL_PVT.c **** *  Enables the platform UART Tx and RX interrupts and then enables the UART
  27:.\Generated_Source\PSoC4/BLE_HAL_PVT.c **** *  component.
  28:.\Generated_Source\PSoC4/BLE_HAL_PVT.c **** *
  29:.\Generated_Source\PSoC4/BLE_HAL_PVT.c **** * Parameters:
  30:.\Generated_Source\PSoC4/BLE_HAL_PVT.c **** *  None
  31:.\Generated_Source\PSoC4/BLE_HAL_PVT.c **** *
  32:.\Generated_Source\PSoC4/BLE_HAL_PVT.c **** * Return:
ARM GAS  C:\Users\Lonnie\AppData\Local\Temp\ccbLKr61.s 			page 2


  33:.\Generated_Source\PSoC4/BLE_HAL_PVT.c **** *  None
  34:.\Generated_Source\PSoC4/BLE_HAL_PVT.c **** *
  35:.\Generated_Source\PSoC4/BLE_HAL_PVT.c **** *******************************************************************************/
  36:.\Generated_Source\PSoC4/BLE_HAL_PVT.c **** void CyBLE_Uart_Start (void)
  37:.\Generated_Source\PSoC4/BLE_HAL_PVT.c **** {
  38:.\Generated_Source\PSoC4/BLE_HAL_PVT.c ****     /* Setup ISR */
  39:.\Generated_Source\PSoC4/BLE_HAL_PVT.c ****     BLE_uart_isr_StartEx(&CyBLE_Uart_Interrupt);
  40:.\Generated_Source\PSoC4/BLE_HAL_PVT.c **** 
  41:.\Generated_Source\PSoC4/BLE_HAL_PVT.c ****     BLE_HAL_Uart_Start();
  42:.\Generated_Source\PSoC4/BLE_HAL_PVT.c **** }
  43:.\Generated_Source\PSoC4/BLE_HAL_PVT.c **** 
  44:.\Generated_Source\PSoC4/BLE_HAL_PVT.c **** 
  45:.\Generated_Source\PSoC4/BLE_HAL_PVT.c **** /*******************************************************************************
  46:.\Generated_Source\PSoC4/BLE_HAL_PVT.c **** * Function Name: CyBLE_Uart_Stop
  47:.\Generated_Source\PSoC4/BLE_HAL_PVT.c **** ********************************************************************************
  48:.\Generated_Source\PSoC4/BLE_HAL_PVT.c **** *
  49:.\Generated_Source\PSoC4/BLE_HAL_PVT.c **** * Summary:
  50:.\Generated_Source\PSoC4/BLE_HAL_PVT.c **** *  Disables the UART, clears all pending interrupts and disables the UART Tx
  51:.\Generated_Source\PSoC4/BLE_HAL_PVT.c **** *  and RX interrupts. This will also empty out the FIFOs.
  52:.\Generated_Source\PSoC4/BLE_HAL_PVT.c **** *
  53:.\Generated_Source\PSoC4/BLE_HAL_PVT.c **** * Parameters:
  54:.\Generated_Source\PSoC4/BLE_HAL_PVT.c **** *  None
  55:.\Generated_Source\PSoC4/BLE_HAL_PVT.c **** *
  56:.\Generated_Source\PSoC4/BLE_HAL_PVT.c **** * Return:
  57:.\Generated_Source\PSoC4/BLE_HAL_PVT.c **** *  None
  58:.\Generated_Source\PSoC4/BLE_HAL_PVT.c **** *
  59:.\Generated_Source\PSoC4/BLE_HAL_PVT.c **** *******************************************************************************/
  60:.\Generated_Source\PSoC4/BLE_HAL_PVT.c **** void CyBLE_Uart_Stop (void)
  61:.\Generated_Source\PSoC4/BLE_HAL_PVT.c **** {
  62:.\Generated_Source\PSoC4/BLE_HAL_PVT.c ****     /* Stop interrupt and UART */
  63:.\Generated_Source\PSoC4/BLE_HAL_PVT.c ****     BLE_uart_isr_Stop();
  64:.\Generated_Source\PSoC4/BLE_HAL_PVT.c **** 
  65:.\Generated_Source\PSoC4/BLE_HAL_PVT.c ****     BLE_HAL_Uart_Stop();
  66:.\Generated_Source\PSoC4/BLE_HAL_PVT.c **** }
  67:.\Generated_Source\PSoC4/BLE_HAL_PVT.c **** 
  68:.\Generated_Source\PSoC4/BLE_HAL_PVT.c **** 
  69:.\Generated_Source\PSoC4/BLE_HAL_PVT.c **** /*******************************************************************************
  70:.\Generated_Source\PSoC4/BLE_HAL_PVT.c **** * Function Name: CyBLE_Uart_Transmit
  71:.\Generated_Source\PSoC4/BLE_HAL_PVT.c **** ********************************************************************************
  72:.\Generated_Source\PSoC4/BLE_HAL_PVT.c **** *
  73:.\Generated_Source\PSoC4/BLE_HAL_PVT.c **** * Summary:
  74:.\Generated_Source\PSoC4/BLE_HAL_PVT.c **** *  Sends the data to Uart Tx FIFO. The API handles data length up to the 
  75:.\Generated_Source\PSoC4/BLE_HAL_PVT.c **** *  supported Tx FIFO length of the uart hardware module.
  76:.\Generated_Source\PSoC4/BLE_HAL_PVT.c **** *
  77:.\Generated_Source\PSoC4/BLE_HAL_PVT.c **** * Parameters:
  78:.\Generated_Source\PSoC4/BLE_HAL_PVT.c **** *  uint8 *data: Pointer to the data to send through the UART
  79:.\Generated_Source\PSoC4/BLE_HAL_PVT.c **** *  uint8 length: the length of data to transmit in bytes
  80:.\Generated_Source\PSoC4/BLE_HAL_PVT.c **** *
  81:.\Generated_Source\PSoC4/BLE_HAL_PVT.c **** * Return:
  82:.\Generated_Source\PSoC4/BLE_HAL_PVT.c **** *  None
  83:.\Generated_Source\PSoC4/BLE_HAL_PVT.c **** *
  84:.\Generated_Source\PSoC4/BLE_HAL_PVT.c **** *******************************************************************************/
  85:.\Generated_Source\PSoC4/BLE_HAL_PVT.c **** void CyBLE_Uart_Transmit (const uint8 *dataBuf, uint8 length)
  86:.\Generated_Source\PSoC4/BLE_HAL_PVT.c **** {
  87:.\Generated_Source\PSoC4/BLE_HAL_PVT.c ****     BLE_HAL_Uart_SpiUartPutArray(dataBuf, (uint32)length);
  88:.\Generated_Source\PSoC4/BLE_HAL_PVT.c **** }
  89:.\Generated_Source\PSoC4/BLE_HAL_PVT.c **** 
ARM GAS  C:\Users\Lonnie\AppData\Local\Temp\ccbLKr61.s 			page 3


  90:.\Generated_Source\PSoC4/BLE_HAL_PVT.c **** #endif /* (CYBLE_MODE == CYBLE_HCI) */
  91:.\Generated_Source\PSoC4/BLE_HAL_PVT.c **** 
  92:.\Generated_Source\PSoC4/BLE_HAL_PVT.c **** 
  93:.\Generated_Source\PSoC4/BLE_HAL_PVT.c **** /*******************************************************************************
  94:.\Generated_Source\PSoC4/BLE_HAL_PVT.c **** * Function Name: CyBLE_Nvram_Write
  95:.\Generated_Source\PSoC4/BLE_HAL_PVT.c **** ********************************************************************************
  96:.\Generated_Source\PSoC4/BLE_HAL_PVT.c **** *
  97:.\Generated_Source\PSoC4/BLE_HAL_PVT.c **** * Summary:
  98:.\Generated_Source\PSoC4/BLE_HAL_PVT.c **** *  This API writes the data to the NVRAM store. It will check the appropriate
  99:.\Generated_Source\PSoC4/BLE_HAL_PVT.c **** *  alignment of a start address and also perform an address range check based
 100:.\Generated_Source\PSoC4/BLE_HAL_PVT.c **** *  on the length before performing the write operation.
 101:.\Generated_Source\PSoC4/BLE_HAL_PVT.c **** *  This function performs memory compare and writes only row where there are new
 102:.\Generated_Source\PSoC4/BLE_HAL_PVT.c **** *  data to write.
 103:.\Generated_Source\PSoC4/BLE_HAL_PVT.c **** *
 104:.\Generated_Source\PSoC4/BLE_HAL_PVT.c **** * Parameters:
 105:.\Generated_Source\PSoC4/BLE_HAL_PVT.c **** *  const uint8 *buffer: Pointer to the buffer containing the data to be stored.
 106:.\Generated_Source\PSoC4/BLE_HAL_PVT.c **** *  const uint8 *varFlash: Pointer to the array or variable in the flash.
 107:.\Generated_Source\PSoC4/BLE_HAL_PVT.c **** *  uint16 length: the length of the data in bytes.
 108:.\Generated_Source\PSoC4/BLE_HAL_PVT.c **** *
 109:.\Generated_Source\PSoC4/BLE_HAL_PVT.c **** * Return:
 110:.\Generated_Source\PSoC4/BLE_HAL_PVT.c **** *  CYRET_SUCCESS    a successful write
 111:.\Generated_Source\PSoC4/BLE_HAL_PVT.c **** *  CYRET_BAD_PARAM  A request to write outside the flash boundary.
 112:.\Generated_Source\PSoC4/BLE_HAL_PVT.c **** *  CYRET_UNKNOWN    Other errors in writing the flash
 113:.\Generated_Source\PSoC4/BLE_HAL_PVT.c **** *
 114:.\Generated_Source\PSoC4/BLE_HAL_PVT.c **** * Side Effects:
 115:.\Generated_Source\PSoC4/BLE_HAL_PVT.c **** *  This API will automatically modify the clock settings for the device.
 116:.\Generated_Source\PSoC4/BLE_HAL_PVT.c **** *  Writing to flash requires changes to be done to the IMO (set to 48 MHz)
 117:.\Generated_Source\PSoC4/BLE_HAL_PVT.c **** *  and HFCLK (source set to IMO) settings. The configuration is restored before
 118:.\Generated_Source\PSoC4/BLE_HAL_PVT.c **** *  returning. This will impact the operation of most of the hardware in the
 119:.\Generated_Source\PSoC4/BLE_HAL_PVT.c **** *  device.
 120:.\Generated_Source\PSoC4/BLE_HAL_PVT.c **** *
 121:.\Generated_Source\PSoC4/BLE_HAL_PVT.c **** *******************************************************************************/
 122:.\Generated_Source\PSoC4/BLE_HAL_PVT.c **** cystatus CyBLE_Nvram_Write (const uint8 buffer[], const uint8 varFlash[], uint16 length)
 123:.\Generated_Source\PSoC4/BLE_HAL_PVT.c **** {
  26              		.loc 1 123 0
  27              		.cfi_startproc
  28 0000 80B5     		push	{r7, lr}
  29              		.cfi_def_cfa_offset 8
  30              		.cfi_offset 7, -8
  31              		.cfi_offset 14, -4
  32 0002 ACB0     		sub	sp, sp, #176
  33              		.cfi_def_cfa_offset 184
  34 0004 00AF     		add	r7, sp, #0
  35              		.cfi_def_cfa_register 7
  36 0006 F860     		str	r0, [r7, #12]
  37 0008 B960     		str	r1, [r7, #8]
  38 000a BB1D     		add	r3, r7, #6
  39 000c 1A80     		strh	r2, [r3]
 124:.\Generated_Source\PSoC4/BLE_HAL_PVT.c ****     uint8 writeBuffer[CY_FLASH_SIZEOF_ROW];
 125:.\Generated_Source\PSoC4/BLE_HAL_PVT.c ****     uint32 rowId;
 126:.\Generated_Source\PSoC4/BLE_HAL_PVT.c ****     uint32 dstIndex;
 127:.\Generated_Source\PSoC4/BLE_HAL_PVT.c ****     uint32 srcIndex = 0u;
  40              		.loc 1 127 0
  41 000e 0023     		mov	r3, #0
  42 0010 A422     		mov	r2, #164
  43 0012 BA18     		add	r2, r7, r2
  44 0014 1360     		str	r3, [r2]
ARM GAS  C:\Users\Lonnie\AppData\Local\Temp\ccbLKr61.s 			page 4


 128:.\Generated_Source\PSoC4/BLE_HAL_PVT.c ****     cystatus rc = CYRET_SUCCESS;
  45              		.loc 1 128 0
  46 0016 0023     		mov	r3, #0
  47 0018 A022     		mov	r2, #160
  48 001a BA18     		add	r2, r7, r2
  49 001c 1360     		str	r3, [r2]
 129:.\Generated_Source\PSoC4/BLE_HAL_PVT.c ****     uint32 eeOffset;
 130:.\Generated_Source\PSoC4/BLE_HAL_PVT.c ****     uint32 byteOffset;
 131:.\Generated_Source\PSoC4/BLE_HAL_PVT.c ****     uint32 rowsNotEqual;
 132:.\Generated_Source\PSoC4/BLE_HAL_PVT.c **** 
 133:.\Generated_Source\PSoC4/BLE_HAL_PVT.c ****     eeOffset = (uint32)varFlash;
  50              		.loc 1 133 0
  51 001e BB68     		ldr	r3, [r7, #8]
  52 0020 9422     		mov	r2, #148
  53 0022 BA18     		add	r2, r7, r2
  54 0024 1360     		str	r3, [r2]
 134:.\Generated_Source\PSoC4/BLE_HAL_PVT.c **** 
 135:.\Generated_Source\PSoC4/BLE_HAL_PVT.c ****     /* Make sure, that varFlash[] points to ROM */
 136:.\Generated_Source\PSoC4/BLE_HAL_PVT.c ****     if ((eeOffset + length) < CYBLE_HAL_FLASH_END_ADDR)
  55              		.loc 1 136 0
  56 0026 BB1D     		add	r3, r7, #6
  57 0028 1A88     		ldrh	r2, [r3]
  58 002a 9423     		mov	r3, #148
  59 002c FB18     		add	r3, r7, r3
  60 002e 1B68     		ldr	r3, [r3]
  61 0030 D318     		add	r3, r2, r3
  62 0032 5A4A     		ldr	r2, .L14
  63 0034 9342     		cmp	r3, r2
  64 0036 00D9     		bls	.LCB36
  65 0038 96E0     		b	.L2	@long jump
  66              	.LCB36:
 137:.\Generated_Source\PSoC4/BLE_HAL_PVT.c ****     {
 138:.\Generated_Source\PSoC4/BLE_HAL_PVT.c ****         rowId = eeOffset / CY_FLASH_SIZEOF_ROW;
  67              		.loc 1 138 0
  68 003a 9423     		mov	r3, #148
  69 003c FB18     		add	r3, r7, r3
  70 003e 1B68     		ldr	r3, [r3]
  71 0040 DB09     		lsr	r3, r3, #7
  72 0042 AC22     		mov	r2, #172
  73 0044 BA18     		add	r2, r7, r2
  74 0046 1360     		str	r3, [r2]
 139:.\Generated_Source\PSoC4/BLE_HAL_PVT.c ****         byteOffset = CY_FLASH_SIZEOF_ROW * rowId;
  75              		.loc 1 139 0
  76 0048 AC23     		mov	r3, #172
  77 004a FB18     		add	r3, r7, r3
  78 004c 1B68     		ldr	r3, [r3]
  79 004e DB01     		lsl	r3, r3, #7
  80 0050 9C22     		mov	r2, #156
  81 0052 BA18     		add	r2, r7, r2
  82 0054 1360     		str	r3, [r2]
 140:.\Generated_Source\PSoC4/BLE_HAL_PVT.c **** 
 141:.\Generated_Source\PSoC4/BLE_HAL_PVT.c ****         while ((srcIndex < length) && (CYRET_SUCCESS == rc))
  83              		.loc 1 141 0
  84 0056 79E0     		b	.L3
  85              	.L11:
 142:.\Generated_Source\PSoC4/BLE_HAL_PVT.c ****         {
 143:.\Generated_Source\PSoC4/BLE_HAL_PVT.c ****             rowsNotEqual = 0u;
ARM GAS  C:\Users\Lonnie\AppData\Local\Temp\ccbLKr61.s 			page 5


  86              		.loc 1 143 0
  87 0058 0023     		mov	r3, #0
  88 005a 9822     		mov	r2, #152
  89 005c BA18     		add	r2, r7, r2
  90 005e 1360     		str	r3, [r2]
 144:.\Generated_Source\PSoC4/BLE_HAL_PVT.c ****             /* Copy data to the write buffer either from the source buffer or from the flash */
 145:.\Generated_Source\PSoC4/BLE_HAL_PVT.c ****             for (dstIndex = 0u; dstIndex < CY_FLASH_SIZEOF_ROW; dstIndex++)
  91              		.loc 1 145 0
  92 0060 0023     		mov	r3, #0
  93 0062 A822     		mov	r2, #168
  94 0064 BA18     		add	r2, r7, r2
  95 0066 1360     		str	r3, [r2]
  96 0068 52E0     		b	.L4
  97              	.L8:
 146:.\Generated_Source\PSoC4/BLE_HAL_PVT.c ****             {
 147:.\Generated_Source\PSoC4/BLE_HAL_PVT.c ****                 if ((byteOffset >= eeOffset) && (srcIndex < length))
  98              		.loc 1 147 0
  99 006a 9C23     		mov	r3, #156
 100 006c FB18     		add	r3, r7, r3
 101 006e 1A68     		ldr	r2, [r3]
 102 0070 9423     		mov	r3, #148
 103 0072 FB18     		add	r3, r7, r3
 104 0074 1B68     		ldr	r3, [r3]
 105 0076 9A42     		cmp	r2, r3
 106 0078 2FD3     		bcc	.L5
 107              		.loc 1 147 0 is_stmt 0 discriminator 1
 108 007a BB1D     		add	r3, r7, #6
 109 007c 1A88     		ldrh	r2, [r3]
 110 007e A423     		mov	r3, #164
 111 0080 FB18     		add	r3, r7, r3
 112 0082 1B68     		ldr	r3, [r3]
 113 0084 9A42     		cmp	r2, r3
 114 0086 28D9     		bls	.L5
 148:.\Generated_Source\PSoC4/BLE_HAL_PVT.c ****                 {
 149:.\Generated_Source\PSoC4/BLE_HAL_PVT.c ****                     /* Detect that row programming is required */
 150:.\Generated_Source\PSoC4/BLE_HAL_PVT.c ****                     if(writeBuffer[dstIndex] != buffer[srcIndex])
 115              		.loc 1 150 0 is_stmt 1
 116 0088 1423     		mov	r3, #20
 117 008a FA18     		add	r2, r7, r3
 118 008c A823     		mov	r3, #168
 119 008e FB18     		add	r3, r7, r3
 120 0090 1B68     		ldr	r3, [r3]
 121 0092 D318     		add	r3, r2, r3
 122 0094 1A78     		ldrb	r2, [r3]
 123 0096 F968     		ldr	r1, [r7, #12]
 124 0098 A423     		mov	r3, #164
 125 009a FB18     		add	r3, r7, r3
 126 009c 1B68     		ldr	r3, [r3]
 127 009e CB18     		add	r3, r1, r3
 128 00a0 1B78     		ldrb	r3, [r3]
 129 00a2 9A42     		cmp	r2, r3
 130 00a4 11D0     		beq	.L6
 151:.\Generated_Source\PSoC4/BLE_HAL_PVT.c ****                     {
 152:.\Generated_Source\PSoC4/BLE_HAL_PVT.c ****                         writeBuffer[dstIndex] = buffer[srcIndex];
 131              		.loc 1 152 0
 132 00a6 FA68     		ldr	r2, [r7, #12]
 133 00a8 A423     		mov	r3, #164
ARM GAS  C:\Users\Lonnie\AppData\Local\Temp\ccbLKr61.s 			page 6


 134 00aa FB18     		add	r3, r7, r3
 135 00ac 1B68     		ldr	r3, [r3]
 136 00ae D318     		add	r3, r2, r3
 137 00b0 1978     		ldrb	r1, [r3]
 138 00b2 1423     		mov	r3, #20
 139 00b4 FA18     		add	r2, r7, r3
 140 00b6 A823     		mov	r3, #168
 141 00b8 FB18     		add	r3, r7, r3
 142 00ba 1B68     		ldr	r3, [r3]
 143 00bc D318     		add	r3, r2, r3
 144 00be 0A1C     		add	r2, r1, #0
 145 00c0 1A70     		strb	r2, [r3]
 153:.\Generated_Source\PSoC4/BLE_HAL_PVT.c ****                         rowsNotEqual = 1u;  
 146              		.loc 1 153 0
 147 00c2 0123     		mov	r3, #1
 148 00c4 9822     		mov	r2, #152
 149 00c6 BA18     		add	r2, r7, r2
 150 00c8 1360     		str	r3, [r2]
 151              	.L6:
 154:.\Generated_Source\PSoC4/BLE_HAL_PVT.c ****                     }
 155:.\Generated_Source\PSoC4/BLE_HAL_PVT.c ****                     srcIndex++;
 152              		.loc 1 155 0
 153 00ca A423     		mov	r3, #164
 154 00cc FB18     		add	r3, r7, r3
 155 00ce 1B68     		ldr	r3, [r3]
 156 00d0 0133     		add	r3, r3, #1
 157 00d2 A422     		mov	r2, #164
 158 00d4 BA18     		add	r2, r7, r2
 159 00d6 1360     		str	r3, [r2]
 160 00d8 0CE0     		b	.L7
 161              	.L5:
 156:.\Generated_Source\PSoC4/BLE_HAL_PVT.c ****                 }
 157:.\Generated_Source\PSoC4/BLE_HAL_PVT.c ****                 else
 158:.\Generated_Source\PSoC4/BLE_HAL_PVT.c ****                 {
 159:.\Generated_Source\PSoC4/BLE_HAL_PVT.c ****                     writeBuffer[dstIndex] = CY_GET_XTND_REG8(CYDEV_FLASH_BASE + byteOffset);
 162              		.loc 1 159 0
 163 00da 9C23     		mov	r3, #156
 164 00dc FB18     		add	r3, r7, r3
 165 00de 1B68     		ldr	r3, [r3]
 166 00e0 1B78     		ldrb	r3, [r3]
 167 00e2 D9B2     		uxtb	r1, r3
 168 00e4 1423     		mov	r3, #20
 169 00e6 FA18     		add	r2, r7, r3
 170 00e8 A823     		mov	r3, #168
 171 00ea FB18     		add	r3, r7, r3
 172 00ec 1B68     		ldr	r3, [r3]
 173 00ee D318     		add	r3, r2, r3
 174 00f0 0A1C     		add	r2, r1, #0
 175 00f2 1A70     		strb	r2, [r3]
 176              	.L7:
 160:.\Generated_Source\PSoC4/BLE_HAL_PVT.c ****                 }
 161:.\Generated_Source\PSoC4/BLE_HAL_PVT.c ****                 byteOffset++;
 177              		.loc 1 161 0 discriminator 2
 178 00f4 9C23     		mov	r3, #156
 179 00f6 FB18     		add	r3, r7, r3
 180 00f8 1B68     		ldr	r3, [r3]
 181 00fa 0133     		add	r3, r3, #1
ARM GAS  C:\Users\Lonnie\AppData\Local\Temp\ccbLKr61.s 			page 7


 182 00fc 9C22     		mov	r2, #156
 183 00fe BA18     		add	r2, r7, r2
 184 0100 1360     		str	r3, [r2]
 145:.\Generated_Source\PSoC4/BLE_HAL_PVT.c ****             {
 185              		.loc 1 145 0 discriminator 2
 186 0102 A823     		mov	r3, #168
 187 0104 FB18     		add	r3, r7, r3
 188 0106 1B68     		ldr	r3, [r3]
 189 0108 0133     		add	r3, r3, #1
 190 010a A822     		mov	r2, #168
 191 010c BA18     		add	r2, r7, r2
 192 010e 1360     		str	r3, [r2]
 193              	.L4:
 145:.\Generated_Source\PSoC4/BLE_HAL_PVT.c ****             {
 194              		.loc 1 145 0 is_stmt 0 discriminator 1
 195 0110 A823     		mov	r3, #168
 196 0112 FB18     		add	r3, r7, r3
 197 0114 1B68     		ldr	r3, [r3]
 198 0116 7F2B     		cmp	r3, #127
 199 0118 A7D9     		bls	.L8
 162:.\Generated_Source\PSoC4/BLE_HAL_PVT.c ****             }
 163:.\Generated_Source\PSoC4/BLE_HAL_PVT.c **** 
 164:.\Generated_Source\PSoC4/BLE_HAL_PVT.c ****             if(rowsNotEqual != 0u)
 200              		.loc 1 164 0 is_stmt 1
 201 011a 9823     		mov	r3, #152
 202 011c FB18     		add	r3, r7, r3
 203 011e 1B68     		ldr	r3, [r3]
 204 0120 002B     		cmp	r3, #0
 205 0122 0CD0     		beq	.L9
 165:.\Generated_Source\PSoC4/BLE_HAL_PVT.c ****             {
 166:.\Generated_Source\PSoC4/BLE_HAL_PVT.c ****                 /* Write flash row */
 167:.\Generated_Source\PSoC4/BLE_HAL_PVT.c ****                 rc = CySysFlashWriteRow(rowId, writeBuffer);
 206              		.loc 1 167 0
 207 0124 AC23     		mov	r3, #172
 208 0126 FB18     		add	r3, r7, r3
 209 0128 1A68     		ldr	r2, [r3]
 210 012a 1423     		mov	r3, #20
 211 012c FB18     		add	r3, r7, r3
 212 012e 101C     		mov	r0, r2
 213 0130 191C     		mov	r1, r3
 214 0132 FFF7FEFF 		bl	CySysFlashWriteRow
 215 0136 031C     		mov	r3, r0
 216 0138 A022     		mov	r2, #160
 217 013a BA18     		add	r2, r7, r2
 218 013c 1360     		str	r3, [r2]
 219              	.L9:
 168:.\Generated_Source\PSoC4/BLE_HAL_PVT.c ****             }
 169:.\Generated_Source\PSoC4/BLE_HAL_PVT.c **** 
 170:.\Generated_Source\PSoC4/BLE_HAL_PVT.c ****             /* Go to the next row */
 171:.\Generated_Source\PSoC4/BLE_HAL_PVT.c ****             rowId++;
 220              		.loc 1 171 0
 221 013e AC23     		mov	r3, #172
 222 0140 FB18     		add	r3, r7, r3
 223 0142 1B68     		ldr	r3, [r3]
 224 0144 0133     		add	r3, r3, #1
 225 0146 AC22     		mov	r2, #172
 226 0148 BA18     		add	r2, r7, r2
ARM GAS  C:\Users\Lonnie\AppData\Local\Temp\ccbLKr61.s 			page 8


 227 014a 1360     		str	r3, [r2]
 228              	.L3:
 141:.\Generated_Source\PSoC4/BLE_HAL_PVT.c ****         {
 229              		.loc 1 141 0
 230 014c BB1D     		add	r3, r7, #6
 231 014e 1A88     		ldrh	r2, [r3]
 232 0150 A423     		mov	r3, #164
 233 0152 FB18     		add	r3, r7, r3
 234 0154 1B68     		ldr	r3, [r3]
 235 0156 9A42     		cmp	r2, r3
 236 0158 0AD9     		bls	.L10
 141:.\Generated_Source\PSoC4/BLE_HAL_PVT.c ****         {
 237              		.loc 1 141 0 is_stmt 0 discriminator 1
 238 015a A023     		mov	r3, #160
 239 015c FB18     		add	r3, r7, r3
 240 015e 1B68     		ldr	r3, [r3]
 241 0160 002B     		cmp	r3, #0
 242 0162 00D1     		bne	.LCB203
 243 0164 78E7     		b	.L11	@long jump
 244              	.LCB203:
 245 0166 03E0     		b	.L10
 246              	.L2:
 172:.\Generated_Source\PSoC4/BLE_HAL_PVT.c ****         }
 173:.\Generated_Source\PSoC4/BLE_HAL_PVT.c ****     }
 174:.\Generated_Source\PSoC4/BLE_HAL_PVT.c ****     else
 175:.\Generated_Source\PSoC4/BLE_HAL_PVT.c ****     {
 176:.\Generated_Source\PSoC4/BLE_HAL_PVT.c ****         rc = CYRET_BAD_PARAM;
 247              		.loc 1 176 0 is_stmt 1
 248 0168 0123     		mov	r3, #1
 249 016a A022     		mov	r2, #160
 250 016c BA18     		add	r2, r7, r2
 251 016e 1360     		str	r3, [r2]
 252              	.L10:
 177:.\Generated_Source\PSoC4/BLE_HAL_PVT.c ****     }
 178:.\Generated_Source\PSoC4/BLE_HAL_PVT.c **** 
 179:.\Generated_Source\PSoC4/BLE_HAL_PVT.c ****     /* Mask return codes from flash, if they are not supported */
 180:.\Generated_Source\PSoC4/BLE_HAL_PVT.c ****     if ((CYRET_SUCCESS != rc) && (CYRET_BAD_PARAM != rc))
 253              		.loc 1 180 0
 254 0170 A023     		mov	r3, #160
 255 0172 FB18     		add	r3, r7, r3
 256 0174 1B68     		ldr	r3, [r3]
 257 0176 002B     		cmp	r3, #0
 258 0178 09D0     		beq	.L12
 259              		.loc 1 180 0 is_stmt 0 discriminator 1
 260 017a A023     		mov	r3, #160
 261 017c FB18     		add	r3, r7, r3
 262 017e 1B68     		ldr	r3, [r3]
 263 0180 012B     		cmp	r3, #1
 264 0182 04D0     		beq	.L12
 181:.\Generated_Source\PSoC4/BLE_HAL_PVT.c ****     {
 182:.\Generated_Source\PSoC4/BLE_HAL_PVT.c ****         rc = CYRET_UNKNOWN;
 265              		.loc 1 182 0 is_stmt 1
 266 0184 0123     		mov	r3, #1
 267 0186 5B42     		neg	r3, r3
 268 0188 A022     		mov	r2, #160
 269 018a BA18     		add	r2, r7, r2
 270 018c 1360     		str	r3, [r2]
ARM GAS  C:\Users\Lonnie\AppData\Local\Temp\ccbLKr61.s 			page 9


 271              	.L12:
 183:.\Generated_Source\PSoC4/BLE_HAL_PVT.c ****     }
 184:.\Generated_Source\PSoC4/BLE_HAL_PVT.c ****     
 185:.\Generated_Source\PSoC4/BLE_HAL_PVT.c ****     return (rc);
 272              		.loc 1 185 0
 273 018e A023     		mov	r3, #160
 274 0190 FB18     		add	r3, r7, r3
 275 0192 1B68     		ldr	r3, [r3]
 186:.\Generated_Source\PSoC4/BLE_HAL_PVT.c **** }
 276              		.loc 1 186 0
 277 0194 181C     		mov	r0, r3
 278 0196 BD46     		mov	sp, r7
 279 0198 2CB0     		add	sp, sp, #176
 280              		@ sp needed
 281 019a 80BD     		pop	{r7, pc}
 282              	.L15:
 283              		.align	2
 284              	.L14:
 285 019c FFFF0100 		.word	131071
 286              		.cfi_endproc
 287              	.LFE2:
 288              		.size	CyBLE_Nvram_Write, .-CyBLE_Nvram_Write
 289              		.section	.text.CyBLE_Nvram_Erase,"ax",%progbits
 290              		.align	2
 291              		.global	CyBLE_Nvram_Erase
 292              		.code	16
 293              		.thumb_func
 294              		.type	CyBLE_Nvram_Erase, %function
 295              	CyBLE_Nvram_Erase:
 296              	.LFB3:
 187:.\Generated_Source\PSoC4/BLE_HAL_PVT.c **** 
 188:.\Generated_Source\PSoC4/BLE_HAL_PVT.c **** /*******************************************************************************
 189:.\Generated_Source\PSoC4/BLE_HAL_PVT.c **** * Function Name: CyBLE_Nvram_Erase
 190:.\Generated_Source\PSoC4/BLE_HAL_PVT.c **** ********************************************************************************
 191:.\Generated_Source\PSoC4/BLE_HAL_PVT.c **** *
 192:.\Generated_Source\PSoC4/BLE_HAL_PVT.c **** * Summary:
 193:.\Generated_Source\PSoC4/BLE_HAL_PVT.c **** *  This API erases the data from the NVRAM store. This API will perform an 
 194:.\Generated_Source\PSoC4/BLE_HAL_PVT.c **** *  address range check based on the length before performing erase operation.
 195:.\Generated_Source\PSoC4/BLE_HAL_PVT.c **** *
 196:.\Generated_Source\PSoC4/BLE_HAL_PVT.c **** * Parameters:
 197:.\Generated_Source\PSoC4/BLE_HAL_PVT.c **** *  const uint8 *varFlash: the pointer to the array or variable in the flash.
 198:.\Generated_Source\PSoC4/BLE_HAL_PVT.c **** *  uint16 length: the length of the data in bytes.
 199:.\Generated_Source\PSoC4/BLE_HAL_PVT.c **** *
 200:.\Generated_Source\PSoC4/BLE_HAL_PVT.c **** * Return:
 201:.\Generated_Source\PSoC4/BLE_HAL_PVT.c **** *  CYRET_SUCCESS    a successful write
 202:.\Generated_Source\PSoC4/BLE_HAL_PVT.c **** *  CYRET_BAD_PARAM  A request to write outside the flash boundary.
 203:.\Generated_Source\PSoC4/BLE_HAL_PVT.c **** *  CYRET_UNKNOWN    Other errors in writing the flash
 204:.\Generated_Source\PSoC4/BLE_HAL_PVT.c **** *
 205:.\Generated_Source\PSoC4/BLE_HAL_PVT.c **** *******************************************************************************/
 206:.\Generated_Source\PSoC4/BLE_HAL_PVT.c **** cystatus CyBLE_Nvram_Erase (const uint8 *varFlash, uint16 length)
 207:.\Generated_Source\PSoC4/BLE_HAL_PVT.c **** {
 297              		.loc 1 207 0
 298              		.cfi_startproc
 299 0000 80B5     		push	{r7, lr}
 300              		.cfi_def_cfa_offset 8
 301              		.cfi_offset 7, -8
 302              		.cfi_offset 14, -4
ARM GAS  C:\Users\Lonnie\AppData\Local\Temp\ccbLKr61.s 			page 10


 303 0002 A6B0     		sub	sp, sp, #152
 304              		.cfi_def_cfa_offset 160
 305 0004 00AF     		add	r7, sp, #0
 306              		.cfi_def_cfa_register 7
 307 0006 7860     		str	r0, [r7, #4]
 308 0008 0A1C     		mov	r2, r1
 309 000a BB1C     		add	r3, r7, #2
 310 000c 1A80     		strh	r2, [r3]
 208:.\Generated_Source\PSoC4/BLE_HAL_PVT.c ****     const uint8 *tempFlash;
 209:.\Generated_Source\PSoC4/BLE_HAL_PVT.c ****     uint8 flashBuffer[CY_FLASH_SIZEOF_ROW] = {0u};
 311              		.loc 1 209 0
 312 000e 0C23     		mov	r3, #12
 313 0010 FB18     		add	r3, r7, r3
 314 0012 1A1C     		mov	r2, r3
 315 0014 8023     		mov	r3, #128
 316 0016 101C     		mov	r0, r2
 317 0018 0021     		mov	r1, #0
 318 001a 1A1C     		mov	r2, r3
 319 001c FFF7FEFF 		bl	memset
 210:.\Generated_Source\PSoC4/BLE_HAL_PVT.c ****     uint16 lengthFlash;
 211:.\Generated_Source\PSoC4/BLE_HAL_PVT.c ****     uint16 lengthRemaining;
 212:.\Generated_Source\PSoC4/BLE_HAL_PVT.c ****     cystatus rc = CYRET_UNKNOWN;
 320              		.loc 1 212 0
 321 0020 0123     		mov	r3, #1
 322 0022 5B42     		neg	r3, r3
 323 0024 8C22     		mov	r2, #140
 324 0026 BA18     		add	r2, r7, r2
 325 0028 1360     		str	r3, [r2]
 213:.\Generated_Source\PSoC4/BLE_HAL_PVT.c **** 
 214:.\Generated_Source\PSoC4/BLE_HAL_PVT.c ****     tempFlash = varFlash;
 326              		.loc 1 214 0
 327 002a 7B68     		ldr	r3, [r7, #4]
 328 002c 9422     		mov	r2, #148
 329 002e BA18     		add	r2, r7, r2
 330 0030 1360     		str	r3, [r2]
 215:.\Generated_Source\PSoC4/BLE_HAL_PVT.c ****     lengthRemaining = length;
 331              		.loc 1 215 0
 332 0032 9023     		mov	r3, #144
 333 0034 FB18     		add	r3, r7, r3
 334 0036 BA1C     		add	r2, r7, #2
 335 0038 1288     		ldrh	r2, [r2]
 336 003a 1A80     		strh	r2, [r3]
 216:.\Generated_Source\PSoC4/BLE_HAL_PVT.c **** 
 217:.\Generated_Source\PSoC4/BLE_HAL_PVT.c ****     while(lengthRemaining > 0u)
 337              		.loc 1 217 0
 338 003c 37E0     		b	.L17
 339              	.L22:
 218:.\Generated_Source\PSoC4/BLE_HAL_PVT.c ****     {
 219:.\Generated_Source\PSoC4/BLE_HAL_PVT.c ****         if(lengthRemaining < CY_FLASH_SIZEOF_ROW)
 340              		.loc 1 219 0
 341 003e 9023     		mov	r3, #144
 342 0040 FB18     		add	r3, r7, r3
 343 0042 1B88     		ldrh	r3, [r3]
 344 0044 7F2B     		cmp	r3, #127
 345 0046 06D8     		bhi	.L18
 220:.\Generated_Source\PSoC4/BLE_HAL_PVT.c ****         {
 221:.\Generated_Source\PSoC4/BLE_HAL_PVT.c ****             lengthFlash = lengthRemaining;
ARM GAS  C:\Users\Lonnie\AppData\Local\Temp\ccbLKr61.s 			page 11


 346              		.loc 1 221 0
 347 0048 9223     		mov	r3, #146
 348 004a FB18     		add	r3, r7, r3
 349 004c 9022     		mov	r2, #144
 350 004e BA18     		add	r2, r7, r2
 351 0050 1288     		ldrh	r2, [r2]
 352 0052 1A80     		strh	r2, [r3]
 353 0054 03E0     		b	.L19
 354              	.L18:
 222:.\Generated_Source\PSoC4/BLE_HAL_PVT.c ****         }
 223:.\Generated_Source\PSoC4/BLE_HAL_PVT.c ****         else
 224:.\Generated_Source\PSoC4/BLE_HAL_PVT.c ****         {
 225:.\Generated_Source\PSoC4/BLE_HAL_PVT.c ****             lengthFlash = CY_FLASH_SIZEOF_ROW;
 355              		.loc 1 225 0
 356 0056 9223     		mov	r3, #146
 357 0058 FB18     		add	r3, r7, r3
 358 005a 8022     		mov	r2, #128
 359 005c 1A80     		strh	r2, [r3]
 360              	.L19:
 226:.\Generated_Source\PSoC4/BLE_HAL_PVT.c ****         }
 227:.\Generated_Source\PSoC4/BLE_HAL_PVT.c ****         rc = CyBLE_Nvram_Write(flashBuffer, tempFlash, lengthFlash);
 361              		.loc 1 227 0
 362 005e 0C23     		mov	r3, #12
 363 0060 F918     		add	r1, r7, r3
 364 0062 9423     		mov	r3, #148
 365 0064 FB18     		add	r3, r7, r3
 366 0066 1A68     		ldr	r2, [r3]
 367 0068 9223     		mov	r3, #146
 368 006a FB18     		add	r3, r7, r3
 369 006c 1B88     		ldrh	r3, [r3]
 370 006e 081C     		mov	r0, r1
 371 0070 111C     		mov	r1, r2
 372 0072 1A1C     		mov	r2, r3
 373 0074 FFF7FEFF 		bl	CyBLE_Nvram_Write
 374 0078 031C     		mov	r3, r0
 375 007a 8C22     		mov	r2, #140
 376 007c BA18     		add	r2, r7, r2
 377 007e 1360     		str	r3, [r2]
 228:.\Generated_Source\PSoC4/BLE_HAL_PVT.c ****         if(rc != CYRET_SUCCESS)
 378              		.loc 1 228 0
 379 0080 8C23     		mov	r3, #140
 380 0082 FB18     		add	r3, r7, r3
 381 0084 1B68     		ldr	r3, [r3]
 382 0086 002B     		cmp	r3, #0
 383 0088 00D0     		beq	.L20
 229:.\Generated_Source\PSoC4/BLE_HAL_PVT.c ****         {
 230:.\Generated_Source\PSoC4/BLE_HAL_PVT.c ****             break;
 384              		.loc 1 230 0
 385 008a 15E0     		b	.L21
 386              	.L20:
 231:.\Generated_Source\PSoC4/BLE_HAL_PVT.c ****         }
 232:.\Generated_Source\PSoC4/BLE_HAL_PVT.c ****         tempFlash += CY_FLASH_SIZEOF_ROW;
 387              		.loc 1 232 0
 388 008c 9423     		mov	r3, #148
 389 008e FB18     		add	r3, r7, r3
 390 0090 1B68     		ldr	r3, [r3]
 391 0092 8033     		add	r3, r3, #128
ARM GAS  C:\Users\Lonnie\AppData\Local\Temp\ccbLKr61.s 			page 12


 392 0094 9422     		mov	r2, #148
 393 0096 BA18     		add	r2, r7, r2
 394 0098 1360     		str	r3, [r2]
 233:.\Generated_Source\PSoC4/BLE_HAL_PVT.c ****         lengthRemaining -= lengthFlash;
 395              		.loc 1 233 0
 396 009a 9023     		mov	r3, #144
 397 009c FB18     		add	r3, r7, r3
 398 009e 9022     		mov	r2, #144
 399 00a0 B918     		add	r1, r7, r2
 400 00a2 9222     		mov	r2, #146
 401 00a4 BA18     		add	r2, r7, r2
 402 00a6 0988     		ldrh	r1, [r1]
 403 00a8 1288     		ldrh	r2, [r2]
 404 00aa 8A1A     		sub	r2, r1, r2
 405 00ac 1A80     		strh	r2, [r3]
 406              	.L17:
 217:.\Generated_Source\PSoC4/BLE_HAL_PVT.c ****     {
 407              		.loc 1 217 0
 408 00ae 9023     		mov	r3, #144
 409 00b0 FB18     		add	r3, r7, r3
 410 00b2 1B88     		ldrh	r3, [r3]
 411 00b4 002B     		cmp	r3, #0
 412 00b6 C2D1     		bne	.L22
 413              	.L21:
 234:.\Generated_Source\PSoC4/BLE_HAL_PVT.c ****     }
 235:.\Generated_Source\PSoC4/BLE_HAL_PVT.c **** 
 236:.\Generated_Source\PSoC4/BLE_HAL_PVT.c ****     return rc;
 414              		.loc 1 236 0
 415 00b8 8C23     		mov	r3, #140
 416 00ba FB18     		add	r3, r7, r3
 417 00bc 1B68     		ldr	r3, [r3]
 237:.\Generated_Source\PSoC4/BLE_HAL_PVT.c **** }
 418              		.loc 1 237 0
 419 00be 181C     		mov	r0, r3
 420 00c0 BD46     		mov	sp, r7
 421 00c2 26B0     		add	sp, sp, #152
 422              		@ sp needed
 423 00c4 80BD     		pop	{r7, pc}
 424              		.cfi_endproc
 425              	.LFE3:
 426              		.size	CyBLE_Nvram_Erase, .-CyBLE_Nvram_Erase
 427 00c6 C046     		.section	.text.CyBLE_Bless_LlRegRead,"ax",%progbits
 428              		.align	2
 429              		.global	CyBLE_Bless_LlRegRead
 430              		.code	16
 431              		.thumb_func
 432              		.type	CyBLE_Bless_LlRegRead, %function
 433              	CyBLE_Bless_LlRegRead:
 434              	.LFB4:
 238:.\Generated_Source\PSoC4/BLE_HAL_PVT.c **** 
 239:.\Generated_Source\PSoC4/BLE_HAL_PVT.c **** 
 240:.\Generated_Source\PSoC4/BLE_HAL_PVT.c **** /*******************************************************************************
 241:.\Generated_Source\PSoC4/BLE_HAL_PVT.c **** * Function Name: CyBLE_Bless_LlRegRead
 242:.\Generated_Source\PSoC4/BLE_HAL_PVT.c **** ********************************************************************************
 243:.\Generated_Source\PSoC4/BLE_HAL_PVT.c **** *
 244:.\Generated_Source\PSoC4/BLE_HAL_PVT.c **** * Summary:
 245:.\Generated_Source\PSoC4/BLE_HAL_PVT.c **** *  This API reads the content of the BLESS Link Layer register from the stack.
ARM GAS  C:\Users\Lonnie\AppData\Local\Temp\ccbLKr61.s 			page 13


 246:.\Generated_Source\PSoC4/BLE_HAL_PVT.c **** *
 247:.\Generated_Source\PSoC4/BLE_HAL_PVT.c **** * Parameters:
 248:.\Generated_Source\PSoC4/BLE_HAL_PVT.c **** *  uint32 *blessAddr: the pointer to the BLESS link layer address.
 249:.\Generated_Source\PSoC4/BLE_HAL_PVT.c **** *  uint16 *regValue: the pointer to the buffer space to copy the read value.
 250:.\Generated_Source\PSoC4/BLE_HAL_PVT.c **** *
 251:.\Generated_Source\PSoC4/BLE_HAL_PVT.c **** * Return:
 252:.\Generated_Source\PSoC4/BLE_HAL_PVT.c **** *  None
 253:.\Generated_Source\PSoC4/BLE_HAL_PVT.c **** *
 254:.\Generated_Source\PSoC4/BLE_HAL_PVT.c **** *******************************************************************************/
 255:.\Generated_Source\PSoC4/BLE_HAL_PVT.c **** void CyBLE_Bless_LlRegRead (const reg32 *blessAddr, uint16 *regValue)
 256:.\Generated_Source\PSoC4/BLE_HAL_PVT.c **** {
 435              		.loc 1 256 0
 436              		.cfi_startproc
 437 0000 80B5     		push	{r7, lr}
 438              		.cfi_def_cfa_offset 8
 439              		.cfi_offset 7, -8
 440              		.cfi_offset 14, -4
 441 0002 82B0     		sub	sp, sp, #8
 442              		.cfi_def_cfa_offset 16
 443 0004 00AF     		add	r7, sp, #0
 444              		.cfi_def_cfa_register 7
 445 0006 7860     		str	r0, [r7, #4]
 446 0008 3960     		str	r1, [r7]
 257:.\Generated_Source\PSoC4/BLE_HAL_PVT.c ****     *regValue = (uint16)CY_GET_REG32(blessAddr);
 447              		.loc 1 257 0
 448 000a 7B68     		ldr	r3, [r7, #4]
 449 000c 1B68     		ldr	r3, [r3]
 450 000e 9AB2     		uxth	r2, r3
 451 0010 3B68     		ldr	r3, [r7]
 452 0012 1A80     		strh	r2, [r3]
 258:.\Generated_Source\PSoC4/BLE_HAL_PVT.c **** }
 453              		.loc 1 258 0
 454 0014 BD46     		mov	sp, r7
 455 0016 02B0     		add	sp, sp, #8
 456              		@ sp needed
 457 0018 80BD     		pop	{r7, pc}
 458              		.cfi_endproc
 459              	.LFE4:
 460              		.size	CyBLE_Bless_LlRegRead, .-CyBLE_Bless_LlRegRead
 461 001a C046     		.section	.text.CyBLE_Bless_LlRegWrite,"ax",%progbits
 462              		.align	2
 463              		.global	CyBLE_Bless_LlRegWrite
 464              		.code	16
 465              		.thumb_func
 466              		.type	CyBLE_Bless_LlRegWrite, %function
 467              	CyBLE_Bless_LlRegWrite:
 468              	.LFB5:
 259:.\Generated_Source\PSoC4/BLE_HAL_PVT.c **** 
 260:.\Generated_Source\PSoC4/BLE_HAL_PVT.c **** 
 261:.\Generated_Source\PSoC4/BLE_HAL_PVT.c **** /*******************************************************************************
 262:.\Generated_Source\PSoC4/BLE_HAL_PVT.c **** * Function Name: CyBLE_Bless_LlRegWrite
 263:.\Generated_Source\PSoC4/BLE_HAL_PVT.c **** ********************************************************************************
 264:.\Generated_Source\PSoC4/BLE_HAL_PVT.c **** *
 265:.\Generated_Source\PSoC4/BLE_HAL_PVT.c **** * Summary:
 266:.\Generated_Source\PSoC4/BLE_HAL_PVT.c **** *  This API writes to the BLESS Link Layer register from the stack.
 267:.\Generated_Source\PSoC4/BLE_HAL_PVT.c **** *
 268:.\Generated_Source\PSoC4/BLE_HAL_PVT.c **** * Parameters:
ARM GAS  C:\Users\Lonnie\AppData\Local\Temp\ccbLKr61.s 			page 14


 269:.\Generated_Source\PSoC4/BLE_HAL_PVT.c **** *  uint32 *blessAddr: the pointer to the BLESS link layer address.
 270:.\Generated_Source\PSoC4/BLE_HAL_PVT.c **** *  uint16 regValue: the pointer to the value to be written to the BLESS LL reg.
 271:.\Generated_Source\PSoC4/BLE_HAL_PVT.c **** *
 272:.\Generated_Source\PSoC4/BLE_HAL_PVT.c **** * Return:
 273:.\Generated_Source\PSoC4/BLE_HAL_PVT.c **** *  None
 274:.\Generated_Source\PSoC4/BLE_HAL_PVT.c **** *
 275:.\Generated_Source\PSoC4/BLE_HAL_PVT.c **** *******************************************************************************/
 276:.\Generated_Source\PSoC4/BLE_HAL_PVT.c **** void CyBLE_Bless_LlRegWrite (reg32 *blessAddr, const uint16 regValue)
 277:.\Generated_Source\PSoC4/BLE_HAL_PVT.c **** {
 469              		.loc 1 277 0
 470              		.cfi_startproc
 471 0000 80B5     		push	{r7, lr}
 472              		.cfi_def_cfa_offset 8
 473              		.cfi_offset 7, -8
 474              		.cfi_offset 14, -4
 475 0002 82B0     		sub	sp, sp, #8
 476              		.cfi_def_cfa_offset 16
 477 0004 00AF     		add	r7, sp, #0
 478              		.cfi_def_cfa_register 7
 479 0006 7860     		str	r0, [r7, #4]
 480 0008 0A1C     		mov	r2, r1
 481 000a BB1C     		add	r3, r7, #2
 482 000c 1A80     		strh	r2, [r3]
 278:.\Generated_Source\PSoC4/BLE_HAL_PVT.c ****     CY_SET_REG32(blessAddr, regValue);
 483              		.loc 1 278 0
 484 000e BB1C     		add	r3, r7, #2
 485 0010 1A88     		ldrh	r2, [r3]
 486 0012 7B68     		ldr	r3, [r7, #4]
 487 0014 1A60     		str	r2, [r3]
 279:.\Generated_Source\PSoC4/BLE_HAL_PVT.c **** }
 488              		.loc 1 279 0
 489 0016 BD46     		mov	sp, r7
 490 0018 02B0     		add	sp, sp, #8
 491              		@ sp needed
 492 001a 80BD     		pop	{r7, pc}
 493              		.cfi_endproc
 494              	.LFE5:
 495              		.size	CyBLE_Bless_LlRegWrite, .-CyBLE_Bless_LlRegWrite
 496              		.section	.text.CyBLE_Bless_RfRegRead,"ax",%progbits
 497              		.align	2
 498              		.global	CyBLE_Bless_RfRegRead
 499              		.code	16
 500              		.thumb_func
 501              		.type	CyBLE_Bless_RfRegRead, %function
 502              	CyBLE_Bless_RfRegRead:
 503              	.LFB6:
 280:.\Generated_Source\PSoC4/BLE_HAL_PVT.c **** 
 281:.\Generated_Source\PSoC4/BLE_HAL_PVT.c **** 
 282:.\Generated_Source\PSoC4/BLE_HAL_PVT.c **** /*******************************************************************************
 283:.\Generated_Source\PSoC4/BLE_HAL_PVT.c **** * Function Name: CyBLE_Bless_RfRegRead
 284:.\Generated_Source\PSoC4/BLE_HAL_PVT.c **** ********************************************************************************
 285:.\Generated_Source\PSoC4/BLE_HAL_PVT.c **** *
 286:.\Generated_Source\PSoC4/BLE_HAL_PVT.c **** * Summary:
 287:.\Generated_Source\PSoC4/BLE_HAL_PVT.c **** *  This API reads the content of the BLESS RF register from the stack.
 288:.\Generated_Source\PSoC4/BLE_HAL_PVT.c **** *
 289:.\Generated_Source\PSoC4/BLE_HAL_PVT.c **** * Parameters:
 290:.\Generated_Source\PSoC4/BLE_HAL_PVT.c **** *  uint32 *blessAddr: the pointer to BLESS RF register address.
ARM GAS  C:\Users\Lonnie\AppData\Local\Temp\ccbLKr61.s 			page 15


 291:.\Generated_Source\PSoC4/BLE_HAL_PVT.c **** *  uint16 *regValue: the pointer to the buffer space to copy the read value.
 292:.\Generated_Source\PSoC4/BLE_HAL_PVT.c **** *
 293:.\Generated_Source\PSoC4/BLE_HAL_PVT.c **** * Return:
 294:.\Generated_Source\PSoC4/BLE_HAL_PVT.c **** *  None
 295:.\Generated_Source\PSoC4/BLE_HAL_PVT.c **** *
 296:.\Generated_Source\PSoC4/BLE_HAL_PVT.c **** *******************************************************************************/
 297:.\Generated_Source\PSoC4/BLE_HAL_PVT.c **** void CyBLE_Bless_RfRegRead (const reg32 *blessAddr, uint16 *regValue)
 298:.\Generated_Source\PSoC4/BLE_HAL_PVT.c **** {
 504              		.loc 1 298 0
 505              		.cfi_startproc
 506 0000 80B5     		push	{r7, lr}
 507              		.cfi_def_cfa_offset 8
 508              		.cfi_offset 7, -8
 509              		.cfi_offset 14, -4
 510 0002 82B0     		sub	sp, sp, #8
 511              		.cfi_def_cfa_offset 16
 512 0004 00AF     		add	r7, sp, #0
 513              		.cfi_def_cfa_register 7
 514 0006 7860     		str	r0, [r7, #4]
 515 0008 3960     		str	r1, [r7]
 299:.\Generated_Source\PSoC4/BLE_HAL_PVT.c ****     *regValue = (uint16)CY_GET_REG32(blessAddr);
 516              		.loc 1 299 0
 517 000a 7B68     		ldr	r3, [r7, #4]
 518 000c 1B68     		ldr	r3, [r3]
 519 000e 9AB2     		uxth	r2, r3
 520 0010 3B68     		ldr	r3, [r7]
 521 0012 1A80     		strh	r2, [r3]
 300:.\Generated_Source\PSoC4/BLE_HAL_PVT.c **** }
 522              		.loc 1 300 0
 523 0014 BD46     		mov	sp, r7
 524 0016 02B0     		add	sp, sp, #8
 525              		@ sp needed
 526 0018 80BD     		pop	{r7, pc}
 527              		.cfi_endproc
 528              	.LFE6:
 529              		.size	CyBLE_Bless_RfRegRead, .-CyBLE_Bless_RfRegRead
 530 001a C046     		.section	.text.CyBLE_Bless_RfRegWrite,"ax",%progbits
 531              		.align	2
 532              		.global	CyBLE_Bless_RfRegWrite
 533              		.code	16
 534              		.thumb_func
 535              		.type	CyBLE_Bless_RfRegWrite, %function
 536              	CyBLE_Bless_RfRegWrite:
 537              	.LFB7:
 301:.\Generated_Source\PSoC4/BLE_HAL_PVT.c **** 
 302:.\Generated_Source\PSoC4/BLE_HAL_PVT.c **** 
 303:.\Generated_Source\PSoC4/BLE_HAL_PVT.c **** /*******************************************************************************
 304:.\Generated_Source\PSoC4/BLE_HAL_PVT.c **** * Function Name: CyBLE_Bless_RfRegWrite
 305:.\Generated_Source\PSoC4/BLE_HAL_PVT.c **** ********************************************************************************
 306:.\Generated_Source\PSoC4/BLE_HAL_PVT.c **** *
 307:.\Generated_Source\PSoC4/BLE_HAL_PVT.c **** * Summary:
 308:.\Generated_Source\PSoC4/BLE_HAL_PVT.c **** *  This API writes to the BLESS RF register from the stack.
 309:.\Generated_Source\PSoC4/BLE_HAL_PVT.c **** *
 310:.\Generated_Source\PSoC4/BLE_HAL_PVT.c **** * Parameters:
 311:.\Generated_Source\PSoC4/BLE_HAL_PVT.c **** *  uint32 *blessAddr: the pointer to the BLESS RF address.
 312:.\Generated_Source\PSoC4/BLE_HAL_PVT.c **** *  uint16 regValue: the pointer to the value to be written to the BLESS RF reg.
 313:.\Generated_Source\PSoC4/BLE_HAL_PVT.c **** *
ARM GAS  C:\Users\Lonnie\AppData\Local\Temp\ccbLKr61.s 			page 16


 314:.\Generated_Source\PSoC4/BLE_HAL_PVT.c **** * Return:
 315:.\Generated_Source\PSoC4/BLE_HAL_PVT.c **** *  None
 316:.\Generated_Source\PSoC4/BLE_HAL_PVT.c **** *
 317:.\Generated_Source\PSoC4/BLE_HAL_PVT.c **** *******************************************************************************/
 318:.\Generated_Source\PSoC4/BLE_HAL_PVT.c **** void CyBLE_Bless_RfRegWrite (reg32 *blessAddr, const uint16 regValue)
 319:.\Generated_Source\PSoC4/BLE_HAL_PVT.c **** {
 538              		.loc 1 319 0
 539              		.cfi_startproc
 540 0000 80B5     		push	{r7, lr}
 541              		.cfi_def_cfa_offset 8
 542              		.cfi_offset 7, -8
 543              		.cfi_offset 14, -4
 544 0002 82B0     		sub	sp, sp, #8
 545              		.cfi_def_cfa_offset 16
 546 0004 00AF     		add	r7, sp, #0
 547              		.cfi_def_cfa_register 7
 548 0006 7860     		str	r0, [r7, #4]
 549 0008 0A1C     		mov	r2, r1
 550 000a BB1C     		add	r3, r7, #2
 551 000c 1A80     		strh	r2, [r3]
 320:.\Generated_Source\PSoC4/BLE_HAL_PVT.c ****      CY_SET_REG32(blessAddr, regValue);
 552              		.loc 1 320 0
 553 000e BB1C     		add	r3, r7, #2
 554 0010 1A88     		ldrh	r2, [r3]
 555 0012 7B68     		ldr	r3, [r7, #4]
 556 0014 1A60     		str	r2, [r3]
 321:.\Generated_Source\PSoC4/BLE_HAL_PVT.c **** }
 557              		.loc 1 321 0
 558 0016 BD46     		mov	sp, r7
 559 0018 02B0     		add	sp, sp, #8
 560              		@ sp needed
 561 001a 80BD     		pop	{r7, pc}
 562              		.cfi_endproc
 563              	.LFE7:
 564              		.size	CyBLE_Bless_RfRegWrite, .-CyBLE_Bless_RfRegWrite
 565              		.section	.text.CyBleHal_DelayUs,"ax",%progbits
 566              		.align	2
 567              		.global	CyBleHal_DelayUs
 568              		.code	16
 569              		.thumb_func
 570              		.type	CyBleHal_DelayUs, %function
 571              	CyBleHal_DelayUs:
 572              	.LFB8:
 322:.\Generated_Source\PSoC4/BLE_HAL_PVT.c **** 
 323:.\Generated_Source\PSoC4/BLE_HAL_PVT.c **** 
 324:.\Generated_Source\PSoC4/BLE_HAL_PVT.c **** void CyBleHal_DelayUs(uint16 delayVal)
 325:.\Generated_Source\PSoC4/BLE_HAL_PVT.c **** {
 573              		.loc 1 325 0
 574              		.cfi_startproc
 575 0000 80B5     		push	{r7, lr}
 576              		.cfi_def_cfa_offset 8
 577              		.cfi_offset 7, -8
 578              		.cfi_offset 14, -4
 579 0002 82B0     		sub	sp, sp, #8
 580              		.cfi_def_cfa_offset 16
 581 0004 00AF     		add	r7, sp, #0
 582              		.cfi_def_cfa_register 7
ARM GAS  C:\Users\Lonnie\AppData\Local\Temp\ccbLKr61.s 			page 17


 583 0006 021C     		mov	r2, r0
 584 0008 BB1D     		add	r3, r7, #6
 585 000a 1A80     		strh	r2, [r3]
 326:.\Generated_Source\PSoC4/BLE_HAL_PVT.c ****     CyDelayUs(delayVal);
 586              		.loc 1 326 0
 587 000c BB1D     		add	r3, r7, #6
 588 000e 1B88     		ldrh	r3, [r3]
 589 0010 181C     		mov	r0, r3
 590 0012 FFF7FEFF 		bl	CyDelayUs
 327:.\Generated_Source\PSoC4/BLE_HAL_PVT.c **** }
 591              		.loc 1 327 0
 592 0016 BD46     		mov	sp, r7
 593 0018 02B0     		add	sp, sp, #8
 594              		@ sp needed
 595 001a 80BD     		pop	{r7, pc}
 596              		.cfi_endproc
 597              	.LFE8:
 598              		.size	CyBleHal_DelayUs, .-CyBleHal_DelayUs
 599              		.section	.text.CyBleHal_DelayMs,"ax",%progbits
 600              		.align	2
 601              		.global	CyBleHal_DelayMs
 602              		.code	16
 603              		.thumb_func
 604              		.type	CyBleHal_DelayMs, %function
 605              	CyBleHal_DelayMs:
 606              	.LFB9:
 328:.\Generated_Source\PSoC4/BLE_HAL_PVT.c **** 
 329:.\Generated_Source\PSoC4/BLE_HAL_PVT.c **** void CyBleHal_DelayMs(uint32 delayVal)
 330:.\Generated_Source\PSoC4/BLE_HAL_PVT.c **** {
 607              		.loc 1 330 0
 608              		.cfi_startproc
 609 0000 80B5     		push	{r7, lr}
 610              		.cfi_def_cfa_offset 8
 611              		.cfi_offset 7, -8
 612              		.cfi_offset 14, -4
 613 0002 82B0     		sub	sp, sp, #8
 614              		.cfi_def_cfa_offset 16
 615 0004 00AF     		add	r7, sp, #0
 616              		.cfi_def_cfa_register 7
 617 0006 7860     		str	r0, [r7, #4]
 331:.\Generated_Source\PSoC4/BLE_HAL_PVT.c ****     CyDelay(delayVal);
 618              		.loc 1 331 0
 619 0008 7B68     		ldr	r3, [r7, #4]
 620 000a 181C     		mov	r0, r3
 621 000c FFF7FEFF 		bl	CyDelay
 332:.\Generated_Source\PSoC4/BLE_HAL_PVT.c **** }
 622              		.loc 1 332 0
 623 0010 BD46     		mov	sp, r7
 624 0012 02B0     		add	sp, sp, #8
 625              		@ sp needed
 626 0014 80BD     		pop	{r7, pc}
 627              		.cfi_endproc
 628              	.LFE9:
 629              		.size	CyBleHal_DelayMs, .-CyBleHal_DelayMs
 630 0016 C046     		.section	.text.CyBleHal_EnableGlobalInterrupts,"ax",%progbits
 631              		.align	2
 632              		.global	CyBleHal_EnableGlobalInterrupts
ARM GAS  C:\Users\Lonnie\AppData\Local\Temp\ccbLKr61.s 			page 18


 633              		.code	16
 634              		.thumb_func
 635              		.type	CyBleHal_EnableGlobalInterrupts, %function
 636              	CyBleHal_EnableGlobalInterrupts:
 637              	.LFB10:
 333:.\Generated_Source\PSoC4/BLE_HAL_PVT.c **** 
 334:.\Generated_Source\PSoC4/BLE_HAL_PVT.c **** void CyBleHal_EnableGlobalInterrupts(void)
 335:.\Generated_Source\PSoC4/BLE_HAL_PVT.c **** {
 638              		.loc 1 335 0
 639              		.cfi_startproc
 640 0000 80B5     		push	{r7, lr}
 641              		.cfi_def_cfa_offset 8
 642              		.cfi_offset 7, -8
 643              		.cfi_offset 14, -4
 644 0002 00AF     		add	r7, sp, #0
 645              		.cfi_def_cfa_register 7
 336:.\Generated_Source\PSoC4/BLE_HAL_PVT.c ****     BLE_bless_isr_Enable();
 646              		.loc 1 336 0
 647 0004 FFF7FEFF 		bl	BLE_bless_isr_Enable
 337:.\Generated_Source\PSoC4/BLE_HAL_PVT.c **** }
 648              		.loc 1 337 0
 649 0008 BD46     		mov	sp, r7
 650              		@ sp needed
 651 000a 80BD     		pop	{r7, pc}
 652              		.cfi_endproc
 653              	.LFE10:
 654              		.size	CyBleHal_EnableGlobalInterrupts, .-CyBleHal_EnableGlobalInterrupts
 655              		.section	.text.CyBleHal_DisableGlobalInterrupts,"ax",%progbits
 656              		.align	2
 657              		.global	CyBleHal_DisableGlobalInterrupts
 658              		.code	16
 659              		.thumb_func
 660              		.type	CyBleHal_DisableGlobalInterrupts, %function
 661              	CyBleHal_DisableGlobalInterrupts:
 662              	.LFB11:
 338:.\Generated_Source\PSoC4/BLE_HAL_PVT.c **** 
 339:.\Generated_Source\PSoC4/BLE_HAL_PVT.c **** void CyBleHal_DisableGlobalInterrupts(void)
 340:.\Generated_Source\PSoC4/BLE_HAL_PVT.c **** {
 663              		.loc 1 340 0
 664              		.cfi_startproc
 665 0000 80B5     		push	{r7, lr}
 666              		.cfi_def_cfa_offset 8
 667              		.cfi_offset 7, -8
 668              		.cfi_offset 14, -4
 669 0002 00AF     		add	r7, sp, #0
 670              		.cfi_def_cfa_register 7
 341:.\Generated_Source\PSoC4/BLE_HAL_PVT.c ****     BLE_bless_isr_Disable();
 671              		.loc 1 341 0
 672 0004 FFF7FEFF 		bl	BLE_bless_isr_Disable
 342:.\Generated_Source\PSoC4/BLE_HAL_PVT.c **** }
 673              		.loc 1 342 0
 674 0008 BD46     		mov	sp, r7
 675              		@ sp needed
 676 000a 80BD     		pop	{r7, pc}
 677              		.cfi_endproc
 678              	.LFE11:
 679              		.size	CyBleHal_DisableGlobalInterrupts, .-CyBleHal_DisableGlobalInterrupts
ARM GAS  C:\Users\Lonnie\AppData\Local\Temp\ccbLKr61.s 			page 19


 680              		.section	.text.CyBle_HalInit,"ax",%progbits
 681              		.align	2
 682              		.global	CyBle_HalInit
 683              		.code	16
 684              		.thumb_func
 685              		.type	CyBle_HalInit, %function
 686              	CyBle_HalInit:
 687              	.LFB12:
 343:.\Generated_Source\PSoC4/BLE_HAL_PVT.c **** 
 344:.\Generated_Source\PSoC4/BLE_HAL_PVT.c **** void CyBle_HalInit(void)
 345:.\Generated_Source\PSoC4/BLE_HAL_PVT.c **** {
 688              		.loc 1 345 0
 689              		.cfi_startproc
 690 0000 80B5     		push	{r7, lr}
 691              		.cfi_def_cfa_offset 8
 692              		.cfi_offset 7, -8
 693              		.cfi_offset 14, -4
 694 0002 00AF     		add	r7, sp, #0
 695              		.cfi_def_cfa_register 7
 346:.\Generated_Source\PSoC4/BLE_HAL_PVT.c ****     /* For all we know the interrupt is active. */
 347:.\Generated_Source\PSoC4/BLE_HAL_PVT.c ****     BLE_bless_isr_Disable();
 696              		.loc 1 347 0
 697 0004 FFF7FEFF 		bl	BLE_bless_isr_Disable
 348:.\Generated_Source\PSoC4/BLE_HAL_PVT.c **** 
 349:.\Generated_Source\PSoC4/BLE_HAL_PVT.c ****     /* Set the ISR to point to the BLE_bless_isr Interrupt. */
 350:.\Generated_Source\PSoC4/BLE_HAL_PVT.c ****     BLE_bless_isr_SetVector(&CyBLE_Bless_Interrupt);
 698              		.loc 1 350 0
 699 0008 044B     		ldr	r3, .L33
 700 000a 181C     		mov	r0, r3
 701 000c FFF7FEFF 		bl	BLE_bless_isr_SetVector
 351:.\Generated_Source\PSoC4/BLE_HAL_PVT.c **** 
 352:.\Generated_Source\PSoC4/BLE_HAL_PVT.c ****     /* Set the priority. */
 353:.\Generated_Source\PSoC4/BLE_HAL_PVT.c ****     BLE_bless_isr_SetPriority((uint8)BLE_bless_isr_INTC_PRIOR_NUMBER);
 702              		.loc 1 353 0
 703 0010 0320     		mov	r0, #3
 704 0012 FFF7FEFF 		bl	BLE_bless_isr_SetPriority
 354:.\Generated_Source\PSoC4/BLE_HAL_PVT.c **** }
 705              		.loc 1 354 0
 706 0016 BD46     		mov	sp, r7
 707              		@ sp needed
 708 0018 80BD     		pop	{r7, pc}
 709              	.L34:
 710 001a C046     		.align	2
 711              	.L33:
 712 001c 00000000 		.word	CyBLE_Bless_Interrupt
 713              		.cfi_endproc
 714              	.LFE12:
 715              		.size	CyBle_HalInit, .-CyBle_HalInit
 716              		.section	.text.CYBLE_BlessStart,"ax",%progbits
 717              		.align	2
 718              		.global	CYBLE_BlessStart
 719              		.code	16
 720              		.thumb_func
 721              		.type	CYBLE_BlessStart, %function
 722              	CYBLE_BlessStart:
 723              	.LFB13:
 355:.\Generated_Source\PSoC4/BLE_HAL_PVT.c **** 
ARM GAS  C:\Users\Lonnie\AppData\Local\Temp\ccbLKr61.s 			page 20


 356:.\Generated_Source\PSoC4/BLE_HAL_PVT.c **** /* Start Interrupt Controller API. */
 357:.\Generated_Source\PSoC4/BLE_HAL_PVT.c **** void CYBLE_BlessStart(void)
 358:.\Generated_Source\PSoC4/BLE_HAL_PVT.c **** {
 724              		.loc 1 358 0
 725              		.cfi_startproc
 726 0000 80B5     		push	{r7, lr}
 727              		.cfi_def_cfa_offset 8
 728              		.cfi_offset 7, -8
 729              		.cfi_offset 14, -4
 730 0002 00AF     		add	r7, sp, #0
 731              		.cfi_def_cfa_register 7
 359:.\Generated_Source\PSoC4/BLE_HAL_PVT.c ****     BLE_bless_isr_StartEx(&CyBLE_Bless_Interrupt);
 732              		.loc 1 359 0
 733 0004 024B     		ldr	r3, .L36
 734 0006 181C     		mov	r0, r3
 735 0008 FFF7FEFF 		bl	BLE_bless_isr_StartEx
 360:.\Generated_Source\PSoC4/BLE_HAL_PVT.c **** }
 736              		.loc 1 360 0
 737 000c BD46     		mov	sp, r7
 738              		@ sp needed
 739 000e 80BD     		pop	{r7, pc}
 740              	.L37:
 741              		.align	2
 742              	.L36:
 743 0010 00000000 		.word	CyBLE_Bless_Interrupt
 744              		.cfi_endproc
 745              	.LFE13:
 746              		.size	CYBLE_BlessStart, .-CYBLE_BlessStart
 747              		.text
 748              	.Letext0:
 749              		.file 2 ".\\Generated_Source\\PSoC4\\cytypes.h"