ARM GAS  C:\Users\Lonnie\AppData\Local\Temp\ccJOwa1B.s 			page 1


   1              		.cpu cortex-m0
   2              		.fpu softvfp
   3              		.eabi_attribute 20, 1
   4              		.eabi_attribute 21, 1
   5              		.eabi_attribute 23, 3
   6              		.eabi_attribute 24, 1
   7              		.eabi_attribute 25, 1
   8              		.eabi_attribute 26, 1
   9              		.eabi_attribute 30, 6
  10              		.eabi_attribute 34, 0
  11              		.eabi_attribute 18, 4
  12              		.code	16
  13              		.file	"BLE_eventHandler.c"
  14              		.text
  15              	.Ltext0:
  16              		.cfi_sections	.debug_frame
  17              		.comm	cyBle_eventHandlerFlag,1,1
  18              		.comm	cyBle_connHandle,2,4
  19              		.comm	cyBle_busStatus,1,1
  20              		.comm	cyBle_advertisingIntervalType,1,1
  21              		.global	cyBle_authInfo
  22              		.data
  23              		.align	2
  24              		.type	cyBle_authInfo, %object
  25              		.size	cyBle_authInfo, 4
  26              	cyBle_authInfo:
  27 0000 10       		.byte	16
  28 0001 01       		.byte	1
  29 0002 10       		.byte	16
  30 0003 00       		.byte	0
  31              		.section	.text.CyBle_WriteReqHandler,"ax",%progbits
  32              		.align	2
  33              		.code	16
  34              		.thumb_func
  35              		.type	CyBle_WriteReqHandler, %function
  36              	CyBle_WriteReqHandler:
  37              	.LFB2:
  38              		.file 1 ".\\Generated_Source\\PSoC4\\BLE_eventHandler.c"
   1:.\Generated_Source\PSoC4/BLE_eventHandler.c **** /*******************************************************************************
   2:.\Generated_Source\PSoC4/BLE_eventHandler.c **** File Name: CYBLE_eventHandler.c
   3:.\Generated_Source\PSoC4/BLE_eventHandler.c **** Version 1.10
   4:.\Generated_Source\PSoC4/BLE_eventHandler.c **** 
   5:.\Generated_Source\PSoC4/BLE_eventHandler.c **** Description:
   6:.\Generated_Source\PSoC4/BLE_eventHandler.c ****  This file contains the source code for the Event Handler State Machine
   7:.\Generated_Source\PSoC4/BLE_eventHandler.c ****  of the BLE Component.
   8:.\Generated_Source\PSoC4/BLE_eventHandler.c **** 
   9:.\Generated_Source\PSoC4/BLE_eventHandler.c **** ********************************************************************************
  10:.\Generated_Source\PSoC4/BLE_eventHandler.c **** Copyright 2014, Cypress Semiconductor Corporation.  All rights reserved.
  11:.\Generated_Source\PSoC4/BLE_eventHandler.c **** You may use this file only in accordance with the license, terms, conditions,
  12:.\Generated_Source\PSoC4/BLE_eventHandler.c **** disclaimers, and limitations in the end user license agreement accompanying
  13:.\Generated_Source\PSoC4/BLE_eventHandler.c **** the software package with which this file was provided.
  14:.\Generated_Source\PSoC4/BLE_eventHandler.c **** *******************************************************************************/
  15:.\Generated_Source\PSoC4/BLE_eventHandler.c **** 
  16:.\Generated_Source\PSoC4/BLE_eventHandler.c **** #include "BLE_eventHandler.h"
  17:.\Generated_Source\PSoC4/BLE_eventHandler.c **** 
  18:.\Generated_Source\PSoC4/BLE_eventHandler.c **** 
  19:.\Generated_Source\PSoC4/BLE_eventHandler.c **** /***************************************
ARM GAS  C:\Users\Lonnie\AppData\Local\Temp\ccJOwa1B.s 			page 2


  20:.\Generated_Source\PSoC4/BLE_eventHandler.c **** ##Private Function Prototypes
  21:.\Generated_Source\PSoC4/BLE_eventHandler.c **** ***************************************/
  22:.\Generated_Source\PSoC4/BLE_eventHandler.c **** 
  23:.\Generated_Source\PSoC4/BLE_eventHandler.c **** #if (CYBLE_GATT_ROLE_SERVER || CYBLE_GATT_ROLE_CLIENT)
  24:.\Generated_Source\PSoC4/BLE_eventHandler.c **** 
  25:.\Generated_Source\PSoC4/BLE_eventHandler.c **** static uint8 CyBle_IsDeviceAddressValid(const CYBLE_GAP_BD_ADDR_T *sflashDeviceAddress);
  26:.\Generated_Source\PSoC4/BLE_eventHandler.c **** 
  27:.\Generated_Source\PSoC4/BLE_eventHandler.c **** #endif /* (CYBLE_GATT_ROLE_SERVER || CYBLE_GATT_ROLE_CLIENT) */
  28:.\Generated_Source\PSoC4/BLE_eventHandler.c **** 
  29:.\Generated_Source\PSoC4/BLE_eventHandler.c **** static void CyBle_GattDisconnectEventHandler(void);
  30:.\Generated_Source\PSoC4/BLE_eventHandler.c **** static void CyBle_TimeOutEventHandler(const CYBLE_TO_REASON_CODE_T *eventParam);
  31:.\Generated_Source\PSoC4/BLE_eventHandler.c **** static void CyBle_GattConnectReqHandler(void);
  32:.\Generated_Source\PSoC4/BLE_eventHandler.c **** static void CyBle_L2Cap_ConnParamUpdateRspEventHandler(uint16 response);
  33:.\Generated_Source\PSoC4/BLE_eventHandler.c **** static void CyBle_GapConnUpdateCompleteEventHandler(const CYBLE_GAP_CONN_PARAM_UPDATED_IN_CONTROLLE
  34:.\Generated_Source\PSoC4/BLE_eventHandler.c **** 
  35:.\Generated_Source\PSoC4/BLE_eventHandler.c **** 
  36:.\Generated_Source\PSoC4/BLE_eventHandler.c **** #if (CYBLE_GATT_ROLE_SERVER)
  37:.\Generated_Source\PSoC4/BLE_eventHandler.c **** 
  38:.\Generated_Source\PSoC4/BLE_eventHandler.c **** static void CyBle_WriteReqHandler(CYBLE_GATTS_WRITE_REQ_PARAM_T *eventParam);
  39:.\Generated_Source\PSoC4/BLE_eventHandler.c **** static void CyBle_ValueConfirmation(const CYBLE_CONN_HANDLE_T *eventParam);
  40:.\Generated_Source\PSoC4/BLE_eventHandler.c **** 
  41:.\Generated_Source\PSoC4/BLE_eventHandler.c **** #endif /* (CYBLE_GATT_ROLE_SERVER) */
  42:.\Generated_Source\PSoC4/BLE_eventHandler.c **** 
  43:.\Generated_Source\PSoC4/BLE_eventHandler.c **** #if (CYBLE_GATT_ROLE_CLIENT)
  44:.\Generated_Source\PSoC4/BLE_eventHandler.c **** 
  45:.\Generated_Source\PSoC4/BLE_eventHandler.c **** static void CyBle_GapcDiscoverCharacteristicsEventHandler(CYBLE_DISC_CHAR_INFO_T *discCharInfo);
  46:.\Generated_Source\PSoC4/BLE_eventHandler.c **** static CYBLE_GATT_ATTR_HANDLE_RANGE_T CyBle_GetCharRange(void);
  47:.\Generated_Source\PSoC4/BLE_eventHandler.c **** static void CyBle_GattcWriteResponseEventHandler(const CYBLE_CONN_HANDLE_T *eventParam);
  48:.\Generated_Source\PSoC4/BLE_eventHandler.c **** 
  49:.\Generated_Source\PSoC4/BLE_eventHandler.c **** #endif /* (CYBLE_GATT_ROLE_CLIENT) */
  50:.\Generated_Source\PSoC4/BLE_eventHandler.c **** 
  51:.\Generated_Source\PSoC4/BLE_eventHandler.c **** 
  52:.\Generated_Source\PSoC4/BLE_eventHandler.c **** /***************************************
  53:.\Generated_Source\PSoC4/BLE_eventHandler.c **** ##Global Variables
  54:.\Generated_Source\PSoC4/BLE_eventHandler.c **** ***************************************/
  55:.\Generated_Source\PSoC4/BLE_eventHandler.c **** 
  56:.\Generated_Source\PSoC4/BLE_eventHandler.c **** volatile uint8 cyBle_eventHandlerFlag;
  57:.\Generated_Source\PSoC4/BLE_eventHandler.c **** CYBLE_CONN_HANDLE_T cyBle_connHandle;
  58:.\Generated_Source\PSoC4/BLE_eventHandler.c **** volatile uint8 cyBle_busStatus;
  59:.\Generated_Source\PSoC4/BLE_eventHandler.c **** 
  60:.\Generated_Source\PSoC4/BLE_eventHandler.c **** #if(CYBLE_GAP_ROLE_PERIPHERAL || CYBLE_GAP_ROLE_BROADCASTER) 
  61:.\Generated_Source\PSoC4/BLE_eventHandler.c ****     uint8 cyBle_advertisingIntervalType;
  62:.\Generated_Source\PSoC4/BLE_eventHandler.c **** #endif /* (CYBLE_GAP_ROLE_PERIPHERAL || CYBLE_GAP_ROLE_BROADCASTER) */
  63:.\Generated_Source\PSoC4/BLE_eventHandler.c **** 
  64:.\Generated_Source\PSoC4/BLE_eventHandler.c **** #if(CYBLE_GAP_ROLE_CENTRAL || CYBLE_GAP_ROLE_OBSERVER) 
  65:.\Generated_Source\PSoC4/BLE_eventHandler.c ****     uint8 cyBle_scanningIntervalType;
  66:.\Generated_Source\PSoC4/BLE_eventHandler.c **** #endif /* CYBLE_GAP_ROLE_CENTRAL || CYBLE_GAP_ROLE_OBSERVER */
  67:.\Generated_Source\PSoC4/BLE_eventHandler.c **** 
  68:.\Generated_Source\PSoC4/BLE_eventHandler.c **** #if(CYBLE_GATT_ROLE_CLIENT)
  69:.\Generated_Source\PSoC4/BLE_eventHandler.c **** uint8 cyBle_disCount; /* Counter for discovery procedures */
  70:.\Generated_Source\PSoC4/BLE_eventHandler.c **** static CYBLE_GATT_DB_ATTR_HANDLE_T cyBle_charEndHandle;
  71:.\Generated_Source\PSoC4/BLE_eventHandler.c **** #ifdef CYBLE_HIDS_CLIENT
  72:.\Generated_Source\PSoC4/BLE_eventHandler.c ****     static uint8 disServiceIndex;      /* To discovery descriptors for multiple HID service instanc
  73:.\Generated_Source\PSoC4/BLE_eventHandler.c **** #endif /* defined(CYBLE_HIDS_CLIENT) */
  74:.\Generated_Source\PSoC4/BLE_eventHandler.c **** 
  75:.\Generated_Source\PSoC4/BLE_eventHandler.c **** CYBLE_DISC_SRVC_INFO_T cyBle_serverInfo[CYBLE_SRVI_COUNT] = /*4*/
  76:.\Generated_Source\PSoC4/BLE_eventHandler.c **** {
ARM GAS  C:\Users\Lonnie\AppData\Local\Temp\ccJOwa1B.s 			page 3


  77:.\Generated_Source\PSoC4/BLE_eventHandler.c ****     {{CYBLE_GATT_INVALID_ATTR_HANDLE_VALUE, CYBLE_GATT_INVALID_ATTR_HANDLE_VALUE}, CYBLE_UUID_GAP_S
  78:.\Generated_Source\PSoC4/BLE_eventHandler.c ****     {{CYBLE_GATT_INVALID_ATTR_HANDLE_VALUE, CYBLE_GATT_INVALID_ATTR_HANDLE_VALUE}, CYBLE_UUID_GATT_
  79:.\Generated_Source\PSoC4/BLE_eventHandler.c **** #ifdef CYBLE_ANS_CLIENT
  80:.\Generated_Source\PSoC4/BLE_eventHandler.c ****     {{CYBLE_GATT_INVALID_ATTR_HANDLE_VALUE, CYBLE_GATT_INVALID_ATTR_HANDLE_VALUE}, CYBLE_UUID_ALERT
  81:.\Generated_Source\PSoC4/BLE_eventHandler.c **** #endif /* CYBLE_ANS_CLIENT */
  82:.\Generated_Source\PSoC4/BLE_eventHandler.c **** #ifdef CYBLE_BAS_CLIENT
  83:.\Generated_Source\PSoC4/BLE_eventHandler.c ****     {{CYBLE_GATT_INVALID_ATTR_HANDLE_VALUE, CYBLE_GATT_INVALID_ATTR_HANDLE_VALUE}, CYBLE_UUID_BAS_S
  84:.\Generated_Source\PSoC4/BLE_eventHandler.c ****     #if(CYBLE_BASC_SERVICE_COUNT > 1u) /* Generate it by GUI */
  85:.\Generated_Source\PSoC4/BLE_eventHandler.c ****         
  86:.\Generated_Source\PSoC4/BLE_eventHandler.c ****     #endif /* CYBLE_BASC_SERVICE_COUNT > 1u */
  87:.\Generated_Source\PSoC4/BLE_eventHandler.c **** #endif /* CYBLE_BAS_CLIENT */
  88:.\Generated_Source\PSoC4/BLE_eventHandler.c **** #ifdef CYBLE_BLS_CLIENT
  89:.\Generated_Source\PSoC4/BLE_eventHandler.c ****     {{CYBLE_GATT_INVALID_ATTR_HANDLE_VALUE, CYBLE_GATT_INVALID_ATTR_HANDLE_VALUE}, CYBLE_UUID_BLOOD
  90:.\Generated_Source\PSoC4/BLE_eventHandler.c **** #endif /* CYBLE_BLS_CLIENT */
  91:.\Generated_Source\PSoC4/BLE_eventHandler.c **** #ifdef CYBLE_CPS_CLIENT
  92:.\Generated_Source\PSoC4/BLE_eventHandler.c ****     {{CYBLE_GATT_INVALID_ATTR_HANDLE_VALUE, CYBLE_GATT_INVALID_ATTR_HANDLE_VALUE}, CYBLE_UUID_CPS_S
  93:.\Generated_Source\PSoC4/BLE_eventHandler.c **** #endif /* CYBLE_CPS_CLIENT */
  94:.\Generated_Source\PSoC4/BLE_eventHandler.c **** #ifdef CYBLE_CSCS_CLIENT
  95:.\Generated_Source\PSoC4/BLE_eventHandler.c ****     {{CYBLE_GATT_INVALID_ATTR_HANDLE_VALUE, CYBLE_GATT_INVALID_ATTR_HANDLE_VALUE}, CYBLE_UUID_CYCLI
  96:.\Generated_Source\PSoC4/BLE_eventHandler.c **** #endif /* CYBLE_CSCS_CLIENT */
  97:.\Generated_Source\PSoC4/BLE_eventHandler.c **** #ifdef CYBLE_CTS_CLIENT
  98:.\Generated_Source\PSoC4/BLE_eventHandler.c ****     {{CYBLE_GATT_INVALID_ATTR_HANDLE_VALUE, CYBLE_GATT_INVALID_ATTR_HANDLE_VALUE}, CYBLE_UUID_CURRE
  99:.\Generated_Source\PSoC4/BLE_eventHandler.c **** #endif /* CYBLE_CTS_CLIENT */
 100:.\Generated_Source\PSoC4/BLE_eventHandler.c **** #ifdef CYBLE_DIS_CLIENT
 101:.\Generated_Source\PSoC4/BLE_eventHandler.c ****     {{CYBLE_GATT_INVALID_ATTR_HANDLE_VALUE, CYBLE_GATT_INVALID_ATTR_HANDLE_VALUE}, CYBLE_UUID_DEVIC
 102:.\Generated_Source\PSoC4/BLE_eventHandler.c **** #endif /* CYBLE_DIS_CLIENT */
 103:.\Generated_Source\PSoC4/BLE_eventHandler.c **** #ifdef CYBLE_GLS_CLIENT
 104:.\Generated_Source\PSoC4/BLE_eventHandler.c ****     {{CYBLE_GATT_INVALID_ATTR_HANDLE_VALUE, CYBLE_GATT_INVALID_ATTR_HANDLE_VALUE}, CYBLE_UUID_GLUCO
 105:.\Generated_Source\PSoC4/BLE_eventHandler.c **** #endif /* CYBLE_GLS_CLIENT */
 106:.\Generated_Source\PSoC4/BLE_eventHandler.c **** #ifdef CYBLE_HIDS_CLIENT
 107:.\Generated_Source\PSoC4/BLE_eventHandler.c ****     {{CYBLE_GATT_INVALID_ATTR_HANDLE_VALUE, CYBLE_GATT_INVALID_ATTR_HANDLE_VALUE}, CYBLE_UUID_HIDS_
 108:.\Generated_Source\PSoC4/BLE_eventHandler.c ****     #if(CYBLE_HIDSC_SERVICE_COUNT > 1u) /* Generate it by GUI */
 109:.\Generated_Source\PSoC4/BLE_eventHandler.c ****         
 110:.\Generated_Source\PSoC4/BLE_eventHandler.c ****     #endif /* CYBLE_HIDSC_SERVICE_COUNT > 1u */
 111:.\Generated_Source\PSoC4/BLE_eventHandler.c **** #endif /* CYBLE_HIDS_CLIENT */
 112:.\Generated_Source\PSoC4/BLE_eventHandler.c **** #ifdef CYBLE_HRS_CLIENT
 113:.\Generated_Source\PSoC4/BLE_eventHandler.c ****     {{CYBLE_GATT_INVALID_ATTR_HANDLE_VALUE, CYBLE_GATT_INVALID_ATTR_HANDLE_VALUE}, CYBLE_UUID_HEART
 114:.\Generated_Source\PSoC4/BLE_eventHandler.c **** #endif /* CYBLE_HRS_CLIENT */
 115:.\Generated_Source\PSoC4/BLE_eventHandler.c **** #ifdef CYBLE_HTS_CLIENT
 116:.\Generated_Source\PSoC4/BLE_eventHandler.c ****     {{CYBLE_GATT_INVALID_ATTR_HANDLE_VALUE, CYBLE_GATT_INVALID_ATTR_HANDLE_VALUE}, CYBLE_UUID_HEALT
 117:.\Generated_Source\PSoC4/BLE_eventHandler.c **** #endif /* CYBLE_HTS_CLIENT */
 118:.\Generated_Source\PSoC4/BLE_eventHandler.c **** #ifdef CYBLE_IAS_CLIENT
 119:.\Generated_Source\PSoC4/BLE_eventHandler.c ****     {{CYBLE_GATT_INVALID_ATTR_HANDLE_VALUE, CYBLE_GATT_INVALID_ATTR_HANDLE_VALUE}, CYBLE_UUID_IMMED
 120:.\Generated_Source\PSoC4/BLE_eventHandler.c **** #endif /* CYBLE_IAS_CLIENT */
 121:.\Generated_Source\PSoC4/BLE_eventHandler.c **** #ifdef CYBLE_LLS_CLIENT
 122:.\Generated_Source\PSoC4/BLE_eventHandler.c ****     {{CYBLE_GATT_INVALID_ATTR_HANDLE_VALUE, CYBLE_GATT_INVALID_ATTR_HANDLE_VALUE}, CYBLE_UUID_LINK_
 123:.\Generated_Source\PSoC4/BLE_eventHandler.c **** #endif /* CYBLE_LLS_CLIENT */
 124:.\Generated_Source\PSoC4/BLE_eventHandler.c **** #ifdef CYBLE_LNS_CLIENT
 125:.\Generated_Source\PSoC4/BLE_eventHandler.c ****     {{CYBLE_GATT_INVALID_ATTR_HANDLE_VALUE, CYBLE_GATT_INVALID_ATTR_HANDLE_VALUE}, CYBLE_UUID_LOCAT
 126:.\Generated_Source\PSoC4/BLE_eventHandler.c **** #endif /* CYBLE_LNS_CLIENT */
 127:.\Generated_Source\PSoC4/BLE_eventHandler.c **** #ifdef CYBLE_NDCS_CLIENT
 128:.\Generated_Source\PSoC4/BLE_eventHandler.c ****     {{CYBLE_GATT_INVALID_ATTR_HANDLE_VALUE, CYBLE_GATT_INVALID_ATTR_HANDLE_VALUE}, CYBLE_UUID_NEXT_
 129:.\Generated_Source\PSoC4/BLE_eventHandler.c **** #endif /* CYBLE_NDCS_CLIENT */
 130:.\Generated_Source\PSoC4/BLE_eventHandler.c **** #ifdef CYBLE_PASS_CLIENT
 131:.\Generated_Source\PSoC4/BLE_eventHandler.c ****     {{CYBLE_GATT_INVALID_ATTR_HANDLE_VALUE, CYBLE_GATT_INVALID_ATTR_HANDLE_VALUE}, CYBLE_UUID_PHONE
 132:.\Generated_Source\PSoC4/BLE_eventHandler.c **** #endif /* CYBLE_PASS_CLIENT */
 133:.\Generated_Source\PSoC4/BLE_eventHandler.c **** #ifdef CYBLE_RSCS_CLIENT
ARM GAS  C:\Users\Lonnie\AppData\Local\Temp\ccJOwa1B.s 			page 4


 134:.\Generated_Source\PSoC4/BLE_eventHandler.c ****     {{CYBLE_GATT_INVALID_ATTR_HANDLE_VALUE, CYBLE_GATT_INVALID_ATTR_HANDLE_VALUE}, CYBLE_UUID_RUNNI
 135:.\Generated_Source\PSoC4/BLE_eventHandler.c **** #endif /* CYBLE_RSCS_CLIENT */
 136:.\Generated_Source\PSoC4/BLE_eventHandler.c **** #ifdef CYBLE_RTUS_CLIENT
 137:.\Generated_Source\PSoC4/BLE_eventHandler.c ****     {{CYBLE_GATT_INVALID_ATTR_HANDLE_VALUE, CYBLE_GATT_INVALID_ATTR_HANDLE_VALUE}, CYBLE_UUID_REF_T
 138:.\Generated_Source\PSoC4/BLE_eventHandler.c **** #endif /* CYBLE_RTUS_CLIENT */
 139:.\Generated_Source\PSoC4/BLE_eventHandler.c **** #ifdef CYBLE_SCPS_CLIENT
 140:.\Generated_Source\PSoC4/BLE_eventHandler.c ****     {{CYBLE_GATT_INVALID_ATTR_HANDLE_VALUE, CYBLE_GATT_INVALID_ATTR_HANDLE_VALUE}, CYBLE_UUID_SCAN_
 141:.\Generated_Source\PSoC4/BLE_eventHandler.c **** #endif /* CYBLE_SCPS_CLIENT */
 142:.\Generated_Source\PSoC4/BLE_eventHandler.c **** #ifdef CYBLE_TPS_CLIENT
 143:.\Generated_Source\PSoC4/BLE_eventHandler.c ****     {{CYBLE_GATT_INVALID_ATTR_HANDLE_VALUE, CYBLE_GATT_INVALID_ATTR_HANDLE_VALUE}, CYBLE_UUID_TX_PO
 144:.\Generated_Source\PSoC4/BLE_eventHandler.c **** #endif /* CYBLE_TPS_CLIENT */
 145:.\Generated_Source\PSoC4/BLE_eventHandler.c **** 
 146:.\Generated_Source\PSoC4/BLE_eventHandler.c **** };
 147:.\Generated_Source\PSoC4/BLE_eventHandler.c **** 
 148:.\Generated_Source\PSoC4/BLE_eventHandler.c **** CYBLE_GAPC_T cyBle_gapc;
 149:.\Generated_Source\PSoC4/BLE_eventHandler.c **** 
 150:.\Generated_Source\PSoC4/BLE_eventHandler.c **** #endif /* CYBLE_GATT_ROLE_CLIENT */
 151:.\Generated_Source\PSoC4/BLE_eventHandler.c **** 
 152:.\Generated_Source\PSoC4/BLE_eventHandler.c **** /* Default device security */
 153:.\Generated_Source\PSoC4/BLE_eventHandler.c **** CYBLE_GAP_AUTH_INFO_T cyBle_authInfo =
 154:.\Generated_Source\PSoC4/BLE_eventHandler.c **** {
 155:.\Generated_Source\PSoC4/BLE_eventHandler.c ****     (CYBLE_GAP_SEC_MODE_1 | CYBLE_GAP_SEC_LEVEL_1 ), /* uint8 security */
 156:.\Generated_Source\PSoC4/BLE_eventHandler.c ****     CYBLE_GAP_BONDING, /* uint8 bonding */
 157:.\Generated_Source\PSoC4/BLE_eventHandler.c ****     0x10u,      /* uint8 ekeySize */
 158:.\Generated_Source\PSoC4/BLE_eventHandler.c ****     CYBLE_GAP_AUTH_ERROR_NONE, /* CYBLE_AUTH_FAILED_REASON_T authErr */
 159:.\Generated_Source\PSoC4/BLE_eventHandler.c **** };
 160:.\Generated_Source\PSoC4/BLE_eventHandler.c **** 
 161:.\Generated_Source\PSoC4/BLE_eventHandler.c **** #if(CYBLE_GATT_ROLE_SERVER)
 162:.\Generated_Source\PSoC4/BLE_eventHandler.c **** 
 163:.\Generated_Source\PSoC4/BLE_eventHandler.c **** 
 164:.\Generated_Source\PSoC4/BLE_eventHandler.c **** /******************************************************************************    
 165:.\Generated_Source\PSoC4/BLE_eventHandler.c **** ##Function Name: CyBle_WriteReqHandler
 166:.\Generated_Source\PSoC4/BLE_eventHandler.c **** *******************************************************************************
 167:.\Generated_Source\PSoC4/BLE_eventHandler.c **** 
 168:.\Generated_Source\PSoC4/BLE_eventHandler.c **** Summary:
 169:.\Generated_Source\PSoC4/BLE_eventHandler.c ****  Handles the Write Request event from BLE stack.
 170:.\Generated_Source\PSoC4/BLE_eventHandler.c **** 
 171:.\Generated_Source\PSoC4/BLE_eventHandler.c **** Parameters:
 172:.\Generated_Source\PSoC4/BLE_eventHandler.c ****  CYBLE_GATTS_WRITE_REQ_PARAM_T * eventParam - event parameter
 173:.\Generated_Source\PSoC4/BLE_eventHandler.c **** 
 174:.\Generated_Source\PSoC4/BLE_eventHandler.c **** Return:
 175:.\Generated_Source\PSoC4/BLE_eventHandler.c ****  None
 176:.\Generated_Source\PSoC4/BLE_eventHandler.c **** 
 177:.\Generated_Source\PSoC4/BLE_eventHandler.c **** ******************************************************************************/
 178:.\Generated_Source\PSoC4/BLE_eventHandler.c **** static void CyBle_WriteReqHandler(CYBLE_GATTS_WRITE_REQ_PARAM_T *eventParam)
 179:.\Generated_Source\PSoC4/BLE_eventHandler.c **** {
  39              		.loc 1 179 0
  40              		.cfi_startproc
  41 0000 90B5     		push	{r4, r7, lr}
  42              		.cfi_def_cfa_offset 12
  43              		.cfi_offset 4, -12
  44              		.cfi_offset 7, -8
  45              		.cfi_offset 14, -4
  46 0002 85B0     		sub	sp, sp, #20
  47              		.cfi_def_cfa_offset 32
  48 0004 00AF     		add	r7, sp, #0
  49              		.cfi_def_cfa_register 7
ARM GAS  C:\Users\Lonnie\AppData\Local\Temp\ccJOwa1B.s 			page 5


  50 0006 7860     		str	r0, [r7, #4]
 180:.\Generated_Source\PSoC4/BLE_eventHandler.c ****     CYBLE_GATT_ERR_CODE_T gattErr;
 181:.\Generated_Source\PSoC4/BLE_eventHandler.c ****     
 182:.\Generated_Source\PSoC4/BLE_eventHandler.c ****     gattErr = CyBle_GattsWriteEventHandler(eventParam);
  51              		.loc 1 182 0
  52 0008 0F23     		mov	r3, #15
  53 000a FC18     		add	r4, r7, r3
  54 000c 7B68     		ldr	r3, [r7, #4]
  55 000e 181C     		mov	r0, r3
  56 0010 FFF7FEFF 		bl	CyBle_GattsWriteEventHandler
  57 0014 031C     		mov	r3, r0
  58 0016 2370     		strb	r3, [r4]
 183:.\Generated_Source\PSoC4/BLE_eventHandler.c **** #if defined(CYBLE_ANS_SERVER)
 184:.\Generated_Source\PSoC4/BLE_eventHandler.c ****     if((CYBLE_GATT_ERR_NONE == gattErr) && ((cyBle_eventHandlerFlag & CYBLE_CALLBACK) != 0u))
 185:.\Generated_Source\PSoC4/BLE_eventHandler.c ****     {
 186:.\Generated_Source\PSoC4/BLE_eventHandler.c ****         gattErr = CyBle_AnssWriteEventHandler(eventParam);
 187:.\Generated_Source\PSoC4/BLE_eventHandler.c ****     }
 188:.\Generated_Source\PSoC4/BLE_eventHandler.c **** #endif /* defined(CYBLE_ANS_SERVER) */
 189:.\Generated_Source\PSoC4/BLE_eventHandler.c **** #if defined(CYBLE_BAS_SERVER)
 190:.\Generated_Source\PSoC4/BLE_eventHandler.c ****     if((CYBLE_GATT_ERR_NONE == gattErr) && ((cyBle_eventHandlerFlag & CYBLE_CALLBACK) != 0u))
 191:.\Generated_Source\PSoC4/BLE_eventHandler.c ****     {
 192:.\Generated_Source\PSoC4/BLE_eventHandler.c ****         gattErr = CyBle_BassWriteEventHandler(eventParam);
 193:.\Generated_Source\PSoC4/BLE_eventHandler.c ****     }
 194:.\Generated_Source\PSoC4/BLE_eventHandler.c **** #endif /* defined(CYBLE_BAS_SERVER) */
 195:.\Generated_Source\PSoC4/BLE_eventHandler.c **** #if defined(CYBLE_BLS_SERVER)
 196:.\Generated_Source\PSoC4/BLE_eventHandler.c ****     if((CYBLE_GATT_ERR_NONE == gattErr) && ((cyBle_eventHandlerFlag & CYBLE_CALLBACK) != 0u))
 197:.\Generated_Source\PSoC4/BLE_eventHandler.c ****     {
 198:.\Generated_Source\PSoC4/BLE_eventHandler.c ****         gattErr = CyBle_BlssWriteEventHandler(eventParam);
 199:.\Generated_Source\PSoC4/BLE_eventHandler.c ****     }
 200:.\Generated_Source\PSoC4/BLE_eventHandler.c **** #endif /* defined(CYBLE_BLS_SERVER) */
 201:.\Generated_Source\PSoC4/BLE_eventHandler.c **** #if defined(CYBLE_CPS_SERVER)
 202:.\Generated_Source\PSoC4/BLE_eventHandler.c ****     if((CYBLE_GATT_ERR_NONE == gattErr) && ((cyBle_eventHandlerFlag & CYBLE_CALLBACK) != 0u))
 203:.\Generated_Source\PSoC4/BLE_eventHandler.c ****     {
 204:.\Generated_Source\PSoC4/BLE_eventHandler.c ****         gattErr = CyBle_CpssWriteEventHandler(eventParam);
 205:.\Generated_Source\PSoC4/BLE_eventHandler.c ****     }
 206:.\Generated_Source\PSoC4/BLE_eventHandler.c **** #endif /* defined(CYBLE_CPS_SERVER) */
 207:.\Generated_Source\PSoC4/BLE_eventHandler.c **** #if defined(CYBLE_CSCS_SERVER)
 208:.\Generated_Source\PSoC4/BLE_eventHandler.c ****     if((CYBLE_GATT_ERR_NONE == gattErr) && ((cyBle_eventHandlerFlag & CYBLE_CALLBACK) != 0u))
 209:.\Generated_Source\PSoC4/BLE_eventHandler.c ****     {
 210:.\Generated_Source\PSoC4/BLE_eventHandler.c ****         gattErr = CyBle_CscssWriteEventHandler(eventParam);
 211:.\Generated_Source\PSoC4/BLE_eventHandler.c ****     }
 212:.\Generated_Source\PSoC4/BLE_eventHandler.c **** #endif /* defined(CYBLE_CSCS_SERVER) */
 213:.\Generated_Source\PSoC4/BLE_eventHandler.c **** #if defined(CYBLE_CTS_SERVER)
 214:.\Generated_Source\PSoC4/BLE_eventHandler.c ****     if((CYBLE_GATT_ERR_NONE == gattErr) && ((cyBle_eventHandlerFlag & CYBLE_CALLBACK) != 0u))
 215:.\Generated_Source\PSoC4/BLE_eventHandler.c ****     {
 216:.\Generated_Source\PSoC4/BLE_eventHandler.c ****         gattErr = CyBle_CtssWriteEventHandler(eventParam);
 217:.\Generated_Source\PSoC4/BLE_eventHandler.c ****     }
 218:.\Generated_Source\PSoC4/BLE_eventHandler.c **** #endif /* defined(CYBLE_CTS_SERVER) */
 219:.\Generated_Source\PSoC4/BLE_eventHandler.c **** #if defined(CYBLE_GLS_SERVER)
 220:.\Generated_Source\PSoC4/BLE_eventHandler.c ****     if((CYBLE_GATT_ERR_NONE == gattErr) && ((cyBle_eventHandlerFlag & CYBLE_CALLBACK) != 0u))
 221:.\Generated_Source\PSoC4/BLE_eventHandler.c ****     {
 222:.\Generated_Source\PSoC4/BLE_eventHandler.c ****         gattErr = CyBle_GlssWriteEventHandler(eventParam);
 223:.\Generated_Source\PSoC4/BLE_eventHandler.c ****     }
 224:.\Generated_Source\PSoC4/BLE_eventHandler.c **** #endif /* defined(CYBLE_GLS_SERVER) */
 225:.\Generated_Source\PSoC4/BLE_eventHandler.c **** #if defined(CYBLE_HIDS_SERVER)
 226:.\Generated_Source\PSoC4/BLE_eventHandler.c ****     if((CYBLE_GATT_ERR_NONE == gattErr) && ((cyBle_eventHandlerFlag & CYBLE_CALLBACK) != 0u))
 227:.\Generated_Source\PSoC4/BLE_eventHandler.c ****     {
ARM GAS  C:\Users\Lonnie\AppData\Local\Temp\ccJOwa1B.s 			page 6


 228:.\Generated_Source\PSoC4/BLE_eventHandler.c ****         gattErr = CyBle_HidssWriteEventHandler(eventParam);
 229:.\Generated_Source\PSoC4/BLE_eventHandler.c ****     }
 230:.\Generated_Source\PSoC4/BLE_eventHandler.c **** #endif /* defined(CYBLE_HIDS_SERVER) */
 231:.\Generated_Source\PSoC4/BLE_eventHandler.c **** #if defined(CYBLE_HRS_SERVER)
 232:.\Generated_Source\PSoC4/BLE_eventHandler.c ****     if((CYBLE_GATT_ERR_NONE == gattErr) && ((cyBle_eventHandlerFlag & CYBLE_CALLBACK) != 0u))
 233:.\Generated_Source\PSoC4/BLE_eventHandler.c ****     {
 234:.\Generated_Source\PSoC4/BLE_eventHandler.c ****         gattErr = CyBle_HrssWriteEventHandler(eventParam);
 235:.\Generated_Source\PSoC4/BLE_eventHandler.c ****     }
 236:.\Generated_Source\PSoC4/BLE_eventHandler.c **** #endif /* defined(CYBLE_HRS_SERVER) */
 237:.\Generated_Source\PSoC4/BLE_eventHandler.c **** #if defined(CYBLE_HTS_SERVER)
 238:.\Generated_Source\PSoC4/BLE_eventHandler.c ****     if((CYBLE_GATT_ERR_NONE == gattErr) && ((cyBle_eventHandlerFlag & CYBLE_CALLBACK) != 0u))
  59              		.loc 1 238 0
  60 0018 0F23     		mov	r3, #15
  61 001a FB18     		add	r3, r7, r3
  62 001c 1B78     		ldrb	r3, [r3]
  63 001e 002B     		cmp	r3, #0
  64 0020 0ED1     		bne	.L2
  65              		.loc 1 238 0 is_stmt 0 discriminator 1
  66 0022 1C4B     		ldr	r3, .L5
  67 0024 1B78     		ldrb	r3, [r3]
  68 0026 DBB2     		uxtb	r3, r3
  69 0028 1A1C     		mov	r2, r3
  70 002a 0123     		mov	r3, #1
  71 002c 1340     		and	r3, r2
  72 002e 07D0     		beq	.L2
 239:.\Generated_Source\PSoC4/BLE_eventHandler.c ****     {
 240:.\Generated_Source\PSoC4/BLE_eventHandler.c ****         gattErr = CyBle_HtssWriteEventHandler(eventParam);
  73              		.loc 1 240 0 is_stmt 1
  74 0030 0F23     		mov	r3, #15
  75 0032 FC18     		add	r4, r7, r3
  76 0034 7B68     		ldr	r3, [r7, #4]
  77 0036 181C     		mov	r0, r3
  78 0038 FFF7FEFF 		bl	CyBle_HtssWriteEventHandler
  79 003c 031C     		mov	r3, r0
  80 003e 2370     		strb	r3, [r4]
  81              	.L2:
 241:.\Generated_Source\PSoC4/BLE_eventHandler.c ****     }
 242:.\Generated_Source\PSoC4/BLE_eventHandler.c **** #endif /* defined(CYBLE_TPS_SERVER) */
 243:.\Generated_Source\PSoC4/BLE_eventHandler.c **** #if defined(CYBLE_LLS_SERVER)
 244:.\Generated_Source\PSoC4/BLE_eventHandler.c ****     if((CYBLE_GATT_ERR_NONE == gattErr) && ((cyBle_eventHandlerFlag & CYBLE_CALLBACK) != 0u))
 245:.\Generated_Source\PSoC4/BLE_eventHandler.c ****     {
 246:.\Generated_Source\PSoC4/BLE_eventHandler.c ****         gattErr = CyBle_LlssWriteEventHandler(eventParam);
 247:.\Generated_Source\PSoC4/BLE_eventHandler.c ****     }
 248:.\Generated_Source\PSoC4/BLE_eventHandler.c **** #endif /* defined(CYBLE_LLS_SERVER) */
 249:.\Generated_Source\PSoC4/BLE_eventHandler.c **** #if defined(CYBLE_LNS_SERVER)
 250:.\Generated_Source\PSoC4/BLE_eventHandler.c ****     if((CYBLE_GATT_ERR_NONE == gattErr) && ((cyBle_eventHandlerFlag & CYBLE_CALLBACK) != 0u))
 251:.\Generated_Source\PSoC4/BLE_eventHandler.c ****     {
 252:.\Generated_Source\PSoC4/BLE_eventHandler.c ****         gattErr = CyBle_LnssWriteEventHandler(eventParam);
 253:.\Generated_Source\PSoC4/BLE_eventHandler.c ****     }
 254:.\Generated_Source\PSoC4/BLE_eventHandler.c **** #endif /* defined(CYBLE_LNS_SERVER) */
 255:.\Generated_Source\PSoC4/BLE_eventHandler.c **** #if defined(CYBLE_PASS_SERVER)
 256:.\Generated_Source\PSoC4/BLE_eventHandler.c ****     if((CYBLE_GATT_ERR_NONE == gattErr) && ((cyBle_eventHandlerFlag & CYBLE_CALLBACK) != 0u))
 257:.\Generated_Source\PSoC4/BLE_eventHandler.c ****     {
 258:.\Generated_Source\PSoC4/BLE_eventHandler.c ****         gattErr = CyBle_PasssWriteEventHandler(eventParam);
 259:.\Generated_Source\PSoC4/BLE_eventHandler.c ****     }
 260:.\Generated_Source\PSoC4/BLE_eventHandler.c **** #endif /* defined(CYBLE_PASS_SERVER) */
 261:.\Generated_Source\PSoC4/BLE_eventHandler.c **** #if defined(CYBLE_RSCS_SERVER)
ARM GAS  C:\Users\Lonnie\AppData\Local\Temp\ccJOwa1B.s 			page 7


 262:.\Generated_Source\PSoC4/BLE_eventHandler.c ****     if((CYBLE_GATT_ERR_NONE == gattErr) && ((cyBle_eventHandlerFlag & CYBLE_CALLBACK) != 0u))
 263:.\Generated_Source\PSoC4/BLE_eventHandler.c ****     {
 264:.\Generated_Source\PSoC4/BLE_eventHandler.c ****         gattErr = CyBle_RscssWriteEventHandler(eventParam);
 265:.\Generated_Source\PSoC4/BLE_eventHandler.c ****     }
 266:.\Generated_Source\PSoC4/BLE_eventHandler.c **** #endif /* defined(CYBLE_RSCS_SERVER) */
 267:.\Generated_Source\PSoC4/BLE_eventHandler.c **** #if defined(CYBLE_SCPS_SERVER)
 268:.\Generated_Source\PSoC4/BLE_eventHandler.c ****     if((CYBLE_GATT_ERR_NONE == gattErr) && ((cyBle_eventHandlerFlag & CYBLE_CALLBACK) != 0u))
 269:.\Generated_Source\PSoC4/BLE_eventHandler.c ****     {
 270:.\Generated_Source\PSoC4/BLE_eventHandler.c ****         gattErr = CyBle_ScpssWriteEventHandler(eventParam);
 271:.\Generated_Source\PSoC4/BLE_eventHandler.c ****     }
 272:.\Generated_Source\PSoC4/BLE_eventHandler.c **** #endif /* defined(CYBLE_SCPS_SERVER) */
 273:.\Generated_Source\PSoC4/BLE_eventHandler.c **** #if defined(CYBLE_TPS_SERVER)
 274:.\Generated_Source\PSoC4/BLE_eventHandler.c ****     if((CYBLE_GATT_ERR_NONE == gattErr) && ((cyBle_eventHandlerFlag & CYBLE_CALLBACK) != 0u))
 275:.\Generated_Source\PSoC4/BLE_eventHandler.c ****     {
 276:.\Generated_Source\PSoC4/BLE_eventHandler.c ****         gattErr = CyBle_TpssWriteEventHandler(eventParam);
 277:.\Generated_Source\PSoC4/BLE_eventHandler.c ****     }
 278:.\Generated_Source\PSoC4/BLE_eventHandler.c **** #endif /* defined(CYBLE_TPS_SERVER) */
 279:.\Generated_Source\PSoC4/BLE_eventHandler.c **** 
 280:.\Generated_Source\PSoC4/BLE_eventHandler.c ****     /* Send response when event was handled by service */
 281:.\Generated_Source\PSoC4/BLE_eventHandler.c ****     if((cyBle_eventHandlerFlag & CYBLE_CALLBACK) == 0u)
  82              		.loc 1 281 0
  83 0040 144B     		ldr	r3, .L5
  84 0042 1B78     		ldrb	r3, [r3]
  85 0044 DBB2     		uxtb	r3, r3
  86 0046 1A1C     		mov	r2, r3
  87 0048 0123     		mov	r3, #1
  88 004a 1340     		and	r3, r2
  89 004c 1FD1     		bne	.L1
 282:.\Generated_Source\PSoC4/BLE_eventHandler.c ****     {
 283:.\Generated_Source\PSoC4/BLE_eventHandler.c ****         if(CYBLE_GATT_ERR_NONE != gattErr)
  90              		.loc 1 283 0
  91 004e 0F23     		mov	r3, #15
  92 0050 FB18     		add	r3, r7, r3
  93 0052 1B78     		ldrb	r3, [r3]
  94 0054 002B     		cmp	r3, #0
  95 0056 16D0     		beq	.L4
  96              	.LBB2:
 284:.\Generated_Source\PSoC4/BLE_eventHandler.c ****         {
 285:.\Generated_Source\PSoC4/BLE_eventHandler.c ****             CYBLE_GATTS_ERR_PARAM_T err_param;
 286:.\Generated_Source\PSoC4/BLE_eventHandler.c ****             
 287:.\Generated_Source\PSoC4/BLE_eventHandler.c ****             err_param.opcode = (uint8) CYBLE_GATT_WRITE_REQ;
  97              		.loc 1 287 0
  98 0058 0823     		mov	r3, #8
  99 005a FB18     		add	r3, r7, r3
 100 005c 1222     		mov	r2, #18
 101 005e 9A70     		strb	r2, [r3, #2]
 288:.\Generated_Source\PSoC4/BLE_eventHandler.c ****             err_param.attrHandle = eventParam->handleValPair.attrHandle;
 102              		.loc 1 288 0
 103 0060 7B68     		ldr	r3, [r7, #4]
 104 0062 9A89     		ldrh	r2, [r3, #12]
 105 0064 0823     		mov	r3, #8
 106 0066 FB18     		add	r3, r7, r3
 107 0068 1A80     		strh	r2, [r3]
 289:.\Generated_Source\PSoC4/BLE_eventHandler.c ****             err_param.errorCode = gattErr;
 108              		.loc 1 289 0
 109 006a 0823     		mov	r3, #8
 110 006c FB18     		add	r3, r7, r3
ARM GAS  C:\Users\Lonnie\AppData\Local\Temp\ccJOwa1B.s 			page 8


 111 006e 0F22     		mov	r2, #15
 112 0070 BA18     		add	r2, r7, r2
 113 0072 1278     		ldrb	r2, [r2]
 114 0074 DA70     		strb	r2, [r3, #3]
 290:.\Generated_Source\PSoC4/BLE_eventHandler.c **** 
 291:.\Generated_Source\PSoC4/BLE_eventHandler.c ****             /* Send Error Response */
 292:.\Generated_Source\PSoC4/BLE_eventHandler.c ****             (void)CyBle_GattsErrorRsp(eventParam->connHandle, &err_param);
 115              		.loc 1 292 0
 116 0076 7B68     		ldr	r3, [r7, #4]
 117 0078 0822     		mov	r2, #8
 118 007a BA18     		add	r2, r7, r2
 119 007c 1868     		ldr	r0, [r3]
 120 007e 111C     		mov	r1, r2
 121 0080 FFF7FEFF 		bl	CyBle_GattsErrorRsp
 122              	.LBE2:
 123 0084 03E0     		b	.L1
 124              	.L4:
 293:.\Generated_Source\PSoC4/BLE_eventHandler.c ****         }
 294:.\Generated_Source\PSoC4/BLE_eventHandler.c ****         else
 295:.\Generated_Source\PSoC4/BLE_eventHandler.c ****         {
 296:.\Generated_Source\PSoC4/BLE_eventHandler.c ****             (void)CyBle_GattsWriteRsp(eventParam->connHandle);
 125              		.loc 1 296 0
 126 0086 7B68     		ldr	r3, [r7, #4]
 127 0088 1868     		ldr	r0, [r3]
 128 008a FFF7FEFF 		bl	CyBle_GattsWriteRsp
 129              	.L1:
 297:.\Generated_Source\PSoC4/BLE_eventHandler.c ****         }
 298:.\Generated_Source\PSoC4/BLE_eventHandler.c ****     }
 299:.\Generated_Source\PSoC4/BLE_eventHandler.c **** }
 130              		.loc 1 299 0
 131 008e BD46     		mov	sp, r7
 132 0090 05B0     		add	sp, sp, #20
 133              		@ sp needed
 134 0092 90BD     		pop	{r4, r7, pc}
 135              	.L6:
 136              		.align	2
 137              	.L5:
 138 0094 00000000 		.word	cyBle_eventHandlerFlag
 139              		.cfi_endproc
 140              	.LFE2:
 141              		.size	CyBle_WriteReqHandler, .-CyBle_WriteReqHandler
 142              		.section	.text.CyBle_ValueConfirmation,"ax",%progbits
 143              		.align	2
 144              		.code	16
 145              		.thumb_func
 146              		.type	CyBle_ValueConfirmation, %function
 147              	CyBle_ValueConfirmation:
 148              	.LFB3:
 300:.\Generated_Source\PSoC4/BLE_eventHandler.c **** 
 301:.\Generated_Source\PSoC4/BLE_eventHandler.c **** 
 302:.\Generated_Source\PSoC4/BLE_eventHandler.c **** /****************************************************************************** 
 303:.\Generated_Source\PSoC4/BLE_eventHandler.c **** ##Function Name: CyBle_ValueConfirmation
 304:.\Generated_Source\PSoC4/BLE_eventHandler.c **** *******************************************************************************
 305:.\Generated_Source\PSoC4/BLE_eventHandler.c **** 
 306:.\Generated_Source\PSoC4/BLE_eventHandler.c **** Summary:
 307:.\Generated_Source\PSoC4/BLE_eventHandler.c ****  Handles the Value Confirmation request event from the BLE stack.
 308:.\Generated_Source\PSoC4/BLE_eventHandler.c **** 
ARM GAS  C:\Users\Lonnie\AppData\Local\Temp\ccJOwa1B.s 			page 9


 309:.\Generated_Source\PSoC4/BLE_eventHandler.c **** Parameters:
 310:.\Generated_Source\PSoC4/BLE_eventHandler.c ****  CYBLE_CONN_HANDLE_T *eventParam - Pointer to a structure
 311:.\Generated_Source\PSoC4/BLE_eventHandler.c ****     of type 'CYBLE_CONN_HANDLE_T'
 312:.\Generated_Source\PSoC4/BLE_eventHandler.c **** 
 313:.\Generated_Source\PSoC4/BLE_eventHandler.c **** Return:
 314:.\Generated_Source\PSoC4/BLE_eventHandler.c ****  None
 315:.\Generated_Source\PSoC4/BLE_eventHandler.c **** 
 316:.\Generated_Source\PSoC4/BLE_eventHandler.c **** ******************************************************************************/
 317:.\Generated_Source\PSoC4/BLE_eventHandler.c **** static void CyBle_ValueConfirmation(const CYBLE_CONN_HANDLE_T *eventParam)
 318:.\Generated_Source\PSoC4/BLE_eventHandler.c **** {
 149              		.loc 1 318 0
 150              		.cfi_startproc
 151 0000 80B5     		push	{r7, lr}
 152              		.cfi_def_cfa_offset 8
 153              		.cfi_offset 7, -8
 154              		.cfi_offset 14, -4
 155 0002 82B0     		sub	sp, sp, #8
 156              		.cfi_def_cfa_offset 16
 157 0004 00AF     		add	r7, sp, #0
 158              		.cfi_def_cfa_register 7
 159 0006 7860     		str	r0, [r7, #4]
 319:.\Generated_Source\PSoC4/BLE_eventHandler.c ****     if(eventParam != NULL)
 160              		.loc 1 319 0
 161 0008 7B68     		ldr	r3, [r7, #4]
 162 000a 002B     		cmp	r3, #0
 163 000c 0AD0     		beq	.L7
 320:.\Generated_Source\PSoC4/BLE_eventHandler.c ****     {
 321:.\Generated_Source\PSoC4/BLE_eventHandler.c ****     #if defined(CYBLE_BLS_SERVER)
 322:.\Generated_Source\PSoC4/BLE_eventHandler.c ****         CyBle_BlssConfirmationEventHandler(eventParam);
 323:.\Generated_Source\PSoC4/BLE_eventHandler.c ****     #endif /* defined(CYBLE_BLS_SERVER) */
 324:.\Generated_Source\PSoC4/BLE_eventHandler.c ****     
 325:.\Generated_Source\PSoC4/BLE_eventHandler.c ****     #if defined(CYBLE_CPS_SERVER)
 326:.\Generated_Source\PSoC4/BLE_eventHandler.c ****         if((cyBle_eventHandlerFlag & CYBLE_CALLBACK) != 0u)
 327:.\Generated_Source\PSoC4/BLE_eventHandler.c ****         {
 328:.\Generated_Source\PSoC4/BLE_eventHandler.c ****             CyBle_CpssConfirmationEventHandler(eventParam);
 329:.\Generated_Source\PSoC4/BLE_eventHandler.c ****         }
 330:.\Generated_Source\PSoC4/BLE_eventHandler.c ****     #endif /* defined(CYBLE_CPS_SERVER) */
 331:.\Generated_Source\PSoC4/BLE_eventHandler.c ****     
 332:.\Generated_Source\PSoC4/BLE_eventHandler.c ****     #if defined(CYBLE_CSCS_SERVER)
 333:.\Generated_Source\PSoC4/BLE_eventHandler.c ****         if((cyBle_eventHandlerFlag & CYBLE_CALLBACK) != 0u)
 334:.\Generated_Source\PSoC4/BLE_eventHandler.c ****         {
 335:.\Generated_Source\PSoC4/BLE_eventHandler.c ****             CyBle_CscssConfirmationEventHandler(eventParam);
 336:.\Generated_Source\PSoC4/BLE_eventHandler.c ****         }
 337:.\Generated_Source\PSoC4/BLE_eventHandler.c ****     #endif /* defined(CYBLE_CSCS_SERVER) */
 338:.\Generated_Source\PSoC4/BLE_eventHandler.c ****     
 339:.\Generated_Source\PSoC4/BLE_eventHandler.c ****     #if defined(CYBLE_GLS_SERVER)
 340:.\Generated_Source\PSoC4/BLE_eventHandler.c ****         if((cyBle_eventHandlerFlag & CYBLE_CALLBACK) != 0u)
 341:.\Generated_Source\PSoC4/BLE_eventHandler.c ****         {
 342:.\Generated_Source\PSoC4/BLE_eventHandler.c ****             CyBle_GlssConfirmationEventHandler(eventParam);
 343:.\Generated_Source\PSoC4/BLE_eventHandler.c ****         }
 344:.\Generated_Source\PSoC4/BLE_eventHandler.c ****     #endif /* defined(CYBLE_GLS_SERVER) */
 345:.\Generated_Source\PSoC4/BLE_eventHandler.c ****     
 346:.\Generated_Source\PSoC4/BLE_eventHandler.c ****     #if defined(CYBLE_HTS_SERVER)
 347:.\Generated_Source\PSoC4/BLE_eventHandler.c ****         if((cyBle_eventHandlerFlag & CYBLE_CALLBACK) != 0u)
 164              		.loc 1 347 0
 165 000e 074B     		ldr	r3, .L9
 166 0010 1B78     		ldrb	r3, [r3]
ARM GAS  C:\Users\Lonnie\AppData\Local\Temp\ccJOwa1B.s 			page 10


 167 0012 DBB2     		uxtb	r3, r3
 168 0014 1A1C     		mov	r2, r3
 169 0016 0123     		mov	r3, #1
 170 0018 1340     		and	r3, r2
 171 001a 03D0     		beq	.L7
 348:.\Generated_Source\PSoC4/BLE_eventHandler.c ****         {
 349:.\Generated_Source\PSoC4/BLE_eventHandler.c ****             CyBle_HtssConfirmationEventHandler(eventParam);
 172              		.loc 1 349 0
 173 001c 7B68     		ldr	r3, [r7, #4]
 174 001e 181C     		mov	r0, r3
 175 0020 FFF7FEFF 		bl	CyBle_HtssConfirmationEventHandler
 176              	.L7:
 350:.\Generated_Source\PSoC4/BLE_eventHandler.c ****         }
 351:.\Generated_Source\PSoC4/BLE_eventHandler.c ****     #endif /* defined(CYBLE_HTS_SERVER) */
 352:.\Generated_Source\PSoC4/BLE_eventHandler.c **** 
 353:.\Generated_Source\PSoC4/BLE_eventHandler.c ****     #if defined(CYBLE_LNS_SERVER)
 354:.\Generated_Source\PSoC4/BLE_eventHandler.c ****         if((cyBle_eventHandlerFlag & CYBLE_CALLBACK) != 0u)
 355:.\Generated_Source\PSoC4/BLE_eventHandler.c ****         {
 356:.\Generated_Source\PSoC4/BLE_eventHandler.c ****             CyBle_LnssConfirmationEventHandler(eventParam);
 357:.\Generated_Source\PSoC4/BLE_eventHandler.c ****         }
 358:.\Generated_Source\PSoC4/BLE_eventHandler.c ****     #endif /* defined(CYBLE_LNS_SERVER) */
 359:.\Generated_Source\PSoC4/BLE_eventHandler.c ****     
 360:.\Generated_Source\PSoC4/BLE_eventHandler.c ****     #if defined(CYBLE_RSCS_SERVER)
 361:.\Generated_Source\PSoC4/BLE_eventHandler.c ****         if((cyBle_eventHandlerFlag & CYBLE_CALLBACK) != 0u)
 362:.\Generated_Source\PSoC4/BLE_eventHandler.c ****         {
 363:.\Generated_Source\PSoC4/BLE_eventHandler.c ****             CyBle_RscssConfirmationEventHandler(eventParam);
 364:.\Generated_Source\PSoC4/BLE_eventHandler.c ****         }
 365:.\Generated_Source\PSoC4/BLE_eventHandler.c ****     #endif /* defined(CYBLE_RSCS_SERVER) */
 366:.\Generated_Source\PSoC4/BLE_eventHandler.c ****     }
 367:.\Generated_Source\PSoC4/BLE_eventHandler.c **** }
 177              		.loc 1 367 0
 178 0024 BD46     		mov	sp, r7
 179 0026 02B0     		add	sp, sp, #8
 180              		@ sp needed
 181 0028 80BD     		pop	{r7, pc}
 182              	.L10:
 183 002a C046     		.align	2
 184              	.L9:
 185 002c 00000000 		.word	cyBle_eventHandlerFlag
 186              		.cfi_endproc
 187              	.LFE3:
 188              		.size	CyBle_ValueConfirmation, .-CyBle_ValueConfirmation
 189              		.section	.text.CyBle_GattDisconnectEventHandler,"ax",%progbits
 190              		.align	2
 191              		.code	16
 192              		.thumb_func
 193              		.type	CyBle_GattDisconnectEventHandler, %function
 194              	CyBle_GattDisconnectEventHandler:
 195              	.LFB4:
 368:.\Generated_Source\PSoC4/BLE_eventHandler.c **** 
 369:.\Generated_Source\PSoC4/BLE_eventHandler.c **** #endif /* (CYBLE_GATT_ROLE_SERVER) */
 370:.\Generated_Source\PSoC4/BLE_eventHandler.c **** 
 371:.\Generated_Source\PSoC4/BLE_eventHandler.c **** 
 372:.\Generated_Source\PSoC4/BLE_eventHandler.c **** #if (CYBLE_GATT_ROLE_CLIENT)
 373:.\Generated_Source\PSoC4/BLE_eventHandler.c **** 
 374:.\Generated_Source\PSoC4/BLE_eventHandler.c **** /****************************************************************************** 
 375:.\Generated_Source\PSoC4/BLE_eventHandler.c **** ##Function Name: CyBle_GattcWriteResponseEventHandler
ARM GAS  C:\Users\Lonnie\AppData\Local\Temp\ccJOwa1B.s 			page 11


 376:.\Generated_Source\PSoC4/BLE_eventHandler.c **** *******************************************************************************
 377:.\Generated_Source\PSoC4/BLE_eventHandler.c **** 
 378:.\Generated_Source\PSoC4/BLE_eventHandler.c **** Summary:
 379:.\Generated_Source\PSoC4/BLE_eventHandler.c ****  Handles the Write response event from the BLE stack.
 380:.\Generated_Source\PSoC4/BLE_eventHandler.c **** 
 381:.\Generated_Source\PSoC4/BLE_eventHandler.c **** Parameters:
 382:.\Generated_Source\PSoC4/BLE_eventHandler.c ****  CYBLE_CONN_HANDLE_T *eventParam - Pointer to a structure
 383:.\Generated_Source\PSoC4/BLE_eventHandler.c ****     of type 'CYBLE_CONN_HANDLE_T'
 384:.\Generated_Source\PSoC4/BLE_eventHandler.c **** 
 385:.\Generated_Source\PSoC4/BLE_eventHandler.c **** Return:
 386:.\Generated_Source\PSoC4/BLE_eventHandler.c ****  None
 387:.\Generated_Source\PSoC4/BLE_eventHandler.c **** 
 388:.\Generated_Source\PSoC4/BLE_eventHandler.c **** ******************************************************************************/
 389:.\Generated_Source\PSoC4/BLE_eventHandler.c **** static void CyBle_GattcWriteResponseEventHandler(const CYBLE_CONN_HANDLE_T *eventParam)
 390:.\Generated_Source\PSoC4/BLE_eventHandler.c **** {
 391:.\Generated_Source\PSoC4/BLE_eventHandler.c **** #ifdef CYBLE_ANS_CLIENT
 392:.\Generated_Source\PSoC4/BLE_eventHandler.c ****     CyBle_AnscWriteResponseEventHandler(eventParam);
 393:.\Generated_Source\PSoC4/BLE_eventHandler.c **** #endif /* CYBLE_ANS_CLIENT */
 394:.\Generated_Source\PSoC4/BLE_eventHandler.c **** 
 395:.\Generated_Source\PSoC4/BLE_eventHandler.c **** #ifdef CYBLE_BAS_CLIENT
 396:.\Generated_Source\PSoC4/BLE_eventHandler.c ****     if((cyBle_eventHandlerFlag & CYBLE_CALLBACK) != 0u)
 397:.\Generated_Source\PSoC4/BLE_eventHandler.c ****     {
 398:.\Generated_Source\PSoC4/BLE_eventHandler.c ****         CyBle_BascWriteResponseEventHandler(eventParam);
 399:.\Generated_Source\PSoC4/BLE_eventHandler.c ****     }
 400:.\Generated_Source\PSoC4/BLE_eventHandler.c **** #endif /* CYBLE_BAS_CLIENT */
 401:.\Generated_Source\PSoC4/BLE_eventHandler.c **** 
 402:.\Generated_Source\PSoC4/BLE_eventHandler.c **** #ifdef CYBLE_BLS_CLIENT
 403:.\Generated_Source\PSoC4/BLE_eventHandler.c ****     if((cyBle_eventHandlerFlag & CYBLE_CALLBACK) != 0u)
 404:.\Generated_Source\PSoC4/BLE_eventHandler.c ****     {
 405:.\Generated_Source\PSoC4/BLE_eventHandler.c ****         CyBle_BlscWriteResponseEventHandler(eventParam);
 406:.\Generated_Source\PSoC4/BLE_eventHandler.c ****     }
 407:.\Generated_Source\PSoC4/BLE_eventHandler.c **** #endif /* CYBLE_BLS_CLIENT */
 408:.\Generated_Source\PSoC4/BLE_eventHandler.c **** 
 409:.\Generated_Source\PSoC4/BLE_eventHandler.c **** #ifdef CYBLE_CPS_CLIENT
 410:.\Generated_Source\PSoC4/BLE_eventHandler.c ****     if((cyBle_eventHandlerFlag & CYBLE_CALLBACK) != 0u)
 411:.\Generated_Source\PSoC4/BLE_eventHandler.c ****     {
 412:.\Generated_Source\PSoC4/BLE_eventHandler.c ****         CyBle_CpscWriteResponseEventHandler(eventParam);
 413:.\Generated_Source\PSoC4/BLE_eventHandler.c ****     }
 414:.\Generated_Source\PSoC4/BLE_eventHandler.c **** #endif /* CYBLE_CPS_CLIENT */
 415:.\Generated_Source\PSoC4/BLE_eventHandler.c **** 
 416:.\Generated_Source\PSoC4/BLE_eventHandler.c **** #ifdef CYBLE_CSCS_CLIENT
 417:.\Generated_Source\PSoC4/BLE_eventHandler.c ****     if((cyBle_eventHandlerFlag & CYBLE_CALLBACK) != 0u)
 418:.\Generated_Source\PSoC4/BLE_eventHandler.c ****     {
 419:.\Generated_Source\PSoC4/BLE_eventHandler.c ****         CyBle_CscscWriteResponseEventHandler(eventParam);
 420:.\Generated_Source\PSoC4/BLE_eventHandler.c ****     }
 421:.\Generated_Source\PSoC4/BLE_eventHandler.c **** #endif /* CYBLE_CSCS_CLIENT */
 422:.\Generated_Source\PSoC4/BLE_eventHandler.c **** 
 423:.\Generated_Source\PSoC4/BLE_eventHandler.c **** #ifdef CYBLE_CTS_CLIENT
 424:.\Generated_Source\PSoC4/BLE_eventHandler.c ****     if((cyBle_eventHandlerFlag & CYBLE_CALLBACK) != 0u)
 425:.\Generated_Source\PSoC4/BLE_eventHandler.c ****     {
 426:.\Generated_Source\PSoC4/BLE_eventHandler.c ****         CyBle_CtscWriteResponseEventHandler(eventParam);
 427:.\Generated_Source\PSoC4/BLE_eventHandler.c ****     }
 428:.\Generated_Source\PSoC4/BLE_eventHandler.c **** #endif /* CYBLE_CTS_CLIENT */
 429:.\Generated_Source\PSoC4/BLE_eventHandler.c **** 
 430:.\Generated_Source\PSoC4/BLE_eventHandler.c **** #ifdef CYBLE_GLS_CLIENT
 431:.\Generated_Source\PSoC4/BLE_eventHandler.c ****     if((cyBle_eventHandlerFlag & CYBLE_CALLBACK) != 0u)
 432:.\Generated_Source\PSoC4/BLE_eventHandler.c ****     {
ARM GAS  C:\Users\Lonnie\AppData\Local\Temp\ccJOwa1B.s 			page 12


 433:.\Generated_Source\PSoC4/BLE_eventHandler.c ****         CyBle_GlscWriteResponseEventHandler(eventParam);
 434:.\Generated_Source\PSoC4/BLE_eventHandler.c ****     }
 435:.\Generated_Source\PSoC4/BLE_eventHandler.c **** #endif /* CYBLE_GLS_CLIENT */
 436:.\Generated_Source\PSoC4/BLE_eventHandler.c **** 
 437:.\Generated_Source\PSoC4/BLE_eventHandler.c **** #ifdef CYBLE_HIDS_CLIENT
 438:.\Generated_Source\PSoC4/BLE_eventHandler.c ****     if((cyBle_eventHandlerFlag & CYBLE_CALLBACK) != 0u)
 439:.\Generated_Source\PSoC4/BLE_eventHandler.c ****     {
 440:.\Generated_Source\PSoC4/BLE_eventHandler.c ****         CyBle_HidscWriteResponseEventHandler(eventParam);
 441:.\Generated_Source\PSoC4/BLE_eventHandler.c ****     }
 442:.\Generated_Source\PSoC4/BLE_eventHandler.c **** #endif /* CYBLE_HIDS_CLIENT */
 443:.\Generated_Source\PSoC4/BLE_eventHandler.c **** 
 444:.\Generated_Source\PSoC4/BLE_eventHandler.c **** #ifdef CYBLE_HRS_CLIENT
 445:.\Generated_Source\PSoC4/BLE_eventHandler.c ****     if((cyBle_eventHandlerFlag & CYBLE_CALLBACK) != 0u)
 446:.\Generated_Source\PSoC4/BLE_eventHandler.c ****     {
 447:.\Generated_Source\PSoC4/BLE_eventHandler.c ****         CyBle_HrscWriteResponseEventHandler(eventParam);
 448:.\Generated_Source\PSoC4/BLE_eventHandler.c ****     }
 449:.\Generated_Source\PSoC4/BLE_eventHandler.c **** #endif /* CYBLE_HRS_CLIENT */
 450:.\Generated_Source\PSoC4/BLE_eventHandler.c **** 
 451:.\Generated_Source\PSoC4/BLE_eventHandler.c **** #ifdef CYBLE_HTS_CLIENT
 452:.\Generated_Source\PSoC4/BLE_eventHandler.c ****     if((cyBle_eventHandlerFlag & CYBLE_CALLBACK) != 0u)
 453:.\Generated_Source\PSoC4/BLE_eventHandler.c ****     {
 454:.\Generated_Source\PSoC4/BLE_eventHandler.c ****         CyBle_HtscWriteResponseEventHandler(eventParam);
 455:.\Generated_Source\PSoC4/BLE_eventHandler.c ****     }
 456:.\Generated_Source\PSoC4/BLE_eventHandler.c **** #endif /* CYBLE_HTS_CLIENT */
 457:.\Generated_Source\PSoC4/BLE_eventHandler.c **** 
 458:.\Generated_Source\PSoC4/BLE_eventHandler.c **** #ifdef CYBLE_LLS_CLIENT
 459:.\Generated_Source\PSoC4/BLE_eventHandler.c ****     if((cyBle_eventHandlerFlag & CYBLE_CALLBACK) != 0u)
 460:.\Generated_Source\PSoC4/BLE_eventHandler.c ****     {
 461:.\Generated_Source\PSoC4/BLE_eventHandler.c ****         CyBle_LlscWriteResponseEventHandler(eventParam);
 462:.\Generated_Source\PSoC4/BLE_eventHandler.c ****     }
 463:.\Generated_Source\PSoC4/BLE_eventHandler.c **** #endif /* CYBLE_LLS_CLIENT */
 464:.\Generated_Source\PSoC4/BLE_eventHandler.c **** 
 465:.\Generated_Source\PSoC4/BLE_eventHandler.c **** #ifdef CYBLE_LNS_CLIENT
 466:.\Generated_Source\PSoC4/BLE_eventHandler.c ****     if((cyBle_eventHandlerFlag & CYBLE_CALLBACK) != 0u)
 467:.\Generated_Source\PSoC4/BLE_eventHandler.c ****     {
 468:.\Generated_Source\PSoC4/BLE_eventHandler.c ****         CyBle_LnscWriteResponseEventHandler(eventParam);
 469:.\Generated_Source\PSoC4/BLE_eventHandler.c ****     }
 470:.\Generated_Source\PSoC4/BLE_eventHandler.c **** #endif /* CYBLE_LNS_CLIENT */
 471:.\Generated_Source\PSoC4/BLE_eventHandler.c **** 
 472:.\Generated_Source\PSoC4/BLE_eventHandler.c **** #ifdef CYBLE_PASS_CLIENT
 473:.\Generated_Source\PSoC4/BLE_eventHandler.c ****     if((cyBle_eventHandlerFlag & CYBLE_CALLBACK) != 0u)
 474:.\Generated_Source\PSoC4/BLE_eventHandler.c ****     {
 475:.\Generated_Source\PSoC4/BLE_eventHandler.c ****         CyBle_PasscWriteResponseEventHandler(eventParam);
 476:.\Generated_Source\PSoC4/BLE_eventHandler.c ****     }
 477:.\Generated_Source\PSoC4/BLE_eventHandler.c **** #endif /* CYBLE_PASS_CLIENT */
 478:.\Generated_Source\PSoC4/BLE_eventHandler.c **** 
 479:.\Generated_Source\PSoC4/BLE_eventHandler.c **** #ifdef CYBLE_RSCS_CLIENT
 480:.\Generated_Source\PSoC4/BLE_eventHandler.c ****     if((cyBle_eventHandlerFlag & CYBLE_CALLBACK) != 0u)
 481:.\Generated_Source\PSoC4/BLE_eventHandler.c ****     {
 482:.\Generated_Source\PSoC4/BLE_eventHandler.c ****         CyBle_RscscWriteResponseEventHandler(eventParam);
 483:.\Generated_Source\PSoC4/BLE_eventHandler.c ****     }
 484:.\Generated_Source\PSoC4/BLE_eventHandler.c **** #endif /* CYBLE_RSCS_CLIENT */
 485:.\Generated_Source\PSoC4/BLE_eventHandler.c **** 
 486:.\Generated_Source\PSoC4/BLE_eventHandler.c **** #ifdef CYBLE_SCPS_CLIENT
 487:.\Generated_Source\PSoC4/BLE_eventHandler.c ****     if((cyBle_eventHandlerFlag & CYBLE_CALLBACK) != 0u)
 488:.\Generated_Source\PSoC4/BLE_eventHandler.c ****     {
 489:.\Generated_Source\PSoC4/BLE_eventHandler.c ****         CyBle_ScpscWriteResponseEventHandler(eventParam);
ARM GAS  C:\Users\Lonnie\AppData\Local\Temp\ccJOwa1B.s 			page 13


 490:.\Generated_Source\PSoC4/BLE_eventHandler.c ****     }
 491:.\Generated_Source\PSoC4/BLE_eventHandler.c **** #endif /* CYBLE_SCPS_CLIENT */
 492:.\Generated_Source\PSoC4/BLE_eventHandler.c **** 
 493:.\Generated_Source\PSoC4/BLE_eventHandler.c **** #ifdef CYBLE_TPS_CLIENT
 494:.\Generated_Source\PSoC4/BLE_eventHandler.c ****     if((cyBle_eventHandlerFlag & CYBLE_CALLBACK) != 0u)
 495:.\Generated_Source\PSoC4/BLE_eventHandler.c ****     {
 496:.\Generated_Source\PSoC4/BLE_eventHandler.c ****         CyBle_TpscWriteResponseEventHandler(eventParam);
 497:.\Generated_Source\PSoC4/BLE_eventHandler.c ****     }
 498:.\Generated_Source\PSoC4/BLE_eventHandler.c **** #endif /* CYBLE_TPS_CLIENT */
 499:.\Generated_Source\PSoC4/BLE_eventHandler.c **** }
 500:.\Generated_Source\PSoC4/BLE_eventHandler.c **** #endif /* (CYBLE_GATT_ROLE_CLIENT) */
 501:.\Generated_Source\PSoC4/BLE_eventHandler.c **** 
 502:.\Generated_Source\PSoC4/BLE_eventHandler.c **** 
 503:.\Generated_Source\PSoC4/BLE_eventHandler.c **** /****************************************************************************** 
 504:.\Generated_Source\PSoC4/BLE_eventHandler.c **** ##Function Name: CyBle_DisconnectEventHandler
 505:.\Generated_Source\PSoC4/BLE_eventHandler.c **** *******************************************************************************
 506:.\Generated_Source\PSoC4/BLE_eventHandler.c **** 
 507:.\Generated_Source\PSoC4/BLE_eventHandler.c **** Summary:
 508:.\Generated_Source\PSoC4/BLE_eventHandler.c ****  Handles the GATT Disconnection event from the BLE stack.
 509:.\Generated_Source\PSoC4/BLE_eventHandler.c **** 
 510:.\Generated_Source\PSoC4/BLE_eventHandler.c **** Parameters:
 511:.\Generated_Source\PSoC4/BLE_eventHandler.c ****  None
 512:.\Generated_Source\PSoC4/BLE_eventHandler.c **** 
 513:.\Generated_Source\PSoC4/BLE_eventHandler.c **** Return:
 514:.\Generated_Source\PSoC4/BLE_eventHandler.c ****  None
 515:.\Generated_Source\PSoC4/BLE_eventHandler.c **** 
 516:.\Generated_Source\PSoC4/BLE_eventHandler.c **** ******************************************************************************/
 517:.\Generated_Source\PSoC4/BLE_eventHandler.c **** static void CyBle_GattDisconnectEventHandler(void)
 518:.\Generated_Source\PSoC4/BLE_eventHandler.c **** {
 196              		.loc 1 518 0
 197              		.cfi_startproc
 198 0000 80B5     		push	{r7, lr}
 199              		.cfi_def_cfa_offset 8
 200              		.cfi_offset 7, -8
 201              		.cfi_offset 14, -4
 202 0002 00AF     		add	r7, sp, #0
 203              		.cfi_def_cfa_register 7
 519:.\Generated_Source\PSoC4/BLE_eventHandler.c ****     cyBle_connHandle.attId = 0u;
 204              		.loc 1 519 0
 205 0004 034B     		ldr	r3, .L12
 206 0006 0022     		mov	r2, #0
 207 0008 5A70     		strb	r2, [r3, #1]
 520:.\Generated_Source\PSoC4/BLE_eventHandler.c ****     cyBle_connHandle.bdHandle = 0u;
 208              		.loc 1 520 0
 209 000a 024B     		ldr	r3, .L12
 210 000c 0022     		mov	r2, #0
 211 000e 1A70     		strb	r2, [r3]
 521:.\Generated_Source\PSoC4/BLE_eventHandler.c ****     
 522:.\Generated_Source\PSoC4/BLE_eventHandler.c ****     #if (CYBLE_GATT_ROLE_CLIENT)
 523:.\Generated_Source\PSoC4/BLE_eventHandler.c ****         if(CYBLE_CLIENT_STATE_DISCOVERED == CyBle_GetClientState())
 524:.\Generated_Source\PSoC4/BLE_eventHandler.c ****         {
 525:.\Generated_Source\PSoC4/BLE_eventHandler.c ****             CyBle_SetClientState(CYBLE_CLIENT_STATE_DISCONNECTED_DISCOVERED);
 526:.\Generated_Source\PSoC4/BLE_eventHandler.c ****         }
 527:.\Generated_Source\PSoC4/BLE_eventHandler.c ****         else
 528:.\Generated_Source\PSoC4/BLE_eventHandler.c ****         {
 529:.\Generated_Source\PSoC4/BLE_eventHandler.c ****             CyBle_SetClientState(CYBLE_CLIENT_STATE_DISCONNECTED);
 530:.\Generated_Source\PSoC4/BLE_eventHandler.c ****         }
ARM GAS  C:\Users\Lonnie\AppData\Local\Temp\ccJOwa1B.s 			page 14


 531:.\Generated_Source\PSoC4/BLE_eventHandler.c ****     #endif /* CYBLE_GATT_ROLE_CLIENT */
 532:.\Generated_Source\PSoC4/BLE_eventHandler.c ****         
 533:.\Generated_Source\PSoC4/BLE_eventHandler.c ****     #ifdef CYBLE_CPS_SERVER
 534:.\Generated_Source\PSoC4/BLE_eventHandler.c ****         #if CYBLE_GAP_ROLE_BROADCASTER
 535:.\Generated_Source\PSoC4/BLE_eventHandler.c ****             CyBle_CpssDisconnectEventHandler();
 536:.\Generated_Source\PSoC4/BLE_eventHandler.c ****         #endif /* CYBLE_GAP_ROLE_BROADCASTER */
 537:.\Generated_Source\PSoC4/BLE_eventHandler.c ****     #endif /* CYBLE_CPS_SERVER */
 538:.\Generated_Source\PSoC4/BLE_eventHandler.c **** 
 539:.\Generated_Source\PSoC4/BLE_eventHandler.c ****     #ifdef CYBLE_CPS_CLIENT
 540:.\Generated_Source\PSoC4/BLE_eventHandler.c ****         CyBle_CpscDisconnectEventHandler();
 541:.\Generated_Source\PSoC4/BLE_eventHandler.c ****     #endif /* CYBLE_CPS_CLIENT */
 542:.\Generated_Source\PSoC4/BLE_eventHandler.c **** 
 543:.\Generated_Source\PSoC4/BLE_eventHandler.c ****     #ifdef CYBLE_IAS_SERVER
 544:.\Generated_Source\PSoC4/BLE_eventHandler.c ****         CyBle_IassDisconnectEventHandler();
 545:.\Generated_Source\PSoC4/BLE_eventHandler.c ****     #endif /* CYBLE_IAS_SERVER */
 546:.\Generated_Source\PSoC4/BLE_eventHandler.c ****     
 547:.\Generated_Source\PSoC4/BLE_eventHandler.c ****     #ifdef CYBLE_GLS_SERVER
 548:.\Generated_Source\PSoC4/BLE_eventHandler.c ****         CyBle_GlsInit();
 549:.\Generated_Source\PSoC4/BLE_eventHandler.c ****     #endif /* CYBLE_GLS_SERVER */
 550:.\Generated_Source\PSoC4/BLE_eventHandler.c ****     
 551:.\Generated_Source\PSoC4/BLE_eventHandler.c ****     #ifdef CYBLE_LNS_SERVER
 552:.\Generated_Source\PSoC4/BLE_eventHandler.c ****         CyBle_LnsInit();
 553:.\Generated_Source\PSoC4/BLE_eventHandler.c ****     #endif /* CYBLE_LNS_SERVER */
 554:.\Generated_Source\PSoC4/BLE_eventHandler.c **** }
 212              		.loc 1 554 0
 213 0010 BD46     		mov	sp, r7
 214              		@ sp needed
 215 0012 80BD     		pop	{r7, pc}
 216              	.L13:
 217              		.align	2
 218              	.L12:
 219 0014 00000000 		.word	cyBle_connHandle
 220              		.cfi_endproc
 221              	.LFE4:
 222              		.size	CyBle_GattDisconnectEventHandler, .-CyBle_GattDisconnectEventHandler
 223              		.section	.text.CyBle_TimeOutEventHandler,"ax",%progbits
 224              		.align	2
 225              		.code	16
 226              		.thumb_func
 227              		.type	CyBle_TimeOutEventHandler, %function
 228              	CyBle_TimeOutEventHandler:
 229              	.LFB5:
 555:.\Generated_Source\PSoC4/BLE_eventHandler.c **** 
 556:.\Generated_Source\PSoC4/BLE_eventHandler.c **** 
 557:.\Generated_Source\PSoC4/BLE_eventHandler.c **** /****************************************************************************** 
 558:.\Generated_Source\PSoC4/BLE_eventHandler.c **** ##Function Name: CyBle_TimeOutEventHandler
 559:.\Generated_Source\PSoC4/BLE_eventHandler.c **** *******************************************************************************
 560:.\Generated_Source\PSoC4/BLE_eventHandler.c **** 
 561:.\Generated_Source\PSoC4/BLE_eventHandler.c **** Summary:
 562:.\Generated_Source\PSoC4/BLE_eventHandler.c ****  Handles the CYBLE_EVT_TIMEOUT event from the BLE stack.
 563:.\Generated_Source\PSoC4/BLE_eventHandler.c **** 
 564:.\Generated_Source\PSoC4/BLE_eventHandler.c **** Parameters:
 565:.\Generated_Source\PSoC4/BLE_eventHandler.c ****  *eventParam - The pointer to a structure of type CYBLE_TO_REASON_CODE_T.
 566:.\Generated_Source\PSoC4/BLE_eventHandler.c **** 
 567:.\Generated_Source\PSoC4/BLE_eventHandler.c **** Return:
 568:.\Generated_Source\PSoC4/BLE_eventHandler.c ****  None
 569:.\Generated_Source\PSoC4/BLE_eventHandler.c **** 
ARM GAS  C:\Users\Lonnie\AppData\Local\Temp\ccJOwa1B.s 			page 15


 570:.\Generated_Source\PSoC4/BLE_eventHandler.c **** ******************************************************************************/
 571:.\Generated_Source\PSoC4/BLE_eventHandler.c **** static void CyBle_TimeOutEventHandler(const CYBLE_TO_REASON_CODE_T *eventParam)
 572:.\Generated_Source\PSoC4/BLE_eventHandler.c **** {
 230              		.loc 1 572 0
 231              		.cfi_startproc
 232 0000 80B5     		push	{r7, lr}
 233              		.cfi_def_cfa_offset 8
 234              		.cfi_offset 7, -8
 235              		.cfi_offset 14, -4
 236 0002 82B0     		sub	sp, sp, #8
 237              		.cfi_def_cfa_offset 16
 238 0004 00AF     		add	r7, sp, #0
 239              		.cfi_def_cfa_register 7
 240 0006 7860     		str	r0, [r7, #4]
 573:.\Generated_Source\PSoC4/BLE_eventHandler.c ****     if(*eventParam == CYBLE_GATT_RSP_TO)
 574:.\Generated_Source\PSoC4/BLE_eventHandler.c ****     {
 575:.\Generated_Source\PSoC4/BLE_eventHandler.c ****     #if (CYBLE_GATT_ROLE_CLIENT)
 576:.\Generated_Source\PSoC4/BLE_eventHandler.c ****         if(0u != (cyBle_eventHandlerFlag & CYBLE_AUTO_DISCOVERY))
 577:.\Generated_Source\PSoC4/BLE_eventHandler.c ****         {
 578:.\Generated_Source\PSoC4/BLE_eventHandler.c ****             switch(CyBle_GetClientState())
 579:.\Generated_Source\PSoC4/BLE_eventHandler.c ****             {
 580:.\Generated_Source\PSoC4/BLE_eventHandler.c ****                 case CYBLE_CLIENT_STATE_SRVC_DISCOVERING:
 581:.\Generated_Source\PSoC4/BLE_eventHandler.c ****                     CyBle_ApplCallback(CYBLE_EVT_GATTC_SRVC_DISCOVERY_FAILED, NULL);
 582:.\Generated_Source\PSoC4/BLE_eventHandler.c ****                     break;
 583:.\Generated_Source\PSoC4/BLE_eventHandler.c ****                 case CYBLE_CLIENT_STATE_INCL_DISCOVERING:
 584:.\Generated_Source\PSoC4/BLE_eventHandler.c ****                     CyBle_ApplCallback(CYBLE_EVT_GATTC_INCL_DISCOVERY_FAILED, NULL);
 585:.\Generated_Source\PSoC4/BLE_eventHandler.c ****                     break;
 586:.\Generated_Source\PSoC4/BLE_eventHandler.c ****                 case CYBLE_CLIENT_STATE_CHAR_DISCOVERING:
 587:.\Generated_Source\PSoC4/BLE_eventHandler.c ****                     CyBle_ApplCallback(CYBLE_EVT_GATTC_CHAR_DISCOVERY_FAILED, NULL);
 588:.\Generated_Source\PSoC4/BLE_eventHandler.c ****                     break;
 589:.\Generated_Source\PSoC4/BLE_eventHandler.c ****                 case CYBLE_CLIENT_STATE_DESCR_DISCOVERING:
 590:.\Generated_Source\PSoC4/BLE_eventHandler.c ****                     CyBle_ApplCallback(CYBLE_EVT_GATTC_DESCR_DISCOVERY_FAILED, NULL);
 591:.\Generated_Source\PSoC4/BLE_eventHandler.c ****                     break;
 592:.\Generated_Source\PSoC4/BLE_eventHandler.c ****                 default:        /* Other states should not be set in Auto discovery mode */
 593:.\Generated_Source\PSoC4/BLE_eventHandler.c ****                     break;
 594:.\Generated_Source\PSoC4/BLE_eventHandler.c ****             }
 595:.\Generated_Source\PSoC4/BLE_eventHandler.c ****             cyBle_eventHandlerFlag &= (uint8)~CYBLE_AUTO_DISCOVERY;
 596:.\Generated_Source\PSoC4/BLE_eventHandler.c ****             CyBle_SetClientState(CYBLE_CLIENT_STATE_CONNECTED);
 597:.\Generated_Source\PSoC4/BLE_eventHandler.c ****         }
 598:.\Generated_Source\PSoC4/BLE_eventHandler.c ****     #endif /* CYBLE_GATT_ROLE_CLIENT */
 599:.\Generated_Source\PSoC4/BLE_eventHandler.c ****     #ifdef CYBLE_CPS_SERVER
 600:.\Generated_Source\PSoC4/BLE_eventHandler.c ****         CyBle_CpssTimeOutEventHandler();
 601:.\Generated_Source\PSoC4/BLE_eventHandler.c ****     #endif /* CYBLE_CPS_SERVER */
 602:.\Generated_Source\PSoC4/BLE_eventHandler.c ****     }
 603:.\Generated_Source\PSoC4/BLE_eventHandler.c ****     
 604:.\Generated_Source\PSoC4/BLE_eventHandler.c ****     /* Connection procedure timeout */
 605:.\Generated_Source\PSoC4/BLE_eventHandler.c ****     if(*eventParam == CYBLE_GENERIC_TO)
 606:.\Generated_Source\PSoC4/BLE_eventHandler.c ****     {
 607:.\Generated_Source\PSoC4/BLE_eventHandler.c ****     #if(CYBLE_GAP_ROLE_CENTRAL)
 608:.\Generated_Source\PSoC4/BLE_eventHandler.c ****         if(CYBLE_STATE_CONNECTING == CyBle_GetState())
 609:.\Generated_Source\PSoC4/BLE_eventHandler.c ****         {
 610:.\Generated_Source\PSoC4/BLE_eventHandler.c ****             (void)CyBle_GapcCancelDeviceConnection();
 611:.\Generated_Source\PSoC4/BLE_eventHandler.c ****         }
 612:.\Generated_Source\PSoC4/BLE_eventHandler.c ****     #endif /* CYBLE_GAP_ROLE_CENTRAL */
 613:.\Generated_Source\PSoC4/BLE_eventHandler.c ****     }
 614:.\Generated_Source\PSoC4/BLE_eventHandler.c **** }
 241              		.loc 1 614 0
ARM GAS  C:\Users\Lonnie\AppData\Local\Temp\ccJOwa1B.s 			page 16


 242 0008 BD46     		mov	sp, r7
 243 000a 02B0     		add	sp, sp, #8
 244              		@ sp needed
 245 000c 80BD     		pop	{r7, pc}
 246              		.cfi_endproc
 247              	.LFE5:
 248              		.size	CyBle_TimeOutEventHandler, .-CyBle_TimeOutEventHandler
 249              		.section	.text.CyBle_GattConnectReqHandler,"ax",%progbits
 250              		.align	2
 251              		.code	16
 252              		.thumb_func
 253              		.type	CyBle_GattConnectReqHandler, %function
 254              	CyBle_GattConnectReqHandler:
 255              	.LFB6:
 615:.\Generated_Source\PSoC4/BLE_eventHandler.c **** 
 616:.\Generated_Source\PSoC4/BLE_eventHandler.c **** 
 617:.\Generated_Source\PSoC4/BLE_eventHandler.c **** /****************************************************************************** 
 618:.\Generated_Source\PSoC4/BLE_eventHandler.c **** ##Function Name: CyBle_GattConnectReqHandler
 619:.\Generated_Source\PSoC4/BLE_eventHandler.c **** *******************************************************************************
 620:.\Generated_Source\PSoC4/BLE_eventHandler.c **** 
 621:.\Generated_Source\PSoC4/BLE_eventHandler.c **** Summary:
 622:.\Generated_Source\PSoC4/BLE_eventHandler.c ****  Handles the GATT connect event from the BLE stack.
 623:.\Generated_Source\PSoC4/BLE_eventHandler.c **** 
 624:.\Generated_Source\PSoC4/BLE_eventHandler.c **** Parameters:
 625:.\Generated_Source\PSoC4/BLE_eventHandler.c ****  None
 626:.\Generated_Source\PSoC4/BLE_eventHandler.c **** 
 627:.\Generated_Source\PSoC4/BLE_eventHandler.c **** Return:
 628:.\Generated_Source\PSoC4/BLE_eventHandler.c ****  None
 629:.\Generated_Source\PSoC4/BLE_eventHandler.c **** 
 630:.\Generated_Source\PSoC4/BLE_eventHandler.c **** ******************************************************************************/
 631:.\Generated_Source\PSoC4/BLE_eventHandler.c **** static void CyBle_GattConnectReqHandler(void)
 632:.\Generated_Source\PSoC4/BLE_eventHandler.c **** {
 256              		.loc 1 632 0
 257              		.cfi_startproc
 258 0000 80B5     		push	{r7, lr}
 259              		.cfi_def_cfa_offset 8
 260              		.cfi_offset 7, -8
 261              		.cfi_offset 14, -4
 262 0002 00AF     		add	r7, sp, #0
 263              		.cfi_def_cfa_register 7
 633:.\Generated_Source\PSoC4/BLE_eventHandler.c ****     #ifdef CYBLE_CPS_SERVER
 634:.\Generated_Source\PSoC4/BLE_eventHandler.c ****         CyBle_CpssConnectEventHandler();
 635:.\Generated_Source\PSoC4/BLE_eventHandler.c ****     #endif /* CYBLE_CPS_SERVER */
 636:.\Generated_Source\PSoC4/BLE_eventHandler.c ****     
 637:.\Generated_Source\PSoC4/BLE_eventHandler.c ****     #ifdef CYBLE_CSCS_SERVER
 638:.\Generated_Source\PSoC4/BLE_eventHandler.c ****             CyBle_CscsInit();
 639:.\Generated_Source\PSoC4/BLE_eventHandler.c ****     #endif /* CYBLE_CSCS_SERVER */
 640:.\Generated_Source\PSoC4/BLE_eventHandler.c ****     
 641:.\Generated_Source\PSoC4/BLE_eventHandler.c ****     #ifdef CYBLE_LLS_SERVER
 642:.\Generated_Source\PSoC4/BLE_eventHandler.c ****         CyBle_LlssConnectEventHandler();
 643:.\Generated_Source\PSoC4/BLE_eventHandler.c ****     #endif /* CYBLE_LLS_SERVER */
 644:.\Generated_Source\PSoC4/BLE_eventHandler.c ****     
 645:.\Generated_Source\PSoC4/BLE_eventHandler.c ****     #ifdef CYBLE_HIDS_SERVER
 646:.\Generated_Source\PSoC4/BLE_eventHandler.c ****         CyBle_HidssOnDeviceConnected();
 647:.\Generated_Source\PSoC4/BLE_eventHandler.c ****     #endif /* CYBLE_HIDS_SERVER */
 648:.\Generated_Source\PSoC4/BLE_eventHandler.c **** 
 649:.\Generated_Source\PSoC4/BLE_eventHandler.c ****     #ifdef CYBLE_RSCS_SERVER
ARM GAS  C:\Users\Lonnie\AppData\Local\Temp\ccJOwa1B.s 			page 17


 650:.\Generated_Source\PSoC4/BLE_eventHandler.c ****             CyBle_RscsInit();
 651:.\Generated_Source\PSoC4/BLE_eventHandler.c ****     #endif /* CYBLE_RSCS_SERVER */
 652:.\Generated_Source\PSoC4/BLE_eventHandler.c **** }
 264              		.loc 1 652 0
 265 0004 BD46     		mov	sp, r7
 266              		@ sp needed
 267 0006 80BD     		pop	{r7, pc}
 268              		.cfi_endproc
 269              	.LFE6:
 270              		.size	CyBle_GattConnectReqHandler, .-CyBle_GattConnectReqHandler
 271              		.section	.text.CyBle_IsDeviceAddressValid,"ax",%progbits
 272              		.align	2
 273              		.code	16
 274              		.thumb_func
 275              		.type	CyBle_IsDeviceAddressValid, %function
 276              	CyBle_IsDeviceAddressValid:
 277              	.LFB7:
 653:.\Generated_Source\PSoC4/BLE_eventHandler.c **** 
 654:.\Generated_Source\PSoC4/BLE_eventHandler.c **** 
 655:.\Generated_Source\PSoC4/BLE_eventHandler.c **** #if (CYBLE_GATT_ROLE_SERVER || CYBLE_GATT_ROLE_CLIENT)
 656:.\Generated_Source\PSoC4/BLE_eventHandler.c **** 
 657:.\Generated_Source\PSoC4/BLE_eventHandler.c **** /****************************************************************************** 
 658:.\Generated_Source\PSoC4/BLE_eventHandler.c **** ##Function Name: CyBle_IsDeviceAddressValid
 659:.\Generated_Source\PSoC4/BLE_eventHandler.c **** *******************************************************************************
 660:.\Generated_Source\PSoC4/BLE_eventHandler.c **** 
 661:.\Generated_Source\PSoC4/BLE_eventHandler.c **** Summary:
 662:.\Generated_Source\PSoC4/BLE_eventHandler.c ****  This function verifies that BLE public address has been programmed to SFLASH 
 663:.\Generated_Source\PSoC4/BLE_eventHandler.c ****  during manufacture.
 664:.\Generated_Source\PSoC4/BLE_eventHandler.c **** 
 665:.\Generated_Source\PSoC4/BLE_eventHandler.c **** Parameters:
 666:.\Generated_Source\PSoC4/BLE_eventHandler.c ****  CYBLE_GAP_BD_ADDR_T *sflashDeviceAddress: the pointer to the BD address of 
 667:.\Generated_Source\PSoC4/BLE_eventHandler.c ****                                            type CYBLE_GAP_BD_ADDR_T. 
 668:.\Generated_Source\PSoC4/BLE_eventHandler.c **** 
 669:.\Generated_Source\PSoC4/BLE_eventHandler.c **** Return:
 670:.\Generated_Source\PSoC4/BLE_eventHandler.c ****  Non zero value when a device address differs from the default SFLASH content.
 671:.\Generated_Source\PSoC4/BLE_eventHandler.c **** 
 672:.\Generated_Source\PSoC4/BLE_eventHandler.c **** ******************************************************************************/
 673:.\Generated_Source\PSoC4/BLE_eventHandler.c **** static uint8 CyBle_IsDeviceAddressValid(const CYBLE_GAP_BD_ADDR_T *sflashDeviceAddress)
 674:.\Generated_Source\PSoC4/BLE_eventHandler.c **** {
 278              		.loc 1 674 0
 279              		.cfi_startproc
 280 0000 80B5     		push	{r7, lr}
 281              		.cfi_def_cfa_offset 8
 282              		.cfi_offset 7, -8
 283              		.cfi_offset 14, -4
 284 0002 84B0     		sub	sp, sp, #16
 285              		.cfi_def_cfa_offset 24
 286 0004 00AF     		add	r7, sp, #0
 287              		.cfi_def_cfa_register 7
 288 0006 7860     		str	r0, [r7, #4]
 675:.\Generated_Source\PSoC4/BLE_eventHandler.c ****     uint8 i;
 676:.\Generated_Source\PSoC4/BLE_eventHandler.c ****     uint8 sflashAddressValid = 0u;
 289              		.loc 1 676 0
 290 0008 0E23     		mov	r3, #14
 291 000a FB18     		add	r3, r7, r3
 292 000c 0022     		mov	r2, #0
 293 000e 1A70     		strb	r2, [r3]
ARM GAS  C:\Users\Lonnie\AppData\Local\Temp\ccJOwa1B.s 			page 18


 677:.\Generated_Source\PSoC4/BLE_eventHandler.c ****     
 678:.\Generated_Source\PSoC4/BLE_eventHandler.c ****     if(sflashDeviceAddress -> type == CYBLE_GAP_ADDR_TYPE_PUBLIC)  
 294              		.loc 1 678 0
 295 0010 7B68     		ldr	r3, [r7, #4]
 296 0012 9B79     		ldrb	r3, [r3, #6]
 297 0014 002B     		cmp	r3, #0
 298 0016 1CD1     		bne	.L17
 679:.\Generated_Source\PSoC4/BLE_eventHandler.c ****     {
 680:.\Generated_Source\PSoC4/BLE_eventHandler.c ****         for(i = 0u; i < CYBLE_GAP_BD_ADDR_SIZE; i++)
 299              		.loc 1 680 0
 300 0018 0F23     		mov	r3, #15
 301 001a FB18     		add	r3, r7, r3
 302 001c 0022     		mov	r2, #0
 303 001e 1A70     		strb	r2, [r3]
 304 0020 12E0     		b	.L18
 305              	.L20:
 681:.\Generated_Source\PSoC4/BLE_eventHandler.c ****         {
 682:.\Generated_Source\PSoC4/BLE_eventHandler.c ****             if(sflashDeviceAddress->bdAddr[i] != 0u)
 306              		.loc 1 682 0
 307 0022 0F23     		mov	r3, #15
 308 0024 FB18     		add	r3, r7, r3
 309 0026 1B78     		ldrb	r3, [r3]
 310 0028 7A68     		ldr	r2, [r7, #4]
 311 002a D35C     		ldrb	r3, [r2, r3]
 312 002c 002B     		cmp	r3, #0
 313 002e 04D0     		beq	.L19
 683:.\Generated_Source\PSoC4/BLE_eventHandler.c ****             {
 684:.\Generated_Source\PSoC4/BLE_eventHandler.c ****                 sflashAddressValid = 1u;
 314              		.loc 1 684 0
 315 0030 0E23     		mov	r3, #14
 316 0032 FB18     		add	r3, r7, r3
 317 0034 0122     		mov	r2, #1
 318 0036 1A70     		strb	r2, [r3]
 685:.\Generated_Source\PSoC4/BLE_eventHandler.c ****                 break;
 319              		.loc 1 685 0
 320 0038 0BE0     		b	.L17
 321              	.L19:
 680:.\Generated_Source\PSoC4/BLE_eventHandler.c ****         {
 322              		.loc 1 680 0 discriminator 2
 323 003a 0F23     		mov	r3, #15
 324 003c FB18     		add	r3, r7, r3
 325 003e 1A78     		ldrb	r2, [r3]
 326 0040 0F23     		mov	r3, #15
 327 0042 FB18     		add	r3, r7, r3
 328 0044 0132     		add	r2, r2, #1
 329 0046 1A70     		strb	r2, [r3]
 330              	.L18:
 680:.\Generated_Source\PSoC4/BLE_eventHandler.c ****         {
 331              		.loc 1 680 0 is_stmt 0 discriminator 1
 332 0048 0F23     		mov	r3, #15
 333 004a FB18     		add	r3, r7, r3
 334 004c 1B78     		ldrb	r3, [r3]
 335 004e 052B     		cmp	r3, #5
 336 0050 E7D9     		bls	.L20
 337              	.L17:
 686:.\Generated_Source\PSoC4/BLE_eventHandler.c ****             }
 687:.\Generated_Source\PSoC4/BLE_eventHandler.c ****         }
ARM GAS  C:\Users\Lonnie\AppData\Local\Temp\ccJOwa1B.s 			page 19


 688:.\Generated_Source\PSoC4/BLE_eventHandler.c ****     }
 689:.\Generated_Source\PSoC4/BLE_eventHandler.c ****     return (sflashAddressValid);
 338              		.loc 1 689 0 is_stmt 1
 339 0052 0E23     		mov	r3, #14
 340 0054 FB18     		add	r3, r7, r3
 341 0056 1B78     		ldrb	r3, [r3]
 690:.\Generated_Source\PSoC4/BLE_eventHandler.c **** }
 342              		.loc 1 690 0
 343 0058 181C     		mov	r0, r3
 344 005a BD46     		mov	sp, r7
 345 005c 04B0     		add	sp, sp, #16
 346              		@ sp needed
 347 005e 80BD     		pop	{r7, pc}
 348              		.cfi_endproc
 349              	.LFE7:
 350              		.size	CyBle_IsDeviceAddressValid, .-CyBle_IsDeviceAddressValid
 351              		.section	.text.CyBle_L2Cap_ConnParamUpdateRspEventHandler,"ax",%progbits
 352              		.align	2
 353              		.code	16
 354              		.thumb_func
 355              		.type	CyBle_L2Cap_ConnParamUpdateRspEventHandler, %function
 356              	CyBle_L2Cap_ConnParamUpdateRspEventHandler:
 357              	.LFB8:
 691:.\Generated_Source\PSoC4/BLE_eventHandler.c **** #endif /* (CYBLE_GATT_ROLE_SERVER || CYBLE_GATT_ROLE_CLIENT) */
 692:.\Generated_Source\PSoC4/BLE_eventHandler.c **** 
 693:.\Generated_Source\PSoC4/BLE_eventHandler.c **** 
 694:.\Generated_Source\PSoC4/BLE_eventHandler.c **** /****************************************************************************** 
 695:.\Generated_Source\PSoC4/BLE_eventHandler.c **** ##Function Name: CyBle_L2Cap_ConnParamUpdateRspHandler
 696:.\Generated_Source\PSoC4/BLE_eventHandler.c **** *******************************************************************************
 697:.\Generated_Source\PSoC4/BLE_eventHandler.c **** 
 698:.\Generated_Source\PSoC4/BLE_eventHandler.c **** Summary:
 699:.\Generated_Source\PSoC4/BLE_eventHandler.c ****  Handles the L2CAP connection parameter response event from
 700:.\Generated_Source\PSoC4/BLE_eventHandler.c ****  the BLE stack.
 701:.\Generated_Source\PSoC4/BLE_eventHandler.c **** 
 702:.\Generated_Source\PSoC4/BLE_eventHandler.c **** Parameters:
 703:.\Generated_Source\PSoC4/BLE_eventHandler.c ****  uint16 response:
 704:.\Generated_Source\PSoC4/BLE_eventHandler.c ****      * Accepted = 0x0000
 705:.\Generated_Source\PSoC4/BLE_eventHandler.c ****      * Rejected = 0x0001
 706:.\Generated_Source\PSoC4/BLE_eventHandler.c **** 
 707:.\Generated_Source\PSoC4/BLE_eventHandler.c **** Return:
 708:.\Generated_Source\PSoC4/BLE_eventHandler.c ****  None
 709:.\Generated_Source\PSoC4/BLE_eventHandler.c **** 
 710:.\Generated_Source\PSoC4/BLE_eventHandler.c **** ******************************************************************************/
 711:.\Generated_Source\PSoC4/BLE_eventHandler.c **** static void CyBle_L2Cap_ConnParamUpdateRspEventHandler(uint16 response)
 712:.\Generated_Source\PSoC4/BLE_eventHandler.c **** {
 358              		.loc 1 712 0
 359              		.cfi_startproc
 360 0000 80B5     		push	{r7, lr}
 361              		.cfi_def_cfa_offset 8
 362              		.cfi_offset 7, -8
 363              		.cfi_offset 14, -4
 364 0002 82B0     		sub	sp, sp, #8
 365              		.cfi_def_cfa_offset 16
 366 0004 00AF     		add	r7, sp, #0
 367              		.cfi_def_cfa_register 7
 368 0006 021C     		mov	r2, r0
 369 0008 BB1D     		add	r3, r7, #6
ARM GAS  C:\Users\Lonnie\AppData\Local\Temp\ccJOwa1B.s 			page 20


 370 000a 1A80     		strh	r2, [r3]
 713:.\Generated_Source\PSoC4/BLE_eventHandler.c ****     #ifdef CYBLE_CPS_SERVER
 714:.\Generated_Source\PSoC4/BLE_eventHandler.c ****         CyBle_CpssConnParamUpdateRspEventHandler(response);
 715:.\Generated_Source\PSoC4/BLE_eventHandler.c ****     #endif /* CYBLE_CPS_SERVER */
 716:.\Generated_Source\PSoC4/BLE_eventHandler.c ****     
 717:.\Generated_Source\PSoC4/BLE_eventHandler.c ****     /* Unreferenced variable warning workaround */
 718:.\Generated_Source\PSoC4/BLE_eventHandler.c ****     if(response != 0u)
 719:.\Generated_Source\PSoC4/BLE_eventHandler.c ****     {
 720:.\Generated_Source\PSoC4/BLE_eventHandler.c ****     }
 721:.\Generated_Source\PSoC4/BLE_eventHandler.c **** }
 371              		.loc 1 721 0
 372 000c BD46     		mov	sp, r7
 373 000e 02B0     		add	sp, sp, #8
 374              		@ sp needed
 375 0010 80BD     		pop	{r7, pc}
 376              		.cfi_endproc
 377              	.LFE8:
 378              		.size	CyBle_L2Cap_ConnParamUpdateRspEventHandler, .-CyBle_L2Cap_ConnParamUpdateRspEventHandler
 379 0012 C046     		.section	.text.CyBle_GapConnUpdateCompleteEventHandler,"ax",%progbits
 380              		.align	2
 381              		.code	16
 382              		.thumb_func
 383              		.type	CyBle_GapConnUpdateCompleteEventHandler, %function
 384              	CyBle_GapConnUpdateCompleteEventHandler:
 385              	.LFB9:
 722:.\Generated_Source\PSoC4/BLE_eventHandler.c **** 
 723:.\Generated_Source\PSoC4/BLE_eventHandler.c **** 
 724:.\Generated_Source\PSoC4/BLE_eventHandler.c **** /****************************************************************************** 
 725:.\Generated_Source\PSoC4/BLE_eventHandler.c **** ##Function Name: CyBle_GapConnUpdateCompleteEventHandler
 726:.\Generated_Source\PSoC4/BLE_eventHandler.c **** *******************************************************************************
 727:.\Generated_Source\PSoC4/BLE_eventHandler.c **** 
 728:.\Generated_Source\PSoC4/BLE_eventHandler.c **** Summary:
 729:.\Generated_Source\PSoC4/BLE_eventHandler.c ****  Handles the CYBLE_EVT_GAP_CONNECTION_UPDATE_COMPLETE event from
 730:.\Generated_Source\PSoC4/BLE_eventHandler.c ****  the BLE stack.
 731:.\Generated_Source\PSoC4/BLE_eventHandler.c **** 
 732:.\Generated_Source\PSoC4/BLE_eventHandler.c **** Parameters:
 733:.\Generated_Source\PSoC4/BLE_eventHandler.c ****  *eventParam: The pointer to the data structure specified by the event.
 734:.\Generated_Source\PSoC4/BLE_eventHandler.c **** 
 735:.\Generated_Source\PSoC4/BLE_eventHandler.c **** Return:
 736:.\Generated_Source\PSoC4/BLE_eventHandler.c ****  None
 737:.\Generated_Source\PSoC4/BLE_eventHandler.c **** 
 738:.\Generated_Source\PSoC4/BLE_eventHandler.c **** ******************************************************************************/
 739:.\Generated_Source\PSoC4/BLE_eventHandler.c **** static void CyBle_GapConnUpdateCompleteEventHandler(const CYBLE_GAP_CONN_PARAM_UPDATED_IN_CONTROLLE
 740:.\Generated_Source\PSoC4/BLE_eventHandler.c **** {
 386              		.loc 1 740 0
 387              		.cfi_startproc
 388 0000 80B5     		push	{r7, lr}
 389              		.cfi_def_cfa_offset 8
 390              		.cfi_offset 7, -8
 391              		.cfi_offset 14, -4
 392 0002 82B0     		sub	sp, sp, #8
 393              		.cfi_def_cfa_offset 16
 394 0004 00AF     		add	r7, sp, #0
 395              		.cfi_def_cfa_register 7
 396 0006 7860     		str	r0, [r7, #4]
 741:.\Generated_Source\PSoC4/BLE_eventHandler.c ****     #ifdef CYBLE_CPS_SERVER
 742:.\Generated_Source\PSoC4/BLE_eventHandler.c ****         CyBle_CpssConnUpdateCompleteEventHandler(eventParam);
ARM GAS  C:\Users\Lonnie\AppData\Local\Temp\ccJOwa1B.s 			page 21


 743:.\Generated_Source\PSoC4/BLE_eventHandler.c ****     #endif /* CYBLE_CPS_SERVER */
 744:.\Generated_Source\PSoC4/BLE_eventHandler.c ****     
 745:.\Generated_Source\PSoC4/BLE_eventHandler.c ****     /* Unreferenced variable warning workaround */
 746:.\Generated_Source\PSoC4/BLE_eventHandler.c ****     if(eventParam != 0u)
 747:.\Generated_Source\PSoC4/BLE_eventHandler.c ****     {
 748:.\Generated_Source\PSoC4/BLE_eventHandler.c ****     }
 749:.\Generated_Source\PSoC4/BLE_eventHandler.c **** }
 397              		.loc 1 749 0
 398 0008 BD46     		mov	sp, r7
 399 000a 02B0     		add	sp, sp, #8
 400              		@ sp needed
 401 000c 80BD     		pop	{r7, pc}
 402              		.cfi_endproc
 403              	.LFE9:
 404              		.size	CyBle_GapConnUpdateCompleteEventHandler, .-CyBle_GapConnUpdateCompleteEventHandler
 405              		.section	.text.CyBle_EventHandler,"ax",%progbits
 406              		.align	2
 407              		.global	CyBle_EventHandler
 408              		.code	16
 409              		.thumb_func
 410              		.type	CyBle_EventHandler, %function
 411              	CyBle_EventHandler:
 412              	.LFB10:
 750:.\Generated_Source\PSoC4/BLE_eventHandler.c **** 
 751:.\Generated_Source\PSoC4/BLE_eventHandler.c **** 
 752:.\Generated_Source\PSoC4/BLE_eventHandler.c **** /****************************************************************************** 
 753:.\Generated_Source\PSoC4/BLE_eventHandler.c **** ##Function Name: CyBle_EventHandler
 754:.\Generated_Source\PSoC4/BLE_eventHandler.c **** *******************************************************************************
 755:.\Generated_Source\PSoC4/BLE_eventHandler.c **** 
 756:.\Generated_Source\PSoC4/BLE_eventHandler.c **** Summary:
 757:.\Generated_Source\PSoC4/BLE_eventHandler.c ****  Handles the events from the BLE stack
 758:.\Generated_Source\PSoC4/BLE_eventHandler.c **** 
 759:.\Generated_Source\PSoC4/BLE_eventHandler.c **** Parameters:
 760:.\Generated_Source\PSoC4/BLE_eventHandler.c ****  eventCode:    the event code
 761:.\Generated_Source\PSoC4/BLE_eventHandler.c ****  *eventParam:  the event parameters
 762:.\Generated_Source\PSoC4/BLE_eventHandler.c **** 
 763:.\Generated_Source\PSoC4/BLE_eventHandler.c **** Return:
 764:.\Generated_Source\PSoC4/BLE_eventHandler.c ****  None.
 765:.\Generated_Source\PSoC4/BLE_eventHandler.c **** 
 766:.\Generated_Source\PSoC4/BLE_eventHandler.c **** ******************************************************************************/
 767:.\Generated_Source\PSoC4/BLE_eventHandler.c **** void CyBle_EventHandler(uint8 eventCode, void *eventParam)
 768:.\Generated_Source\PSoC4/BLE_eventHandler.c **** {
 413              		.loc 1 768 0
 414              		.cfi_startproc
 415 0000 80B5     		push	{r7, lr}
 416              		.cfi_def_cfa_offset 8
 417              		.cfi_offset 7, -8
 418              		.cfi_offset 14, -4
 419 0002 84B0     		sub	sp, sp, #16
 420              		.cfi_def_cfa_offset 24
 421 0004 00AF     		add	r7, sp, #0
 422              		.cfi_def_cfa_register 7
 423 0006 021C     		mov	r2, r0
 424 0008 3960     		str	r1, [r7]
 425 000a FB1D     		add	r3, r7, #7
 426 000c 1A70     		strb	r2, [r3]
 769:.\Generated_Source\PSoC4/BLE_eventHandler.c ****     cyBle_eventHandlerFlag |= CYBLE_CALLBACK;
ARM GAS  C:\Users\Lonnie\AppData\Local\Temp\ccJOwa1B.s 			page 22


 427              		.loc 1 769 0
 428 000e B14B     		ldr	r3, .L58
 429 0010 1B78     		ldrb	r3, [r3]
 430 0012 DBB2     		uxtb	r3, r3
 431 0014 0122     		mov	r2, #1
 432 0016 1343     		orr	r3, r2
 433 0018 DAB2     		uxtb	r2, r3
 434 001a AE4B     		ldr	r3, .L58
 435 001c 1A70     		strb	r2, [r3]
 770:.\Generated_Source\PSoC4/BLE_eventHandler.c **** 
 771:.\Generated_Source\PSoC4/BLE_eventHandler.c ****     /* Common Profile event handling */
 772:.\Generated_Source\PSoC4/BLE_eventHandler.c ****     switch(eventCode)
 436              		.loc 1 772 0
 437 001e FB1D     		add	r3, r7, #7
 438 0020 1B78     		ldrb	r3, [r3]
 439 0022 2A2B     		cmp	r3, #42
 440 0024 00D1     		bne	.LCB368
 441 0026 8FE0     		b	.L26	@long jump
 442              	.LCB368:
 443 0028 16DC     		bgt	.L27
 444 002a 212B     		cmp	r3, #33
 445 002c 00D1     		bne	.LCB372
 446 002e 74E0     		b	.L28	@long jump
 447              	.LCB372:
 448 0030 08DC     		bgt	.L29
 449 0032 022B     		cmp	r3, #2
 450 0034 00D1     		bne	.LCB376
 451 0036 66E0     		b	.L30	@long jump
 452              	.LCB376:
 453 0038 052B     		cmp	r3, #5
 454 003a 00D1     		bne	.LCB378
 455 003c 68E0     		b	.L31	@long jump
 456              	.LCB378:
 457 003e 012B     		cmp	r3, #1
 458 0040 27D0     		beq	.L32
 773:.\Generated_Source\PSoC4/BLE_eventHandler.c ****     {
 774:.\Generated_Source\PSoC4/BLE_eventHandler.c ****         /**********************************************************
 775:.\Generated_Source\PSoC4/BLE_eventHandler.c ****         ##General events
 776:.\Generated_Source\PSoC4/BLE_eventHandler.c ****         ***********************************************************/
 777:.\Generated_Source\PSoC4/BLE_eventHandler.c ****         case CYBLE_EVT_STACK_ON:
 778:.\Generated_Source\PSoC4/BLE_eventHandler.c ****         #if(CYBLE_MODE_PROFILE)
 779:.\Generated_Source\PSoC4/BLE_eventHandler.c ****         {
 780:.\Generated_Source\PSoC4/BLE_eventHandler.c ****             CYBLE_BLESS_PWR_IN_DB_T bleSsPowerLevel;
 781:.\Generated_Source\PSoC4/BLE_eventHandler.c ****             
 782:.\Generated_Source\PSoC4/BLE_eventHandler.c ****             /* Set Tx Power Level for advertising and connection channels */
 783:.\Generated_Source\PSoC4/BLE_eventHandler.c ****             bleSsPowerLevel.blePwrLevelInDbm = CYBLE_TX_POWER_LEVEL;
 784:.\Generated_Source\PSoC4/BLE_eventHandler.c ****             bleSsPowerLevel.bleSsChId = CYBLE_LL_ADV_CH_TYPE;
 785:.\Generated_Source\PSoC4/BLE_eventHandler.c ****             (void) CyBle_SetTxPowerLevel (&bleSsPowerLevel);
 786:.\Generated_Source\PSoC4/BLE_eventHandler.c ****             bleSsPowerLevel.bleSsChId = CYBLE_LL_CONN_CH_TYPE;
 787:.\Generated_Source\PSoC4/BLE_eventHandler.c ****             (void) CyBle_SetTxPowerLevel (&bleSsPowerLevel);
 788:.\Generated_Source\PSoC4/BLE_eventHandler.c ****         }
 789:.\Generated_Source\PSoC4/BLE_eventHandler.c ****         #endif /* CYBLE_MODE_PROFILE */
 790:.\Generated_Source\PSoC4/BLE_eventHandler.c ****         #if (CYBLE_GATT_ROLE_SERVER || CYBLE_GATT_ROLE_CLIENT)
 791:.\Generated_Source\PSoC4/BLE_eventHandler.c ****             /* Set device Address  */
 792:.\Generated_Source\PSoC4/BLE_eventHandler.c ****             if(CyBle_IsDeviceAddressValid(cyBle_sflashDeviceAddress) != 0u)
 793:.\Generated_Source\PSoC4/BLE_eventHandler.c ****             {
 794:.\Generated_Source\PSoC4/BLE_eventHandler.c ****                 (void) CyBle_SetDeviceAddress(cyBle_sflashDeviceAddress);
ARM GAS  C:\Users\Lonnie\AppData\Local\Temp\ccJOwa1B.s 			page 23


 795:.\Generated_Source\PSoC4/BLE_eventHandler.c ****             }
 796:.\Generated_Source\PSoC4/BLE_eventHandler.c ****             else
 797:.\Generated_Source\PSoC4/BLE_eventHandler.c ****             {
 798:.\Generated_Source\PSoC4/BLE_eventHandler.c ****             #if (SILICON_GENERATED_DEVICE_ADDRESS != 0u)
 799:.\Generated_Source\PSoC4/BLE_eventHandler.c ****                 cyBle_deviceAddress.bdAddr[0] = CYBLE_SFLASH_DIE_X_REG;
 800:.\Generated_Source\PSoC4/BLE_eventHandler.c ****                 cyBle_deviceAddress.bdAddr[1] = CYBLE_SFLASH_DIE_Y_REG;
 801:.\Generated_Source\PSoC4/BLE_eventHandler.c ****                 cyBle_deviceAddress.bdAddr[2] = CYBLE_SFLASH_DIE_WAFER_REG;
 802:.\Generated_Source\PSoC4/BLE_eventHandler.c ****             #endif /* SILICON_GENERATED_DEVICE_ADDRESS != 0u */
 803:.\Generated_Source\PSoC4/BLE_eventHandler.c ****                 (void) CyBle_SetDeviceAddress(&cyBle_deviceAddress);
 804:.\Generated_Source\PSoC4/BLE_eventHandler.c ****             }
 805:.\Generated_Source\PSoC4/BLE_eventHandler.c ****             /* Set device IO Capability  */
 806:.\Generated_Source\PSoC4/BLE_eventHandler.c ****             (void) CyBle_GapSetIoCap(CYBLE_IO_CAPABILITY);    
 807:.\Generated_Source\PSoC4/BLE_eventHandler.c ****         #endif /* CYBLE_GATT_ROLE_SERVER || CYBLE_GATT_ROLE_CLIENT */
 808:.\Generated_Source\PSoC4/BLE_eventHandler.c ****             CyBle_SetState(CYBLE_STATE_DISCONNECTED);
 809:.\Generated_Source\PSoC4/BLE_eventHandler.c ****             break;
 810:.\Generated_Source\PSoC4/BLE_eventHandler.c ****         case CYBLE_EVT_TIMEOUT:
 811:.\Generated_Source\PSoC4/BLE_eventHandler.c ****             CyBle_TimeOutEventHandler((CYBLE_TO_REASON_CODE_T *)eventParam);
 812:.\Generated_Source\PSoC4/BLE_eventHandler.c ****             break;
 813:.\Generated_Source\PSoC4/BLE_eventHandler.c ****     	case CYBLE_EVT_STACK_BUSY_STATUS:
 814:.\Generated_Source\PSoC4/BLE_eventHandler.c ****             cyBle_busStatus = *(uint8 *)eventParam;
 815:.\Generated_Source\PSoC4/BLE_eventHandler.c ****             break;
 816:.\Generated_Source\PSoC4/BLE_eventHandler.c **** 
 817:.\Generated_Source\PSoC4/BLE_eventHandler.c ****         /**********************************************************
 818:.\Generated_Source\PSoC4/BLE_eventHandler.c ****         ##GAP events
 819:.\Generated_Source\PSoC4/BLE_eventHandler.c ****         ***********************************************************/
 820:.\Generated_Source\PSoC4/BLE_eventHandler.c ****         case CYBLE_EVT_GAP_AUTH_REQ:
 821:.\Generated_Source\PSoC4/BLE_eventHandler.c ****         #if(CYBLE_MODE_PROFILE)
 822:.\Generated_Source\PSoC4/BLE_eventHandler.c ****             if(0u == (cyBle_eventHandlerFlag & CYBLE_DISABLE_AUTOMATIC_AUTH))
 823:.\Generated_Source\PSoC4/BLE_eventHandler.c ****             {
 824:.\Generated_Source\PSoC4/BLE_eventHandler.c ****                 /* If the responding device does not support pairing then the responding 
 825:.\Generated_Source\PSoC4/BLE_eventHandler.c ****                    device shall respond using the Pairing Failed message with the error 
 826:.\Generated_Source\PSoC4/BLE_eventHandler.c ****                    code "Pairing Not Supported" otherwise it responds with a Pairing 
 827:.\Generated_Source\PSoC4/BLE_eventHandler.c ****                    Response message.
 828:.\Generated_Source\PSoC4/BLE_eventHandler.c ****                 */
 829:.\Generated_Source\PSoC4/BLE_eventHandler.c ****                 if(cyBle_authInfo.security == (CYBLE_GAP_SEC_MODE_1 | CYBLE_GAP_SEC_LEVEL_1))
 830:.\Generated_Source\PSoC4/BLE_eventHandler.c ****                 {
 831:.\Generated_Source\PSoC4/BLE_eventHandler.c ****                     cyBle_authInfo.authErr = CYBLE_GAP_AUTH_ERROR_PAIRING_NOT_SUPPORTED;
 832:.\Generated_Source\PSoC4/BLE_eventHandler.c ****                 }    
 833:.\Generated_Source\PSoC4/BLE_eventHandler.c ****             #if(CYBLE_GAP_ROLE_PERIPHERAL)
 834:.\Generated_Source\PSoC4/BLE_eventHandler.c ****                 (void)CyBle_GappAuthReqReply(cyBle_connHandle.bdHandle, &cyBle_authInfo);
 835:.\Generated_Source\PSoC4/BLE_eventHandler.c ****             #endif /* CYBLE_GAP_ROLE_PERIPHERAL */
 836:.\Generated_Source\PSoC4/BLE_eventHandler.c ****             #if (CYBLE_GAP_ROLE_CENTRAL)
 837:.\Generated_Source\PSoC4/BLE_eventHandler.c ****                 (void)CyBle_GapAuthReq(cyBle_connHandle.bdHandle, &cyBle_authInfo);
 838:.\Generated_Source\PSoC4/BLE_eventHandler.c ****             #endif /* CYBLE_GAP_ROLE_CENTRAL */
 839:.\Generated_Source\PSoC4/BLE_eventHandler.c ****             }
 840:.\Generated_Source\PSoC4/BLE_eventHandler.c ****         #endif /* CYBLE_MODE_PROFILE */
 841:.\Generated_Source\PSoC4/BLE_eventHandler.c ****             break;
 842:.\Generated_Source\PSoC4/BLE_eventHandler.c **** 
 843:.\Generated_Source\PSoC4/BLE_eventHandler.c ****         case CYBLE_EVT_GAP_CONNECTION_UPDATE_COMPLETE:
 844:.\Generated_Source\PSoC4/BLE_eventHandler.c ****             CyBle_GapConnUpdateCompleteEventHandler((const CYBLE_GAP_CONN_PARAM_UPDATED_IN_CONTROLL
 845:.\Generated_Source\PSoC4/BLE_eventHandler.c ****             break;
 846:.\Generated_Source\PSoC4/BLE_eventHandler.c ****         case CYBLE_EVT_GAP_DEVICE_CONNECTED:
 847:.\Generated_Source\PSoC4/BLE_eventHandler.c ****             CyBle_GapConnUpdateCompleteEventHandler((const CYBLE_GAP_CONN_PARAM_UPDATED_IN_CONTROLL
 848:.\Generated_Source\PSoC4/BLE_eventHandler.c ****             #if(CYBLE_GAP_ROLE_CENTRAL)
 849:.\Generated_Source\PSoC4/BLE_eventHandler.c ****                 if(cyBle_connectingTimeout != 0u)
 850:.\Generated_Source\PSoC4/BLE_eventHandler.c ****                 {
 851:.\Generated_Source\PSoC4/BLE_eventHandler.c ****                    (void)CyBle_StopTimer();
ARM GAS  C:\Users\Lonnie\AppData\Local\Temp\ccJOwa1B.s 			page 24


 852:.\Generated_Source\PSoC4/BLE_eventHandler.c ****                 }
 853:.\Generated_Source\PSoC4/BLE_eventHandler.c ****             #endif /* CYBLE_GAP_ROLE_CENTRAL */
 854:.\Generated_Source\PSoC4/BLE_eventHandler.c ****             CyBle_SetState(CYBLE_STATE_CONNECTED);
 855:.\Generated_Source\PSoC4/BLE_eventHandler.c ****             break;
 856:.\Generated_Source\PSoC4/BLE_eventHandler.c **** 
 857:.\Generated_Source\PSoC4/BLE_eventHandler.c ****         case CYBLE_EVT_GAP_DEVICE_DISCONNECTED:
 858:.\Generated_Source\PSoC4/BLE_eventHandler.c ****             CyBle_SetState(CYBLE_STATE_DISCONNECTED);
 859:.\Generated_Source\PSoC4/BLE_eventHandler.c ****             break;
 860:.\Generated_Source\PSoC4/BLE_eventHandler.c ****             
 861:.\Generated_Source\PSoC4/BLE_eventHandler.c ****         #if(CYBLE_GAP_ROLE_PERIPHERAL || CYBLE_GAP_ROLE_BROADCASTER)
 862:.\Generated_Source\PSoC4/BLE_eventHandler.c ****         case CYBLE_EVT_GAPP_ADVERTISEMENT_START_STOP:
 863:.\Generated_Source\PSoC4/BLE_eventHandler.c ****             
 864:.\Generated_Source\PSoC4/BLE_eventHandler.c ****         #ifdef CYBLE_CPS_SERVER
 865:.\Generated_Source\PSoC4/BLE_eventHandler.c ****             #if(CYBLE_GAP_ROLE_BROADCASTER)
 866:.\Generated_Source\PSoC4/BLE_eventHandler.c ****                 CyBle_CpssAdvertisementStartStopEventHandler();
 867:.\Generated_Source\PSoC4/BLE_eventHandler.c ****             #endif /* CYBLE_GAP_ROLE_BROADCASTER */
 868:.\Generated_Source\PSoC4/BLE_eventHandler.c ****         #endif /* CYBLE_CPS_SERVER */
 869:.\Generated_Source\PSoC4/BLE_eventHandler.c ****             
 870:.\Generated_Source\PSoC4/BLE_eventHandler.c ****             if((CYBLE_STATE_CONNECTED != CyBle_GetState()) && ((cyBle_eventHandlerFlag & CYBLE_CALL
 871:.\Generated_Source\PSoC4/BLE_eventHandler.c ****             {
 872:.\Generated_Source\PSoC4/BLE_eventHandler.c ****                 /* After CyBle_GappStartAdvertisement first event indicates that advertising has be
 873:.\Generated_Source\PSoC4/BLE_eventHandler.c ****                 if(0u != (cyBle_eventHandlerFlag & CYBLE_START_FLAG))
 874:.\Generated_Source\PSoC4/BLE_eventHandler.c ****                 {
 875:.\Generated_Source\PSoC4/BLE_eventHandler.c ****                     CyBle_SetState(CYBLE_STATE_ADVERTISING);
 876:.\Generated_Source\PSoC4/BLE_eventHandler.c ****                     cyBle_eventHandlerFlag &= (uint8)~CYBLE_START_FLAG;
 877:.\Generated_Source\PSoC4/BLE_eventHandler.c ****                 }
 878:.\Generated_Source\PSoC4/BLE_eventHandler.c ****                 /* When application initiated stop advertisement */
 879:.\Generated_Source\PSoC4/BLE_eventHandler.c ****                 else if(0u != (cyBle_eventHandlerFlag & CYBLE_STOP_FLAG))
 880:.\Generated_Source\PSoC4/BLE_eventHandler.c ****                 {
 881:.\Generated_Source\PSoC4/BLE_eventHandler.c ****                     CyBle_SetState(CYBLE_STATE_DISCONNECTED);  
 882:.\Generated_Source\PSoC4/BLE_eventHandler.c ****                     cyBle_eventHandlerFlag &= (uint8)~CYBLE_STOP_FLAG;
 883:.\Generated_Source\PSoC4/BLE_eventHandler.c ****                 }
 884:.\Generated_Source\PSoC4/BLE_eventHandler.c ****                 else /* Following event indicates that advertising has been stopped */
 885:.\Generated_Source\PSoC4/BLE_eventHandler.c ****                 {
 886:.\Generated_Source\PSoC4/BLE_eventHandler.c ****                     if(CYBLE_STATE_ADVERTISING == CyBle_GetState())
 887:.\Generated_Source\PSoC4/BLE_eventHandler.c ****                     {
 888:.\Generated_Source\PSoC4/BLE_eventHandler.c ****                         CyBle_SetState(CYBLE_STATE_DISCONNECTED);
 889:.\Generated_Source\PSoC4/BLE_eventHandler.c ****                     #if (CYBLE_SLOW_ADV_ENABLED != 0u)
 890:.\Generated_Source\PSoC4/BLE_eventHandler.c ****                         if(cyBle_advertisingIntervalType == CYBLE_ADVERTISING_FAST)
 891:.\Generated_Source\PSoC4/BLE_eventHandler.c ****                         {
 892:.\Generated_Source\PSoC4/BLE_eventHandler.c ****                             /* When fast advertising time out occur: Start slow advertising */
 893:.\Generated_Source\PSoC4/BLE_eventHandler.c ****                             if(CYBLE_ERROR_OK == CyBle_GappStartAdvertisement(CYBLE_ADVERTISING_SLO
 894:.\Generated_Source\PSoC4/BLE_eventHandler.c ****                             {
 895:.\Generated_Source\PSoC4/BLE_eventHandler.c ****                                 CyBle_SetState(CYBLE_STATE_ADVERTISING);
 896:.\Generated_Source\PSoC4/BLE_eventHandler.c ****                             }
 897:.\Generated_Source\PSoC4/BLE_eventHandler.c ****                         }
 898:.\Generated_Source\PSoC4/BLE_eventHandler.c ****                     #endif /* CYBLE_SLOW_ADV_ENABLED */
 899:.\Generated_Source\PSoC4/BLE_eventHandler.c ****                     }
 900:.\Generated_Source\PSoC4/BLE_eventHandler.c ****                 }
 901:.\Generated_Source\PSoC4/BLE_eventHandler.c ****             }
 902:.\Generated_Source\PSoC4/BLE_eventHandler.c ****             break;
 903:.\Generated_Source\PSoC4/BLE_eventHandler.c ****         #endif /* CYBLE_GAP_ROLE_PERIPHERAL || CYBLE_GAP_ROLE_BROADCASTER */
 904:.\Generated_Source\PSoC4/BLE_eventHandler.c ****         
 905:.\Generated_Source\PSoC4/BLE_eventHandler.c ****         #if(CYBLE_GAP_ROLE_CENTRAL || CYBLE_GAP_ROLE_OBSERVER)    
 906:.\Generated_Source\PSoC4/BLE_eventHandler.c ****         case CYBLE_EVT_GAPC_SCAN_START_STOP:
 907:.\Generated_Source\PSoC4/BLE_eventHandler.c ****             
 908:.\Generated_Source\PSoC4/BLE_eventHandler.c ****         #ifdef CYBLE_CPS_CLIENT
ARM GAS  C:\Users\Lonnie\AppData\Local\Temp\ccJOwa1B.s 			page 25


 909:.\Generated_Source\PSoC4/BLE_eventHandler.c ****             CyBle_CpscScanStartStopEventHandler();
 910:.\Generated_Source\PSoC4/BLE_eventHandler.c ****         #endif /* CYBLE_CPS_CLIENT */
 911:.\Generated_Source\PSoC4/BLE_eventHandler.c ****             
 912:.\Generated_Source\PSoC4/BLE_eventHandler.c ****             if((CYBLE_STATE_CONNECTED != CyBle_GetState()) && ((cyBle_eventHandlerFlag & CYBLE_CALL
 913:.\Generated_Source\PSoC4/BLE_eventHandler.c ****             {
 914:.\Generated_Source\PSoC4/BLE_eventHandler.c ****                 /* After CyBle_GapcStartScan first event indicates that scanning has been started *
 915:.\Generated_Source\PSoC4/BLE_eventHandler.c ****                 if(0u != (cyBle_eventHandlerFlag & CYBLE_START_FLAG))
 916:.\Generated_Source\PSoC4/BLE_eventHandler.c ****                 {
 917:.\Generated_Source\PSoC4/BLE_eventHandler.c ****                     CyBle_SetState(CYBLE_STATE_SCANNING);
 918:.\Generated_Source\PSoC4/BLE_eventHandler.c ****                     cyBle_eventHandlerFlag &= (uint8)~CYBLE_START_FLAG;
 919:.\Generated_Source\PSoC4/BLE_eventHandler.c ****                 }
 920:.\Generated_Source\PSoC4/BLE_eventHandler.c ****                 /* When application initiated stop scanning */
 921:.\Generated_Source\PSoC4/BLE_eventHandler.c ****                 else if(0u != (cyBle_eventHandlerFlag & CYBLE_STOP_FLAG))
 922:.\Generated_Source\PSoC4/BLE_eventHandler.c ****                 {
 923:.\Generated_Source\PSoC4/BLE_eventHandler.c ****                     CyBle_SetState(CYBLE_STATE_DISCONNECTED);  
 924:.\Generated_Source\PSoC4/BLE_eventHandler.c ****                     cyBle_eventHandlerFlag &= (uint8)~CYBLE_STOP_FLAG;
 925:.\Generated_Source\PSoC4/BLE_eventHandler.c ****                 }
 926:.\Generated_Source\PSoC4/BLE_eventHandler.c ****                 else /* Following event indicates that scanning has been stopped by stack */
 927:.\Generated_Source\PSoC4/BLE_eventHandler.c ****                 {
 928:.\Generated_Source\PSoC4/BLE_eventHandler.c ****                     if(CYBLE_STATE_SCANNING == CyBle_GetState())
 929:.\Generated_Source\PSoC4/BLE_eventHandler.c ****                     {
 930:.\Generated_Source\PSoC4/BLE_eventHandler.c ****                         CyBle_SetState(CYBLE_STATE_DISCONNECTED);  
 931:.\Generated_Source\PSoC4/BLE_eventHandler.c ****                     #if (CYBLE_SLOW_SCAN_ENABLED != 0u)
 932:.\Generated_Source\PSoC4/BLE_eventHandler.c ****                         if(cyBle_scanningIntervalType == CYBLE_SCANNING_FAST)
 933:.\Generated_Source\PSoC4/BLE_eventHandler.c ****                         {
 934:.\Generated_Source\PSoC4/BLE_eventHandler.c ****                             /* When fast scanning time out occur: Start slow scanning */
 935:.\Generated_Source\PSoC4/BLE_eventHandler.c ****                             if(CYBLE_ERROR_OK == CyBle_GapcStartScan(CYBLE_SCANNING_SLOW))
 936:.\Generated_Source\PSoC4/BLE_eventHandler.c ****                             {
 937:.\Generated_Source\PSoC4/BLE_eventHandler.c ****                                 CyBle_SetState(CYBLE_STATE_SCANNING);
 938:.\Generated_Source\PSoC4/BLE_eventHandler.c ****                             }
 939:.\Generated_Source\PSoC4/BLE_eventHandler.c ****                         }
 940:.\Generated_Source\PSoC4/BLE_eventHandler.c ****                     #endif /* CYBLE_SLOW_ADV_ENABLED */
 941:.\Generated_Source\PSoC4/BLE_eventHandler.c ****                     }
 942:.\Generated_Source\PSoC4/BLE_eventHandler.c ****                 }
 943:.\Generated_Source\PSoC4/BLE_eventHandler.c ****             }
 944:.\Generated_Source\PSoC4/BLE_eventHandler.c ****             break;
 945:.\Generated_Source\PSoC4/BLE_eventHandler.c ****         #endif /* CYBLE_GAP_ROLE_CENTRAL || CYBLE_GAP_ROLE_OBSERVER */
 946:.\Generated_Source\PSoC4/BLE_eventHandler.c **** 
 947:.\Generated_Source\PSoC4/BLE_eventHandler.c ****         /**********************************************************
 948:.\Generated_Source\PSoC4/BLE_eventHandler.c ****         ##L2AP events 
 949:.\Generated_Source\PSoC4/BLE_eventHandler.c ****         ***********************************************************/
 950:.\Generated_Source\PSoC4/BLE_eventHandler.c ****         case CYBLE_EVT_L2CAP_CONN_PARAM_UPDATE_RSP:
 951:.\Generated_Source\PSoC4/BLE_eventHandler.c ****             CyBle_L2Cap_ConnParamUpdateRspEventHandler(*(uint16 *)eventParam);
 952:.\Generated_Source\PSoC4/BLE_eventHandler.c ****             break;
 953:.\Generated_Source\PSoC4/BLE_eventHandler.c ****         
 954:.\Generated_Source\PSoC4/BLE_eventHandler.c ****         /**********************************************************
 955:.\Generated_Source\PSoC4/BLE_eventHandler.c ****         ##GATT events
 956:.\Generated_Source\PSoC4/BLE_eventHandler.c ****         ***********************************************************/        
 957:.\Generated_Source\PSoC4/BLE_eventHandler.c ****         case CYBLE_EVT_GATT_CONNECT_IND:
 958:.\Generated_Source\PSoC4/BLE_eventHandler.c ****             cyBle_connHandle = *(CYBLE_CONN_HANDLE_T *)eventParam;
 959:.\Generated_Source\PSoC4/BLE_eventHandler.c ****             
 960:.\Generated_Source\PSoC4/BLE_eventHandler.c ****         #if((CYBLE_GATT_ROLE_SERVER) && (CYBLE_GATT_DB_CCCD_COUNT != 0u))
 961:.\Generated_Source\PSoC4/BLE_eventHandler.c ****             /* Init CCCD values in RAM */
 962:.\Generated_Source\PSoC4/BLE_eventHandler.c ****         	(void) memcpy (cyBle_attValuesCCCD, cyBle_attValuesCCCDFlashMemory[cyBle_connHandle.bdHand
 963:.\Generated_Source\PSoC4/BLE_eventHandler.c ****                             CYBLE_GATT_DB_CCCD_COUNT);
 964:.\Generated_Source\PSoC4/BLE_eventHandler.c ****         #endif /* CYBLE_GATT_ROLE_SERVER */
 965:.\Generated_Source\PSoC4/BLE_eventHandler.c ****         
ARM GAS  C:\Users\Lonnie\AppData\Local\Temp\ccJOwa1B.s 			page 26


 966:.\Generated_Source\PSoC4/BLE_eventHandler.c ****         #if (CYBLE_GATT_ROLE_CLIENT)
 967:.\Generated_Source\PSoC4/BLE_eventHandler.c ****             CyBle_SetClientState(CYBLE_CLIENT_STATE_CONNECTED);
 968:.\Generated_Source\PSoC4/BLE_eventHandler.c ****         #endif /* CYBLE_GATT_ROLE_CLIENT */
 969:.\Generated_Source\PSoC4/BLE_eventHandler.c ****         
 970:.\Generated_Source\PSoC4/BLE_eventHandler.c ****             CyBle_GattConnectReqHandler();
 971:.\Generated_Source\PSoC4/BLE_eventHandler.c ****             break;
 972:.\Generated_Source\PSoC4/BLE_eventHandler.c **** 
 973:.\Generated_Source\PSoC4/BLE_eventHandler.c ****         case CYBLE_EVT_GATT_DISCONNECT_IND:
 974:.\Generated_Source\PSoC4/BLE_eventHandler.c ****             CyBle_GattDisconnectEventHandler();
 975:.\Generated_Source\PSoC4/BLE_eventHandler.c ****             break;
 976:.\Generated_Source\PSoC4/BLE_eventHandler.c **** 
 977:.\Generated_Source\PSoC4/BLE_eventHandler.c ****     #if((CYBLE_GATT_ROLE_SERVER) || (CYBLE_GATT_ROLE_CLIENT))
 978:.\Generated_Source\PSoC4/BLE_eventHandler.c ****         case CYBLE_EVT_GATTS_XCNHG_MTU_REQ:
 979:.\Generated_Source\PSoC4/BLE_eventHandler.c ****         {
 980:.\Generated_Source\PSoC4/BLE_eventHandler.c ****             uint16 cyBle_mtuSize;
 981:.\Generated_Source\PSoC4/BLE_eventHandler.c ****             if(CYBLE_GATT_MTU > ((CYBLE_GATT_XCHG_MTU_PARAM_T *)eventParam)->mtu)
 982:.\Generated_Source\PSoC4/BLE_eventHandler.c ****             {
 983:.\Generated_Source\PSoC4/BLE_eventHandler.c ****                 cyBle_mtuSize = ((CYBLE_GATT_XCHG_MTU_PARAM_T *)eventParam)->mtu;
 984:.\Generated_Source\PSoC4/BLE_eventHandler.c ****             }
 985:.\Generated_Source\PSoC4/BLE_eventHandler.c ****             else
 986:.\Generated_Source\PSoC4/BLE_eventHandler.c ****             {
 987:.\Generated_Source\PSoC4/BLE_eventHandler.c ****                 cyBle_mtuSize = CYBLE_GATT_MTU;
 988:.\Generated_Source\PSoC4/BLE_eventHandler.c ****             }
 989:.\Generated_Source\PSoC4/BLE_eventHandler.c ****             (void)CyBle_GattsExchangeMtuRsp(((CYBLE_GATT_XCHG_MTU_PARAM_T *)eventParam)->connHandle
 990:.\Generated_Source\PSoC4/BLE_eventHandler.c ****              }
 991:.\Generated_Source\PSoC4/BLE_eventHandler.c ****             break;
 992:.\Generated_Source\PSoC4/BLE_eventHandler.c ****     #endif /* (CYBLE_GATT_ROLE_SERVER) || (CYBLE_GATT_ROLE_CLIENT) */
 993:.\Generated_Source\PSoC4/BLE_eventHandler.c ****     
 994:.\Generated_Source\PSoC4/BLE_eventHandler.c ****     #if (CYBLE_GATT_ROLE_CLIENT)
 995:.\Generated_Source\PSoC4/BLE_eventHandler.c ****         case CYBLE_EVT_GAPC_SCAN_PROGRESS_RESULT:
 996:.\Generated_Source\PSoC4/BLE_eventHandler.c ****         #ifdef CYBLE_CPS_CLIENT
 997:.\Generated_Source\PSoC4/BLE_eventHandler.c ****                 CyBle_CpscScanProcessEventHandler((CYBLE_GAPC_ADV_REPORT_T *)eventParam);
 998:.\Generated_Source\PSoC4/BLE_eventHandler.c ****         #endif /* defined(CYBLE_CPS_CLIENT) */
 999:.\Generated_Source\PSoC4/BLE_eventHandler.c ****             break;
1000:.\Generated_Source\PSoC4/BLE_eventHandler.c ****     #endif /* (CYBLE_GATT_ROLE_CLIENT) */
1001:.\Generated_Source\PSoC4/BLE_eventHandler.c **** 
1002:.\Generated_Source\PSoC4/BLE_eventHandler.c ****     #if(CYBLE_GATT_ROLE_SERVER)
1003:.\Generated_Source\PSoC4/BLE_eventHandler.c ****         case CYBLE_EVT_GATTS_WRITE_REQ:
1004:.\Generated_Source\PSoC4/BLE_eventHandler.c ****             CyBle_WriteReqHandler((CYBLE_GATTS_WRITE_REQ_PARAM_T *)eventParam);
1005:.\Generated_Source\PSoC4/BLE_eventHandler.c ****             break;
1006:.\Generated_Source\PSoC4/BLE_eventHandler.c **** 
1007:.\Generated_Source\PSoC4/BLE_eventHandler.c ****         case CYBLE_EVT_GATTS_WRITE_CMD_REQ:
1008:.\Generated_Source\PSoC4/BLE_eventHandler.c ****         #if defined(CYBLE_IAS_SERVER)
1009:.\Generated_Source\PSoC4/BLE_eventHandler.c ****             if((cyBle_eventHandlerFlag & CYBLE_CALLBACK) != 0u)
1010:.\Generated_Source\PSoC4/BLE_eventHandler.c ****             {
1011:.\Generated_Source\PSoC4/BLE_eventHandler.c ****                 (void)CyBle_IassWriteCmdEventHandler((CYBLE_GATTS_WRITE_REQ_PARAM_T *)eventParam);
1012:.\Generated_Source\PSoC4/BLE_eventHandler.c ****             }
1013:.\Generated_Source\PSoC4/BLE_eventHandler.c ****         #endif /* defined(CYBLE_IAS_SERVER) */
1014:.\Generated_Source\PSoC4/BLE_eventHandler.c ****         #if defined(CYBLE_HIDS_SERVER)
1015:.\Generated_Source\PSoC4/BLE_eventHandler.c ****             if((cyBle_eventHandlerFlag & CYBLE_CALLBACK) != 0u)
1016:.\Generated_Source\PSoC4/BLE_eventHandler.c ****             {
1017:.\Generated_Source\PSoC4/BLE_eventHandler.c ****                 (void)CyBle_HidssWriteEventHandler((CYBLE_GATTS_WRITE_REQ_PARAM_T *)eventParam);
1018:.\Generated_Source\PSoC4/BLE_eventHandler.c ****             }
1019:.\Generated_Source\PSoC4/BLE_eventHandler.c ****         #endif /* defined(CYBLE_HIDS_SERVER) */
1020:.\Generated_Source\PSoC4/BLE_eventHandler.c ****         #if defined(CYBLE_PASS_SERVER)
1021:.\Generated_Source\PSoC4/BLE_eventHandler.c ****             if((cyBle_eventHandlerFlag & CYBLE_CALLBACK) != 0u)
1022:.\Generated_Source\PSoC4/BLE_eventHandler.c ****             {
ARM GAS  C:\Users\Lonnie\AppData\Local\Temp\ccJOwa1B.s 			page 27


1023:.\Generated_Source\PSoC4/BLE_eventHandler.c ****                 (void)CyBle_PasssWriteCmdEventHandler((CYBLE_GATTS_WRITE_REQ_PARAM_T *)eventParam);
1024:.\Generated_Source\PSoC4/BLE_eventHandler.c ****             }
1025:.\Generated_Source\PSoC4/BLE_eventHandler.c ****         #endif /* defined(CYBLE_PASS_SERVER) */
1026:.\Generated_Source\PSoC4/BLE_eventHandler.c ****         #if defined(CYBLE_RTUS_SERVER)
1027:.\Generated_Source\PSoC4/BLE_eventHandler.c ****             if((cyBle_eventHandlerFlag & CYBLE_CALLBACK) != 0u)
1028:.\Generated_Source\PSoC4/BLE_eventHandler.c ****             {
1029:.\Generated_Source\PSoC4/BLE_eventHandler.c ****                 (void)CyBle_RtussWriteCmdEventHandler((CYBLE_GATTS_WRITE_REQ_PARAM_T *)eventParam);
1030:.\Generated_Source\PSoC4/BLE_eventHandler.c ****             }
1031:.\Generated_Source\PSoC4/BLE_eventHandler.c ****         #endif /* defined(CYBLE_RTUS_SERVER) */
1032:.\Generated_Source\PSoC4/BLE_eventHandler.c ****         #if defined(CYBLE_SCPS_SERVER)
1033:.\Generated_Source\PSoC4/BLE_eventHandler.c ****             if((cyBle_eventHandlerFlag & CYBLE_CALLBACK) != 0u)
1034:.\Generated_Source\PSoC4/BLE_eventHandler.c ****             {
1035:.\Generated_Source\PSoC4/BLE_eventHandler.c ****                 (void)CyBle_ScpssWriteEventHandler((CYBLE_GATTS_WRITE_REQ_PARAM_T *)eventParam);
1036:.\Generated_Source\PSoC4/BLE_eventHandler.c ****             }
1037:.\Generated_Source\PSoC4/BLE_eventHandler.c ****         #endif /* defined(CYBLE_SCPS_SERVER) */
1038:.\Generated_Source\PSoC4/BLE_eventHandler.c ****             break;
1039:.\Generated_Source\PSoC4/BLE_eventHandler.c ****             
1040:.\Generated_Source\PSoC4/BLE_eventHandler.c ****         case CYBLE_EVT_GATTS_HANDLE_VALUE_CNF:
1041:.\Generated_Source\PSoC4/BLE_eventHandler.c ****             CyBle_ValueConfirmation((CYBLE_CONN_HANDLE_T *)eventParam);
1042:.\Generated_Source\PSoC4/BLE_eventHandler.c ****             break;
1043:.\Generated_Source\PSoC4/BLE_eventHandler.c ****     #endif /* CYBLE_GATT_ROLE_SERVER */
1044:.\Generated_Source\PSoC4/BLE_eventHandler.c **** 
1045:.\Generated_Source\PSoC4/BLE_eventHandler.c ****     #if (CYBLE_GATT_ROLE_CLIENT)
1046:.\Generated_Source\PSoC4/BLE_eventHandler.c ****         case CYBLE_EVT_GATTC_READ_BY_GROUP_TYPE_RSP:
1047:.\Generated_Source\PSoC4/BLE_eventHandler.c ****             CyBle_ReadByGroupEventHandler((CYBLE_GATTC_READ_BY_GRP_RSP_PARAM_T *)eventParam);
1048:.\Generated_Source\PSoC4/BLE_eventHandler.c ****             break;
1049:.\Generated_Source\PSoC4/BLE_eventHandler.c **** 
1050:.\Generated_Source\PSoC4/BLE_eventHandler.c ****         case CYBLE_EVT_GATTC_READ_BY_TYPE_RSP:
1051:.\Generated_Source\PSoC4/BLE_eventHandler.c ****             CyBle_ReadByTypeEventHandler((CYBLE_GATTC_READ_BY_TYPE_RSP_PARAM_T *)eventParam);
1052:.\Generated_Source\PSoC4/BLE_eventHandler.c ****             break;
1053:.\Generated_Source\PSoC4/BLE_eventHandler.c **** 
1054:.\Generated_Source\PSoC4/BLE_eventHandler.c ****         case CYBLE_EVT_GATTC_FIND_INFO_RSP:
1055:.\Generated_Source\PSoC4/BLE_eventHandler.c ****             CyBle_FindInfoEventHandler((CYBLE_GATTC_FIND_INFO_RSP_PARAM_T *)eventParam);
1056:.\Generated_Source\PSoC4/BLE_eventHandler.c ****             break;
1057:.\Generated_Source\PSoC4/BLE_eventHandler.c **** 
1058:.\Generated_Source\PSoC4/BLE_eventHandler.c ****         case CYBLE_EVT_GATTC_ERROR_RSP:
1059:.\Generated_Source\PSoC4/BLE_eventHandler.c ****             CyBle_ErrorResponseEventHandler((CYBLE_GATTC_ERR_RSP_PARAM_T *)eventParam);
1060:.\Generated_Source\PSoC4/BLE_eventHandler.c ****             break;
1061:.\Generated_Source\PSoC4/BLE_eventHandler.c **** 
1062:.\Generated_Source\PSoC4/BLE_eventHandler.c ****         case CYBLE_EVT_GATTC_HANDLE_VALUE_NTF:
1063:.\Generated_Source\PSoC4/BLE_eventHandler.c ****         #ifdef CYBLE_ANS_CLIENT
1064:.\Generated_Source\PSoC4/BLE_eventHandler.c ****             CyBle_AnscNotificationEventHandler((CYBLE_GATTC_HANDLE_VALUE_NTF_PARAM_T *)eventParam);
1065:.\Generated_Source\PSoC4/BLE_eventHandler.c ****         #endif /* defined(CYBLE_ANS_CLIENT) */
1066:.\Generated_Source\PSoC4/BLE_eventHandler.c ****         #ifdef CYBLE_BAS_CLIENT
1067:.\Generated_Source\PSoC4/BLE_eventHandler.c ****             if((cyBle_eventHandlerFlag & CYBLE_CALLBACK) != 0u)
1068:.\Generated_Source\PSoC4/BLE_eventHandler.c ****             {
1069:.\Generated_Source\PSoC4/BLE_eventHandler.c ****                 CyBle_BascNotificationEventHandler((CYBLE_GATTC_HANDLE_VALUE_NTF_PARAM_T *)eventPar
1070:.\Generated_Source\PSoC4/BLE_eventHandler.c ****             }
1071:.\Generated_Source\PSoC4/BLE_eventHandler.c ****         #endif /* defined(CYBLE_BAS_CLIENT) */
1072:.\Generated_Source\PSoC4/BLE_eventHandler.c ****         #ifdef CYBLE_BLS_CLIENT
1073:.\Generated_Source\PSoC4/BLE_eventHandler.c ****             if((cyBle_eventHandlerFlag & CYBLE_CALLBACK) != 0u)
1074:.\Generated_Source\PSoC4/BLE_eventHandler.c ****             {
1075:.\Generated_Source\PSoC4/BLE_eventHandler.c ****                 CyBle_BlscNotificationEventHandler((CYBLE_GATTC_HANDLE_VALUE_NTF_PARAM_T *)eventPar
1076:.\Generated_Source\PSoC4/BLE_eventHandler.c ****             }
1077:.\Generated_Source\PSoC4/BLE_eventHandler.c ****         #endif /* defined(CYBLE_BLS_CLIENT) */
1078:.\Generated_Source\PSoC4/BLE_eventHandler.c ****         #ifdef CYBLE_CPS_CLIENT
1079:.\Generated_Source\PSoC4/BLE_eventHandler.c ****             if((cyBle_eventHandlerFlag & CYBLE_CALLBACK) != 0u)
ARM GAS  C:\Users\Lonnie\AppData\Local\Temp\ccJOwa1B.s 			page 28


1080:.\Generated_Source\PSoC4/BLE_eventHandler.c ****             {
1081:.\Generated_Source\PSoC4/BLE_eventHandler.c ****                 CyBle_CpscNotificationEventHandler((CYBLE_GATTC_HANDLE_VALUE_NTF_PARAM_T *)eventPar
1082:.\Generated_Source\PSoC4/BLE_eventHandler.c ****             }
1083:.\Generated_Source\PSoC4/BLE_eventHandler.c ****         #endif /* defined(CYBLE_CPS_CLIENT) */
1084:.\Generated_Source\PSoC4/BLE_eventHandler.c ****         #ifdef CYBLE_CSCS_CLIENT
1085:.\Generated_Source\PSoC4/BLE_eventHandler.c ****             if((cyBle_eventHandlerFlag & CYBLE_CALLBACK) != 0u)
1086:.\Generated_Source\PSoC4/BLE_eventHandler.c ****             {
1087:.\Generated_Source\PSoC4/BLE_eventHandler.c ****                 CyBle_CscscNotificationEventHandler((CYBLE_GATTC_HANDLE_VALUE_NTF_PARAM_T *)eventPa
1088:.\Generated_Source\PSoC4/BLE_eventHandler.c ****             }
1089:.\Generated_Source\PSoC4/BLE_eventHandler.c ****         #endif /* defined(CYBLE_CSCS_CLIENT) */
1090:.\Generated_Source\PSoC4/BLE_eventHandler.c ****         #ifdef CYBLE_CTS_CLIENT
1091:.\Generated_Source\PSoC4/BLE_eventHandler.c ****             if((cyBle_eventHandlerFlag & CYBLE_CALLBACK) != 0u)
1092:.\Generated_Source\PSoC4/BLE_eventHandler.c ****             {
1093:.\Generated_Source\PSoC4/BLE_eventHandler.c ****                 CyBle_CtscNotificationEventHandler((CYBLE_GATTC_HANDLE_VALUE_NTF_PARAM_T *)eventPar
1094:.\Generated_Source\PSoC4/BLE_eventHandler.c ****             }
1095:.\Generated_Source\PSoC4/BLE_eventHandler.c ****         #endif /* defined(CYBLE_CTS_CLIENT) */
1096:.\Generated_Source\PSoC4/BLE_eventHandler.c ****         #ifdef CYBLE_GLS_CLIENT
1097:.\Generated_Source\PSoC4/BLE_eventHandler.c ****             if((cyBle_eventHandlerFlag & CYBLE_CALLBACK) != 0u)
1098:.\Generated_Source\PSoC4/BLE_eventHandler.c ****             {
1099:.\Generated_Source\PSoC4/BLE_eventHandler.c ****                 CyBle_GlscNotificationEventHandler((CYBLE_GATTC_HANDLE_VALUE_NTF_PARAM_T *)eventPar
1100:.\Generated_Source\PSoC4/BLE_eventHandler.c ****             }
1101:.\Generated_Source\PSoC4/BLE_eventHandler.c ****         #endif /* defined(CYBLE_GLS_CLIENT) */
1102:.\Generated_Source\PSoC4/BLE_eventHandler.c ****         #ifdef CYBLE_HIDS_CLIENT
1103:.\Generated_Source\PSoC4/BLE_eventHandler.c ****             if((cyBle_eventHandlerFlag & CYBLE_CALLBACK) != 0u)
1104:.\Generated_Source\PSoC4/BLE_eventHandler.c ****             {
1105:.\Generated_Source\PSoC4/BLE_eventHandler.c ****                 CyBle_HidscNotificationEventHandler((CYBLE_GATTC_HANDLE_VALUE_NTF_PARAM_T *)eventPa
1106:.\Generated_Source\PSoC4/BLE_eventHandler.c ****             }
1107:.\Generated_Source\PSoC4/BLE_eventHandler.c ****         #endif /* defined(CYBLE_HIDS_CLIENT) */
1108:.\Generated_Source\PSoC4/BLE_eventHandler.c ****         #ifdef CYBLE_HRS_CLIENT
1109:.\Generated_Source\PSoC4/BLE_eventHandler.c ****             if((cyBle_eventHandlerFlag & CYBLE_CALLBACK) != 0u)
1110:.\Generated_Source\PSoC4/BLE_eventHandler.c ****             {
1111:.\Generated_Source\PSoC4/BLE_eventHandler.c ****                 CyBle_HrscNotificationEventHandler((CYBLE_GATTC_HANDLE_VALUE_NTF_PARAM_T *)eventPar
1112:.\Generated_Source\PSoC4/BLE_eventHandler.c ****             }
1113:.\Generated_Source\PSoC4/BLE_eventHandler.c ****         #endif /* defined(CYBLE_HRS_CLIENT) */
1114:.\Generated_Source\PSoC4/BLE_eventHandler.c ****         #ifdef CYBLE_HTS_CLIENT
1115:.\Generated_Source\PSoC4/BLE_eventHandler.c ****             if((cyBle_eventHandlerFlag & CYBLE_CALLBACK) != 0u)
1116:.\Generated_Source\PSoC4/BLE_eventHandler.c ****             {
1117:.\Generated_Source\PSoC4/BLE_eventHandler.c ****                 CyBle_HtscNotificationEventHandler((CYBLE_GATTC_HANDLE_VALUE_NTF_PARAM_T *)eventPar
1118:.\Generated_Source\PSoC4/BLE_eventHandler.c ****             }
1119:.\Generated_Source\PSoC4/BLE_eventHandler.c ****         #endif /* defined(CYBLE_HTS_CLIENT) */
1120:.\Generated_Source\PSoC4/BLE_eventHandler.c ****         #ifdef CYBLE_LNS_CLIENT
1121:.\Generated_Source\PSoC4/BLE_eventHandler.c ****             if((cyBle_eventHandlerFlag & CYBLE_CALLBACK) != 0u)
1122:.\Generated_Source\PSoC4/BLE_eventHandler.c ****             {
1123:.\Generated_Source\PSoC4/BLE_eventHandler.c ****                 CyBle_LnscNotificationEventHandler((CYBLE_GATTC_HANDLE_VALUE_NTF_PARAM_T *)eventPar
1124:.\Generated_Source\PSoC4/BLE_eventHandler.c ****             }
1125:.\Generated_Source\PSoC4/BLE_eventHandler.c ****         #endif /* defined(CYBLE_LNS_CLIENT) */
1126:.\Generated_Source\PSoC4/BLE_eventHandler.c ****         #ifdef CYBLE_PASS_CLIENT
1127:.\Generated_Source\PSoC4/BLE_eventHandler.c ****             if((cyBle_eventHandlerFlag & CYBLE_CALLBACK) != 0u)
1128:.\Generated_Source\PSoC4/BLE_eventHandler.c ****             {
1129:.\Generated_Source\PSoC4/BLE_eventHandler.c ****                 CyBle_PasscNotificationEventHandler((CYBLE_GATTC_HANDLE_VALUE_NTF_PARAM_T *)eventPa
1130:.\Generated_Source\PSoC4/BLE_eventHandler.c ****             }
1131:.\Generated_Source\PSoC4/BLE_eventHandler.c ****         #endif /* defined(CYBLE_PASS_CLIENT) */
1132:.\Generated_Source\PSoC4/BLE_eventHandler.c ****         #ifdef CYBLE_RSCS_CLIENT
1133:.\Generated_Source\PSoC4/BLE_eventHandler.c ****             if((cyBle_eventHandlerFlag & CYBLE_CALLBACK) != 0u)
1134:.\Generated_Source\PSoC4/BLE_eventHandler.c ****             {
1135:.\Generated_Source\PSoC4/BLE_eventHandler.c ****                 CyBle_RscscNotificationEventHandler((CYBLE_GATTC_HANDLE_VALUE_NTF_PARAM_T *)eventPa
1136:.\Generated_Source\PSoC4/BLE_eventHandler.c ****             }
ARM GAS  C:\Users\Lonnie\AppData\Local\Temp\ccJOwa1B.s 			page 29


1137:.\Generated_Source\PSoC4/BLE_eventHandler.c ****         #endif /* defined(CYBLE_RSCS_CLIENT) */
1138:.\Generated_Source\PSoC4/BLE_eventHandler.c ****         #ifdef CYBLE_SCPS_CLIENT
1139:.\Generated_Source\PSoC4/BLE_eventHandler.c ****             if((cyBle_eventHandlerFlag & CYBLE_CALLBACK) != 0u)
1140:.\Generated_Source\PSoC4/BLE_eventHandler.c ****             {
1141:.\Generated_Source\PSoC4/BLE_eventHandler.c ****                 CyBle_ScpscNotificationEventHandler((CYBLE_GATTC_HANDLE_VALUE_NTF_PARAM_T *)eventPa
1142:.\Generated_Source\PSoC4/BLE_eventHandler.c ****             }
1143:.\Generated_Source\PSoC4/BLE_eventHandler.c ****         #endif /* defined(CYBLE_SCPS_CLIENT) */
1144:.\Generated_Source\PSoC4/BLE_eventHandler.c ****         #ifdef CYBLE_TPS_CLIENT
1145:.\Generated_Source\PSoC4/BLE_eventHandler.c ****             if((cyBle_eventHandlerFlag & CYBLE_CALLBACK) != 0u)
1146:.\Generated_Source\PSoC4/BLE_eventHandler.c ****             {
1147:.\Generated_Source\PSoC4/BLE_eventHandler.c ****                 CyBle_TpscNotificationEventHandler((CYBLE_GATTC_HANDLE_VALUE_NTF_PARAM_T *)eventPar
1148:.\Generated_Source\PSoC4/BLE_eventHandler.c ****             }
1149:.\Generated_Source\PSoC4/BLE_eventHandler.c ****         #endif /* defined(CYBLE_TPS_CLIENT) */
1150:.\Generated_Source\PSoC4/BLE_eventHandler.c ****             break;
1151:.\Generated_Source\PSoC4/BLE_eventHandler.c **** 
1152:.\Generated_Source\PSoC4/BLE_eventHandler.c ****         case CYBLE_EVT_GATTC_HANDLE_VALUE_IND:
1153:.\Generated_Source\PSoC4/BLE_eventHandler.c ****             CyBle_GattcIndicationEventHandler((CYBLE_GATTC_HANDLE_VALUE_IND_PARAM_T *)eventParam);
1154:.\Generated_Source\PSoC4/BLE_eventHandler.c ****         #ifdef CYBLE_BLS_CLIENT
1155:.\Generated_Source\PSoC4/BLE_eventHandler.c ****             if((cyBle_eventHandlerFlag & CYBLE_CALLBACK) != 0u)
1156:.\Generated_Source\PSoC4/BLE_eventHandler.c ****             {
1157:.\Generated_Source\PSoC4/BLE_eventHandler.c ****                 CyBle_BlscIndicationEventHandler((CYBLE_GATTC_HANDLE_VALUE_IND_PARAM_T *)eventParam
1158:.\Generated_Source\PSoC4/BLE_eventHandler.c ****             }
1159:.\Generated_Source\PSoC4/BLE_eventHandler.c ****         #endif /* defined(CYBLE_BLS_CLIENT) */
1160:.\Generated_Source\PSoC4/BLE_eventHandler.c ****         #ifdef CYBLE_CPS_CLIENT
1161:.\Generated_Source\PSoC4/BLE_eventHandler.c ****             if((cyBle_eventHandlerFlag & CYBLE_CALLBACK) != 0u)
1162:.\Generated_Source\PSoC4/BLE_eventHandler.c ****             {
1163:.\Generated_Source\PSoC4/BLE_eventHandler.c ****                 CyBle_CpscIndicationEventHandler((CYBLE_GATTC_HANDLE_VALUE_IND_PARAM_T *)eventParam
1164:.\Generated_Source\PSoC4/BLE_eventHandler.c ****             }
1165:.\Generated_Source\PSoC4/BLE_eventHandler.c ****         #endif /* defined(CYBLE_CPS_CLIENT) */
1166:.\Generated_Source\PSoC4/BLE_eventHandler.c ****         #ifdef CYBLE_CSCS_CLIENT
1167:.\Generated_Source\PSoC4/BLE_eventHandler.c ****             if((cyBle_eventHandlerFlag & CYBLE_CALLBACK) != 0u)
1168:.\Generated_Source\PSoC4/BLE_eventHandler.c ****             {
1169:.\Generated_Source\PSoC4/BLE_eventHandler.c ****                 CyBle_CscscIndicationEventHandler((CYBLE_GATTC_HANDLE_VALUE_IND_PARAM_T *)eventPara
1170:.\Generated_Source\PSoC4/BLE_eventHandler.c ****             }
1171:.\Generated_Source\PSoC4/BLE_eventHandler.c ****         #endif /* defined(CYBLE_CSCS_CLIENT) */
1172:.\Generated_Source\PSoC4/BLE_eventHandler.c ****         #ifdef CYBLE_GLS_CLIENT
1173:.\Generated_Source\PSoC4/BLE_eventHandler.c ****             if((cyBle_eventHandlerFlag & CYBLE_CALLBACK) != 0u)
1174:.\Generated_Source\PSoC4/BLE_eventHandler.c ****             {
1175:.\Generated_Source\PSoC4/BLE_eventHandler.c ****                 CyBle_GlscIndicationEventHandler((CYBLE_GATTC_HANDLE_VALUE_IND_PARAM_T *)eventParam
1176:.\Generated_Source\PSoC4/BLE_eventHandler.c ****             }
1177:.\Generated_Source\PSoC4/BLE_eventHandler.c ****         #endif /* defined(CYBLE_GLS_CLIENT) */
1178:.\Generated_Source\PSoC4/BLE_eventHandler.c ****         #ifdef CYBLE_HTS_CLIENT
1179:.\Generated_Source\PSoC4/BLE_eventHandler.c ****             if((cyBle_eventHandlerFlag & CYBLE_CALLBACK) != 0u)
1180:.\Generated_Source\PSoC4/BLE_eventHandler.c ****             {
1181:.\Generated_Source\PSoC4/BLE_eventHandler.c ****                 CyBle_HtscIndicationEventHandler((CYBLE_GATTC_HANDLE_VALUE_IND_PARAM_T *)eventParam
1182:.\Generated_Source\PSoC4/BLE_eventHandler.c ****             }
1183:.\Generated_Source\PSoC4/BLE_eventHandler.c ****         #endif /* defined(CYBLE_HTS_CLIENT) */
1184:.\Generated_Source\PSoC4/BLE_eventHandler.c ****         #ifdef CYBLE_LNS_CLIENT
1185:.\Generated_Source\PSoC4/BLE_eventHandler.c ****             if((cyBle_eventHandlerFlag & CYBLE_CALLBACK) != 0u)
1186:.\Generated_Source\PSoC4/BLE_eventHandler.c ****             {
1187:.\Generated_Source\PSoC4/BLE_eventHandler.c ****                 CyBle_LnscIndicationEventHandler((CYBLE_GATTC_HANDLE_VALUE_IND_PARAM_T *)eventParam
1188:.\Generated_Source\PSoC4/BLE_eventHandler.c ****             }
1189:.\Generated_Source\PSoC4/BLE_eventHandler.c ****         #endif /* defined(CYBLE_LNS_CLIENT) */
1190:.\Generated_Source\PSoC4/BLE_eventHandler.c ****         #ifdef CYBLE_RSCS_CLIENT
1191:.\Generated_Source\PSoC4/BLE_eventHandler.c ****             if((cyBle_eventHandlerFlag & CYBLE_CALLBACK) != 0u)
1192:.\Generated_Source\PSoC4/BLE_eventHandler.c ****             {
1193:.\Generated_Source\PSoC4/BLE_eventHandler.c ****                 CyBle_RscscIndicationEventHandler((CYBLE_GATTC_HANDLE_VALUE_IND_PARAM_T *)eventPara
ARM GAS  C:\Users\Lonnie\AppData\Local\Temp\ccJOwa1B.s 			page 30


1194:.\Generated_Source\PSoC4/BLE_eventHandler.c ****             }
1195:.\Generated_Source\PSoC4/BLE_eventHandler.c ****         #endif /* defined(CYBLE_RSCS_CLIENT) */
1196:.\Generated_Source\PSoC4/BLE_eventHandler.c ****             /* Respond with a Handle Value Confirmation when request handled */
1197:.\Generated_Source\PSoC4/BLE_eventHandler.c ****             if((cyBle_eventHandlerFlag & CYBLE_CALLBACK) == 0u)
1198:.\Generated_Source\PSoC4/BLE_eventHandler.c ****             {
1199:.\Generated_Source\PSoC4/BLE_eventHandler.c ****                 (void)CyBle_GattcConfirmation(((CYBLE_GATTC_HANDLE_VALUE_IND_PARAM_T *)eventParam)-
1200:.\Generated_Source\PSoC4/BLE_eventHandler.c ****             }
1201:.\Generated_Source\PSoC4/BLE_eventHandler.c ****             break;
1202:.\Generated_Source\PSoC4/BLE_eventHandler.c ****         
1203:.\Generated_Source\PSoC4/BLE_eventHandler.c ****         case CYBLE_EVT_GATTC_READ_RSP:
1204:.\Generated_Source\PSoC4/BLE_eventHandler.c ****             #ifdef CYBLE_ANS_CLIENT
1205:.\Generated_Source\PSoC4/BLE_eventHandler.c ****                 CyBle_AnscReadResponseEventHandler((CYBLE_GATTC_READ_RSP_PARAM_T *)eventParam);
1206:.\Generated_Source\PSoC4/BLE_eventHandler.c ****             #endif /* CYBLE_ANS_CLIENT */
1207:.\Generated_Source\PSoC4/BLE_eventHandler.c ****             #ifdef CYBLE_BAS_CLIENT
1208:.\Generated_Source\PSoC4/BLE_eventHandler.c ****                 if((cyBle_eventHandlerFlag & CYBLE_CALLBACK) != 0u)
1209:.\Generated_Source\PSoC4/BLE_eventHandler.c ****                 {
1210:.\Generated_Source\PSoC4/BLE_eventHandler.c ****                     CyBle_BascReadResponseEventHandler((CYBLE_GATTC_READ_RSP_PARAM_T *)eventParam);
1211:.\Generated_Source\PSoC4/BLE_eventHandler.c ****                 }
1212:.\Generated_Source\PSoC4/BLE_eventHandler.c ****             #endif /* CYBLE_BAS_CLIENT */
1213:.\Generated_Source\PSoC4/BLE_eventHandler.c ****             #ifdef CYBLE_BLS_CLIENT
1214:.\Generated_Source\PSoC4/BLE_eventHandler.c ****                 if((cyBle_eventHandlerFlag & CYBLE_CALLBACK) != 0u)
1215:.\Generated_Source\PSoC4/BLE_eventHandler.c ****                 {
1216:.\Generated_Source\PSoC4/BLE_eventHandler.c ****                     CyBle_BlscReadResponseEventHandler((CYBLE_GATTC_READ_RSP_PARAM_T *)eventParam);
1217:.\Generated_Source\PSoC4/BLE_eventHandler.c ****                 }
1218:.\Generated_Source\PSoC4/BLE_eventHandler.c ****             #endif /* CYBLE_BLS_CLIENT */
1219:.\Generated_Source\PSoC4/BLE_eventHandler.c ****             #ifdef CYBLE_CPS_CLIENT
1220:.\Generated_Source\PSoC4/BLE_eventHandler.c ****                 if((cyBle_eventHandlerFlag & CYBLE_CALLBACK) != 0u)
1221:.\Generated_Source\PSoC4/BLE_eventHandler.c ****                 {
1222:.\Generated_Source\PSoC4/BLE_eventHandler.c ****                     CyBle_CpscReadResponseEventHandler((CYBLE_GATTC_READ_RSP_PARAM_T *)eventParam);
1223:.\Generated_Source\PSoC4/BLE_eventHandler.c ****                 }
1224:.\Generated_Source\PSoC4/BLE_eventHandler.c ****             #endif /* CYBLE_CPS_CLIENT */
1225:.\Generated_Source\PSoC4/BLE_eventHandler.c ****             #ifdef CYBLE_CSCS_CLIENT
1226:.\Generated_Source\PSoC4/BLE_eventHandler.c ****                 if((cyBle_eventHandlerFlag & CYBLE_CALLBACK) != 0u)
1227:.\Generated_Source\PSoC4/BLE_eventHandler.c ****                 {
1228:.\Generated_Source\PSoC4/BLE_eventHandler.c ****                     CyBle_CscscReadResponseEventHandler((CYBLE_GATTC_READ_RSP_PARAM_T *)eventParam)
1229:.\Generated_Source\PSoC4/BLE_eventHandler.c ****                 }
1230:.\Generated_Source\PSoC4/BLE_eventHandler.c ****             #endif /* CYBLE_CSCS_CLIENT */
1231:.\Generated_Source\PSoC4/BLE_eventHandler.c ****             #ifdef CYBLE_CTS_CLIENT
1232:.\Generated_Source\PSoC4/BLE_eventHandler.c ****                 if((cyBle_eventHandlerFlag & CYBLE_CALLBACK) != 0u)
1233:.\Generated_Source\PSoC4/BLE_eventHandler.c ****                 {
1234:.\Generated_Source\PSoC4/BLE_eventHandler.c ****                     CyBle_CtscReadResponseEventHandler((CYBLE_GATTC_READ_RSP_PARAM_T *)eventParam);
1235:.\Generated_Source\PSoC4/BLE_eventHandler.c ****                 }
1236:.\Generated_Source\PSoC4/BLE_eventHandler.c ****             #endif /* CYBLE_BAS_CLIENT */
1237:.\Generated_Source\PSoC4/BLE_eventHandler.c ****             #ifdef CYBLE_DIS_CLIENT
1238:.\Generated_Source\PSoC4/BLE_eventHandler.c ****                 if((cyBle_eventHandlerFlag & CYBLE_CALLBACK) != 0u)
1239:.\Generated_Source\PSoC4/BLE_eventHandler.c ****                 {
1240:.\Generated_Source\PSoC4/BLE_eventHandler.c ****                     CyBle_DiscReadResponseEventHandler((CYBLE_GATTC_READ_RSP_PARAM_T *)eventParam);
1241:.\Generated_Source\PSoC4/BLE_eventHandler.c ****                 }
1242:.\Generated_Source\PSoC4/BLE_eventHandler.c ****             #endif /* CYBLE_DIS_CLIENT */
1243:.\Generated_Source\PSoC4/BLE_eventHandler.c ****             #ifdef CYBLE_GLS_CLIENT
1244:.\Generated_Source\PSoC4/BLE_eventHandler.c ****                 if((cyBle_eventHandlerFlag & CYBLE_CALLBACK) != 0u)
1245:.\Generated_Source\PSoC4/BLE_eventHandler.c ****                 {
1246:.\Generated_Source\PSoC4/BLE_eventHandler.c ****                     CyBle_GlscReadResponseEventHandler((CYBLE_GATTC_READ_RSP_PARAM_T *)eventParam);
1247:.\Generated_Source\PSoC4/BLE_eventHandler.c ****                 }
1248:.\Generated_Source\PSoC4/BLE_eventHandler.c ****             #endif /* CYBLE_GLS_CLIENT */
1249:.\Generated_Source\PSoC4/BLE_eventHandler.c ****             #ifdef CYBLE_HIDS_CLIENT
1250:.\Generated_Source\PSoC4/BLE_eventHandler.c ****                 if((cyBle_eventHandlerFlag & CYBLE_CALLBACK) != 0u)
ARM GAS  C:\Users\Lonnie\AppData\Local\Temp\ccJOwa1B.s 			page 31


1251:.\Generated_Source\PSoC4/BLE_eventHandler.c ****                 {
1252:.\Generated_Source\PSoC4/BLE_eventHandler.c ****                     CyBle_HidscReadResponseEventHandler((CYBLE_GATTC_READ_RSP_PARAM_T *)eventParam)
1253:.\Generated_Source\PSoC4/BLE_eventHandler.c ****                 }
1254:.\Generated_Source\PSoC4/BLE_eventHandler.c ****             #endif /* CYBLE_HIDS_CLIENT */
1255:.\Generated_Source\PSoC4/BLE_eventHandler.c ****             #ifdef CYBLE_HRS_CLIENT
1256:.\Generated_Source\PSoC4/BLE_eventHandler.c ****                 if((cyBle_eventHandlerFlag & CYBLE_CALLBACK) != 0u)
1257:.\Generated_Source\PSoC4/BLE_eventHandler.c ****                 {
1258:.\Generated_Source\PSoC4/BLE_eventHandler.c ****                     CyBle_HrscReadResponseEventHandler((CYBLE_GATTC_READ_RSP_PARAM_T *)eventParam);
1259:.\Generated_Source\PSoC4/BLE_eventHandler.c ****                 }
1260:.\Generated_Source\PSoC4/BLE_eventHandler.c ****             #endif /* CYBLE_HRS_CLIENT */
1261:.\Generated_Source\PSoC4/BLE_eventHandler.c ****             #ifdef CYBLE_HTS_CLIENT
1262:.\Generated_Source\PSoC4/BLE_eventHandler.c ****                 if((cyBle_eventHandlerFlag & CYBLE_CALLBACK) != 0u)
1263:.\Generated_Source\PSoC4/BLE_eventHandler.c ****                 {
1264:.\Generated_Source\PSoC4/BLE_eventHandler.c ****                     CyBle_HtscReadResponseEventHandler((CYBLE_GATTC_READ_RSP_PARAM_T *)eventParam);
1265:.\Generated_Source\PSoC4/BLE_eventHandler.c ****                 }
1266:.\Generated_Source\PSoC4/BLE_eventHandler.c ****             #endif /* CYBLE_HTS_CLIENT */
1267:.\Generated_Source\PSoC4/BLE_eventHandler.c ****             #ifdef CYBLE_LLS_CLIENT
1268:.\Generated_Source\PSoC4/BLE_eventHandler.c ****                 if((cyBle_eventHandlerFlag & CYBLE_CALLBACK) != 0u)
1269:.\Generated_Source\PSoC4/BLE_eventHandler.c ****                 {
1270:.\Generated_Source\PSoC4/BLE_eventHandler.c ****                     CyBle_LlscReadResponseEventHandler((CYBLE_GATTC_READ_RSP_PARAM_T *)eventParam);
1271:.\Generated_Source\PSoC4/BLE_eventHandler.c ****                 }
1272:.\Generated_Source\PSoC4/BLE_eventHandler.c ****             #endif /* CYBLE_LLS_CLIENT */
1273:.\Generated_Source\PSoC4/BLE_eventHandler.c ****             #ifdef CYBLE_LNS_CLIENT
1274:.\Generated_Source\PSoC4/BLE_eventHandler.c ****                 if((cyBle_eventHandlerFlag & CYBLE_CALLBACK) != 0u)
1275:.\Generated_Source\PSoC4/BLE_eventHandler.c ****                 {
1276:.\Generated_Source\PSoC4/BLE_eventHandler.c ****                     CyBle_LnscReadResponseEventHandler((CYBLE_GATTC_READ_RSP_PARAM_T *)eventParam);
1277:.\Generated_Source\PSoC4/BLE_eventHandler.c ****                 }
1278:.\Generated_Source\PSoC4/BLE_eventHandler.c ****             #endif /* CYBLE_LNS_CLIENT */
1279:.\Generated_Source\PSoC4/BLE_eventHandler.c ****             #ifdef CYBLE_NDCS_CLIENT
1280:.\Generated_Source\PSoC4/BLE_eventHandler.c ****                 if((cyBle_eventHandlerFlag & CYBLE_CALLBACK) != 0u)
1281:.\Generated_Source\PSoC4/BLE_eventHandler.c ****                 {
1282:.\Generated_Source\PSoC4/BLE_eventHandler.c ****                     CyBle_NdcscReadResponseEventHandler((CYBLE_GATTC_READ_RSP_PARAM_T *)eventParam)
1283:.\Generated_Source\PSoC4/BLE_eventHandler.c ****                 }
1284:.\Generated_Source\PSoC4/BLE_eventHandler.c ****             #endif /* CYBLE_NDCS_CLIENT */
1285:.\Generated_Source\PSoC4/BLE_eventHandler.c ****             #ifdef CYBLE_PASS_CLIENT
1286:.\Generated_Source\PSoC4/BLE_eventHandler.c ****                 if((cyBle_eventHandlerFlag & CYBLE_CALLBACK) != 0u)
1287:.\Generated_Source\PSoC4/BLE_eventHandler.c ****                 {
1288:.\Generated_Source\PSoC4/BLE_eventHandler.c ****                     CyBle_PasscReadResponseEventHandler((CYBLE_GATTC_READ_RSP_PARAM_T *)eventParam)
1289:.\Generated_Source\PSoC4/BLE_eventHandler.c ****                 }
1290:.\Generated_Source\PSoC4/BLE_eventHandler.c ****             #endif /* CYBLE_PASS_CLIENT */
1291:.\Generated_Source\PSoC4/BLE_eventHandler.c ****             #ifdef CYBLE_RSCS_CLIENT
1292:.\Generated_Source\PSoC4/BLE_eventHandler.c ****                 if((cyBle_eventHandlerFlag & CYBLE_CALLBACK) != 0u)
1293:.\Generated_Source\PSoC4/BLE_eventHandler.c ****                 {
1294:.\Generated_Source\PSoC4/BLE_eventHandler.c ****                     CyBle_RscscReadResponseEventHandler((CYBLE_GATTC_READ_RSP_PARAM_T *)eventParam)
1295:.\Generated_Source\PSoC4/BLE_eventHandler.c ****                 }
1296:.\Generated_Source\PSoC4/BLE_eventHandler.c ****             #endif /* CYBLE_RSCS_CLIENT */
1297:.\Generated_Source\PSoC4/BLE_eventHandler.c ****             #ifdef CYBLE_RTUS_CLIENT
1298:.\Generated_Source\PSoC4/BLE_eventHandler.c ****                 if((cyBle_eventHandlerFlag & CYBLE_CALLBACK) != 0u)
1299:.\Generated_Source\PSoC4/BLE_eventHandler.c ****                 {
1300:.\Generated_Source\PSoC4/BLE_eventHandler.c ****                     CyBle_RtuscReadResponseEventHandler((CYBLE_GATTC_READ_RSP_PARAM_T *)eventParam)
1301:.\Generated_Source\PSoC4/BLE_eventHandler.c ****                 }
1302:.\Generated_Source\PSoC4/BLE_eventHandler.c ****             #endif /* CYBLE_RTUS_CLIENT */
1303:.\Generated_Source\PSoC4/BLE_eventHandler.c ****             #ifdef CYBLE_SCPS_CLIENT
1304:.\Generated_Source\PSoC4/BLE_eventHandler.c ****                 if((cyBle_eventHandlerFlag & CYBLE_CALLBACK) != 0u)
1305:.\Generated_Source\PSoC4/BLE_eventHandler.c ****                 {
1306:.\Generated_Source\PSoC4/BLE_eventHandler.c ****                     CyBle_ScpscReadResponseEventHandler((CYBLE_GATTC_READ_RSP_PARAM_T *)eventParam)
1307:.\Generated_Source\PSoC4/BLE_eventHandler.c ****                 }
ARM GAS  C:\Users\Lonnie\AppData\Local\Temp\ccJOwa1B.s 			page 32


1308:.\Generated_Source\PSoC4/BLE_eventHandler.c ****             #endif /* CYBLE_SCPS_CLIENT */
1309:.\Generated_Source\PSoC4/BLE_eventHandler.c ****             #ifdef CYBLE_TPS_CLIENT
1310:.\Generated_Source\PSoC4/BLE_eventHandler.c ****                 if((cyBle_eventHandlerFlag & CYBLE_CALLBACK) != 0u)
1311:.\Generated_Source\PSoC4/BLE_eventHandler.c ****                 {
1312:.\Generated_Source\PSoC4/BLE_eventHandler.c ****                     CyBle_TpscReadResponseEventHandler((CYBLE_GATTC_READ_RSP_PARAM_T *)eventParam);
1313:.\Generated_Source\PSoC4/BLE_eventHandler.c ****                 }
1314:.\Generated_Source\PSoC4/BLE_eventHandler.c ****             #endif /* CYBLE_TPS_CLIENT */
1315:.\Generated_Source\PSoC4/BLE_eventHandler.c ****             break;
1316:.\Generated_Source\PSoC4/BLE_eventHandler.c **** 
1317:.\Generated_Source\PSoC4/BLE_eventHandler.c ****         case CYBLE_EVT_GATTC_WRITE_RSP:
1318:.\Generated_Source\PSoC4/BLE_eventHandler.c ****             CyBle_GattcWriteResponseEventHandler((CYBLE_CONN_HANDLE_T *)eventParam);
1319:.\Generated_Source\PSoC4/BLE_eventHandler.c ****             break;
1320:.\Generated_Source\PSoC4/BLE_eventHandler.c ****             
1321:.\Generated_Source\PSoC4/BLE_eventHandler.c ****     #endif /* CYBLE_GATT_ROLE_CLIENT */
1322:.\Generated_Source\PSoC4/BLE_eventHandler.c **** 
1323:.\Generated_Source\PSoC4/BLE_eventHandler.c ****     #if((CYBLE_GAP_ROLE_PERIPHERAL || CYBLE_GAP_ROLE_CENTRAL) && (CYBLE_BONDING_REQUIREMENT == CYBL
1324:.\Generated_Source\PSoC4/BLE_eventHandler.c **** 
1325:.\Generated_Source\PSoC4/BLE_eventHandler.c ****         case CYBLE_EVT_PENDING_FLASH_WRITE:
1326:.\Generated_Source\PSoC4/BLE_eventHandler.c ****             cyBle_pendingFlashWrite |= CYBLE_PENDING_STACK_FLASH_WRITE_BIT;
1327:.\Generated_Source\PSoC4/BLE_eventHandler.c ****             break;
1328:.\Generated_Source\PSoC4/BLE_eventHandler.c ****         
1329:.\Generated_Source\PSoC4/BLE_eventHandler.c ****     #endif  /* (CYBLE_BONDING_REQUIREMENT == CYBLE_BONDING_YES) */
1330:.\Generated_Source\PSoC4/BLE_eventHandler.c ****         default:
1331:.\Generated_Source\PSoC4/BLE_eventHandler.c ****             break;
 459              		.loc 1 1331 0
 460 0042 2CE1     		b	.L48
 461              	.L29:
 772:.\Generated_Source\PSoC4/BLE_eventHandler.c ****     {
 462              		.loc 1 772 0
 463 0044 272B     		cmp	r3, #39
 464 0046 00D1     		bne	.LCB386
 465 0048 83E0     		b	.L33	@long jump
 466              	.LCB386:
 467 004a 282B     		cmp	r3, #40
 468 004c 00D1     		bne	.LCB388
 469 004e 88E0     		b	.L34	@long jump
 470              	.LCB388:
 471 0050 262B     		cmp	r3, #38
 472 0052 00D1     		bne	.LCB390
 473 0054 89E0     		b	.L35	@long jump
 474              	.LCB390:
 475              		.loc 1 1331 0
 476 0056 22E1     		b	.L48
 477              	.L27:
 772:.\Generated_Source\PSoC4/BLE_eventHandler.c ****     {
 478              		.loc 1 772 0
 479 0058 4C2B     		cmp	r3, #76
 480 005a 00D1     		bne	.LCB396
 481 005c 0CE1     		b	.L36	@long jump
 482              	.LCB396:
 483 005e 09DC     		bgt	.L37
 484 0060 422B     		cmp	r3, #66
 485 0062 00D1     		bne	.LCB400
 486 0064 E8E0     		b	.L38	@long jump
 487              	.LCB400:
 488 0066 432B     		cmp	r3, #67
 489 0068 00D1     		bne	.LCB402
ARM GAS  C:\Users\Lonnie\AppData\Local\Temp\ccJOwa1B.s 			page 33


 490 006a E8E0     		b	.L39	@long jump
 491              	.LCB402:
 492 006c 412B     		cmp	r3, #65
 493 006e 00D1     		bne	.LCB404
 494 0070 C7E0     		b	.L40	@long jump
 495              	.LCB404:
 496              		.loc 1 1331 0
 497 0072 14E1     		b	.L48
 498              	.L37:
 772:.\Generated_Source\PSoC4/BLE_eventHandler.c ****     {
 499              		.loc 1 772 0
 500 0074 542B     		cmp	r3, #84
 501 0076 00D1     		bne	.LCB410
 502 0078 03E1     		b	.L41	@long jump
 503              	.LCB410:
 504 007a 03DC     		bgt	.L42
 505 007c 4E2B     		cmp	r3, #78
 506 007e 00D1     		bne	.LCB414
 507 0080 0CE1     		b	.L57	@long jump
 508              	.LCB414:
 509              		.loc 1 1331 0
 510 0082 0CE1     		b	.L48
 511              	.L42:
 772:.\Generated_Source\PSoC4/BLE_eventHandler.c ****     {
 512              		.loc 1 772 0
 513 0084 712B     		cmp	r3, #113
 514 0086 00D1     		bne	.LCB420
 515 0088 B5E0     		b	.L44	@long jump
 516              	.LCB420:
 517 008a FA2B     		cmp	r3, #250
 518 008c 00D1     		bne	.LCB422
 519 008e FDE0     		b	.L45	@long jump
 520              	.LCB422:
 521              		.loc 1 1331 0
 522 0090 05E1     		b	.L48
 523              	.L32:
 524              	.LBB3:
 783:.\Generated_Source\PSoC4/BLE_eventHandler.c ****             bleSsPowerLevel.bleSsChId = CYBLE_LL_ADV_CH_TYPE;
 525              		.loc 1 783 0
 526 0092 0C23     		mov	r3, #12
 527 0094 FB18     		add	r3, r7, r3
 528 0096 0822     		mov	r2, #8
 529 0098 1A70     		strb	r2, [r3]
 784:.\Generated_Source\PSoC4/BLE_eventHandler.c ****             (void) CyBle_SetTxPowerLevel (&bleSsPowerLevel);
 530              		.loc 1 784 0
 531 009a 0C23     		mov	r3, #12
 532 009c FB18     		add	r3, r7, r3
 533 009e 0022     		mov	r2, #0
 534 00a0 5A70     		strb	r2, [r3, #1]
 785:.\Generated_Source\PSoC4/BLE_eventHandler.c ****             bleSsPowerLevel.bleSsChId = CYBLE_LL_CONN_CH_TYPE;
 535              		.loc 1 785 0
 536 00a2 0C23     		mov	r3, #12
 537 00a4 FB18     		add	r3, r7, r3
 538 00a6 181C     		mov	r0, r3
 539 00a8 FFF7FEFF 		bl	CyBle_SetTxPowerLevel
 786:.\Generated_Source\PSoC4/BLE_eventHandler.c ****             (void) CyBle_SetTxPowerLevel (&bleSsPowerLevel);
 540              		.loc 1 786 0
ARM GAS  C:\Users\Lonnie\AppData\Local\Temp\ccJOwa1B.s 			page 34


 541 00ac 0C23     		mov	r3, #12
 542 00ae FB18     		add	r3, r7, r3
 543 00b0 0122     		mov	r2, #1
 544 00b2 5A70     		strb	r2, [r3, #1]
 787:.\Generated_Source\PSoC4/BLE_eventHandler.c ****         }
 545              		.loc 1 787 0
 546 00b4 0C23     		mov	r3, #12
 547 00b6 FB18     		add	r3, r7, r3
 548 00b8 181C     		mov	r0, r3
 549 00ba FFF7FEFF 		bl	CyBle_SetTxPowerLevel
 550              	.LBE3:
 792:.\Generated_Source\PSoC4/BLE_eventHandler.c ****             {
 551              		.loc 1 792 0
 552 00be 864B     		ldr	r3, .L58+4
 553 00c0 1B68     		ldr	r3, [r3]
 554 00c2 181C     		mov	r0, r3
 555 00c4 FFF7FEFF 		bl	CyBle_IsDeviceAddressValid
 556 00c8 031E     		sub	r3, r0, #0
 557 00ca 05D0     		beq	.L46
 794:.\Generated_Source\PSoC4/BLE_eventHandler.c ****             }
 558              		.loc 1 794 0
 559 00cc 824B     		ldr	r3, .L58+4
 560 00ce 1B68     		ldr	r3, [r3]
 561 00d0 181C     		mov	r0, r3
 562 00d2 FFF7FEFF 		bl	CyBle_SetDeviceAddress
 563 00d6 0FE0     		b	.L47
 564              	.L46:
 799:.\Generated_Source\PSoC4/BLE_eventHandler.c ****                 cyBle_deviceAddress.bdAddr[1] = CYBLE_SFLASH_DIE_Y_REG;
 565              		.loc 1 799 0
 566 00d8 804B     		ldr	r3, .L58+8
 567 00da 1A78     		ldrb	r2, [r3]
 568 00dc 804B     		ldr	r3, .L58+12
 569 00de 1A70     		strb	r2, [r3]
 800:.\Generated_Source\PSoC4/BLE_eventHandler.c ****                 cyBle_deviceAddress.bdAddr[2] = CYBLE_SFLASH_DIE_WAFER_REG;
 570              		.loc 1 800 0
 571 00e0 804B     		ldr	r3, .L58+16
 572 00e2 1A78     		ldrb	r2, [r3]
 573 00e4 7E4B     		ldr	r3, .L58+12
 574 00e6 5A70     		strb	r2, [r3, #1]
 801:.\Generated_Source\PSoC4/BLE_eventHandler.c ****             #endif /* SILICON_GENERATED_DEVICE_ADDRESS != 0u */
 575              		.loc 1 801 0
 576 00e8 7F4B     		ldr	r3, .L58+20
 577 00ea 1A78     		ldrb	r2, [r3]
 578 00ec 7C4B     		ldr	r3, .L58+12
 579 00ee 9A70     		strb	r2, [r3, #2]
 803:.\Generated_Source\PSoC4/BLE_eventHandler.c ****             }
 580              		.loc 1 803 0
 581 00f0 7B4B     		ldr	r3, .L58+12
 582 00f2 181C     		mov	r0, r3
 583 00f4 FFF7FEFF 		bl	CyBle_SetDeviceAddress
 584              	.L47:
 806:.\Generated_Source\PSoC4/BLE_eventHandler.c ****         #endif /* CYBLE_GATT_ROLE_SERVER || CYBLE_GATT_ROLE_CLIENT */
 585              		.loc 1 806 0
 586 00f8 0020     		mov	r0, #0
 587 00fa FFF7FEFF 		bl	CyBle_GapSetIoCap
 808:.\Generated_Source\PSoC4/BLE_eventHandler.c ****             break;
 588              		.loc 1 808 0
ARM GAS  C:\Users\Lonnie\AppData\Local\Temp\ccJOwa1B.s 			page 35


 589 00fe 7B4B     		ldr	r3, .L58+24
 590 0100 0422     		mov	r2, #4
 591 0102 1A70     		strb	r2, [r3]
 809:.\Generated_Source\PSoC4/BLE_eventHandler.c ****         case CYBLE_EVT_TIMEOUT:
 592              		.loc 1 809 0
 593 0104 CBE0     		b	.L48
 594              	.L30:
 811:.\Generated_Source\PSoC4/BLE_eventHandler.c ****             break;
 595              		.loc 1 811 0
 596 0106 3B68     		ldr	r3, [r7]
 597 0108 181C     		mov	r0, r3
 598 010a FFF7FEFF 		bl	CyBle_TimeOutEventHandler
 812:.\Generated_Source\PSoC4/BLE_eventHandler.c ****     	case CYBLE_EVT_STACK_BUSY_STATUS:
 599              		.loc 1 812 0
 600 010e C6E0     		b	.L48
 601              	.L31:
 814:.\Generated_Source\PSoC4/BLE_eventHandler.c ****             break;
 602              		.loc 1 814 0
 603 0110 3B68     		ldr	r3, [r7]
 604 0112 1A78     		ldrb	r2, [r3]
 605 0114 764B     		ldr	r3, .L58+28
 606 0116 1A70     		strb	r2, [r3]
 815:.\Generated_Source\PSoC4/BLE_eventHandler.c **** 
 607              		.loc 1 815 0
 608 0118 C1E0     		b	.L48
 609              	.L28:
 822:.\Generated_Source\PSoC4/BLE_eventHandler.c ****             {
 610              		.loc 1 822 0
 611 011a 6E4B     		ldr	r3, .L58
 612 011c 1B78     		ldrb	r3, [r3]
 613 011e DBB2     		uxtb	r3, r3
 614 0120 1A1C     		mov	r2, r3
 615 0122 2023     		mov	r3, #32
 616 0124 1340     		and	r3, r2
 617 0126 0ED1     		bne	.L49
 829:.\Generated_Source\PSoC4/BLE_eventHandler.c ****                 {
 618              		.loc 1 829 0
 619 0128 724B     		ldr	r3, .L58+32
 620 012a 1B78     		ldrb	r3, [r3]
 621 012c 102B     		cmp	r3, #16
 622 012e 02D1     		bne	.L50
 831:.\Generated_Source\PSoC4/BLE_eventHandler.c ****                 }    
 623              		.loc 1 831 0
 624 0130 704B     		ldr	r3, .L58+32
 625 0132 0522     		mov	r2, #5
 626 0134 DA70     		strb	r2, [r3, #3]
 627              	.L50:
 834:.\Generated_Source\PSoC4/BLE_eventHandler.c ****             #endif /* CYBLE_GAP_ROLE_PERIPHERAL */
 628              		.loc 1 834 0
 629 0136 704B     		ldr	r3, .L58+36
 630 0138 1A78     		ldrb	r2, [r3]
 631 013a 6E4B     		ldr	r3, .L58+32
 632 013c 101C     		mov	r0, r2
 633 013e 191C     		mov	r1, r3
 634 0140 FFF7FEFF 		bl	CyBle_GappAuthReqReply
 841:.\Generated_Source\PSoC4/BLE_eventHandler.c **** 
 635              		.loc 1 841 0
ARM GAS  C:\Users\Lonnie\AppData\Local\Temp\ccJOwa1B.s 			page 36


 636 0144 ABE0     		b	.L48
 637              	.L49:
 638 0146 AAE0     		b	.L48
 639              	.L26:
 844:.\Generated_Source\PSoC4/BLE_eventHandler.c ****             break;
 640              		.loc 1 844 0
 641 0148 3B68     		ldr	r3, [r7]
 642 014a 181C     		mov	r0, r3
 643 014c FFF7FEFF 		bl	CyBle_GapConnUpdateCompleteEventHandler
 845:.\Generated_Source\PSoC4/BLE_eventHandler.c ****         case CYBLE_EVT_GAP_DEVICE_CONNECTED:
 644              		.loc 1 845 0
 645 0150 A5E0     		b	.L48
 646              	.L33:
 847:.\Generated_Source\PSoC4/BLE_eventHandler.c ****             #if(CYBLE_GAP_ROLE_CENTRAL)
 647              		.loc 1 847 0
 648 0152 3B68     		ldr	r3, [r7]
 649 0154 181C     		mov	r0, r3
 650 0156 FFF7FEFF 		bl	CyBle_GapConnUpdateCompleteEventHandler
 854:.\Generated_Source\PSoC4/BLE_eventHandler.c ****             break;
 651              		.loc 1 854 0
 652 015a 644B     		ldr	r3, .L58+24
 653 015c 0222     		mov	r2, #2
 654 015e 1A70     		strb	r2, [r3]
 855:.\Generated_Source\PSoC4/BLE_eventHandler.c **** 
 655              		.loc 1 855 0
 656 0160 9DE0     		b	.L48
 657              	.L34:
 858:.\Generated_Source\PSoC4/BLE_eventHandler.c ****             break;
 658              		.loc 1 858 0
 659 0162 624B     		ldr	r3, .L58+24
 660 0164 0422     		mov	r2, #4
 661 0166 1A70     		strb	r2, [r3]
 859:.\Generated_Source\PSoC4/BLE_eventHandler.c ****             
 662              		.loc 1 859 0
 663 0168 99E0     		b	.L48
 664              	.L35:
 870:.\Generated_Source\PSoC4/BLE_eventHandler.c ****             {
 665              		.loc 1 870 0
 666 016a 604B     		ldr	r3, .L58+24
 667 016c 1B78     		ldrb	r3, [r3]
 668 016e 022B     		cmp	r3, #2
 669 0170 40D0     		beq	.L51
 870:.\Generated_Source\PSoC4/BLE_eventHandler.c ****             {
 670              		.loc 1 870 0 is_stmt 0 discriminator 1
 671 0172 584B     		ldr	r3, .L58
 672 0174 1B78     		ldrb	r3, [r3]
 673 0176 DBB2     		uxtb	r3, r3
 674 0178 1A1C     		mov	r2, r3
 675 017a 0123     		mov	r3, #1
 676 017c 1340     		and	r3, r2
 677 017e 39D0     		beq	.L51
 873:.\Generated_Source\PSoC4/BLE_eventHandler.c ****                 {
 678              		.loc 1 873 0 is_stmt 1
 679 0180 544B     		ldr	r3, .L58
 680 0182 1B78     		ldrb	r3, [r3]
 681 0184 DBB2     		uxtb	r3, r3
 682 0186 1A1C     		mov	r2, r3
ARM GAS  C:\Users\Lonnie\AppData\Local\Temp\ccJOwa1B.s 			page 37


 683 0188 0423     		mov	r3, #4
 684 018a 1340     		and	r3, r2
 685 018c 0BD0     		beq	.L52
 875:.\Generated_Source\PSoC4/BLE_eventHandler.c ****                     cyBle_eventHandlerFlag &= (uint8)~CYBLE_START_FLAG;
 686              		.loc 1 875 0
 687 018e 574B     		ldr	r3, .L58+24
 688 0190 0322     		mov	r2, #3
 689 0192 1A70     		strb	r2, [r3]
 876:.\Generated_Source\PSoC4/BLE_eventHandler.c ****                 }
 690              		.loc 1 876 0
 691 0194 4F4B     		ldr	r3, .L58
 692 0196 1B78     		ldrb	r3, [r3]
 693 0198 DBB2     		uxtb	r3, r3
 694 019a 0422     		mov	r2, #4
 695 019c 9343     		bic	r3, r2
 696 019e DAB2     		uxtb	r2, r3
 697 01a0 4C4B     		ldr	r3, .L58
 698 01a2 1A70     		strb	r2, [r3]
 699 01a4 26E0     		b	.L51
 700              	.L52:
 879:.\Generated_Source\PSoC4/BLE_eventHandler.c ****                 {
 701              		.loc 1 879 0
 702 01a6 4B4B     		ldr	r3, .L58
 703 01a8 1B78     		ldrb	r3, [r3]
 704 01aa DBB2     		uxtb	r3, r3
 705 01ac 1A1C     		mov	r2, r3
 706 01ae 0823     		mov	r3, #8
 707 01b0 1340     		and	r3, r2
 708 01b2 0BD0     		beq	.L53
 881:.\Generated_Source\PSoC4/BLE_eventHandler.c ****                     cyBle_eventHandlerFlag &= (uint8)~CYBLE_STOP_FLAG;
 709              		.loc 1 881 0
 710 01b4 4D4B     		ldr	r3, .L58+24
 711 01b6 0422     		mov	r2, #4
 712 01b8 1A70     		strb	r2, [r3]
 882:.\Generated_Source\PSoC4/BLE_eventHandler.c ****                 }
 713              		.loc 1 882 0
 714 01ba 464B     		ldr	r3, .L58
 715 01bc 1B78     		ldrb	r3, [r3]
 716 01be DBB2     		uxtb	r3, r3
 717 01c0 0822     		mov	r2, #8
 718 01c2 9343     		bic	r3, r2
 719 01c4 DAB2     		uxtb	r2, r3
 720 01c6 434B     		ldr	r3, .L58
 721 01c8 1A70     		strb	r2, [r3]
 722 01ca 13E0     		b	.L51
 723              	.L53:
 886:.\Generated_Source\PSoC4/BLE_eventHandler.c ****                     {
 724              		.loc 1 886 0
 725 01cc 474B     		ldr	r3, .L58+24
 726 01ce 1B78     		ldrb	r3, [r3]
 727 01d0 032B     		cmp	r3, #3
 728 01d2 0FD1     		bne	.L51
 888:.\Generated_Source\PSoC4/BLE_eventHandler.c ****                     #if (CYBLE_SLOW_ADV_ENABLED != 0u)
 729              		.loc 1 888 0
 730 01d4 454B     		ldr	r3, .L58+24
 731 01d6 0422     		mov	r2, #4
 732 01d8 1A70     		strb	r2, [r3]
ARM GAS  C:\Users\Lonnie\AppData\Local\Temp\ccJOwa1B.s 			page 38


 890:.\Generated_Source\PSoC4/BLE_eventHandler.c ****                         {
 733              		.loc 1 890 0
 734 01da 484B     		ldr	r3, .L58+40
 735 01dc 1B78     		ldrb	r3, [r3]
 736 01de 002B     		cmp	r3, #0
 737 01e0 08D1     		bne	.L51
 893:.\Generated_Source\PSoC4/BLE_eventHandler.c ****                             {
 738              		.loc 1 893 0
 739 01e2 0120     		mov	r0, #1
 740 01e4 FFF7FEFF 		bl	CyBle_GappStartAdvertisement
 741 01e8 031E     		sub	r3, r0, #0
 742 01ea 03D1     		bne	.L51
 895:.\Generated_Source\PSoC4/BLE_eventHandler.c ****                             }
 743              		.loc 1 895 0
 744 01ec 3F4B     		ldr	r3, .L58+24
 745 01ee 0322     		mov	r2, #3
 746 01f0 1A70     		strb	r2, [r3]
 902:.\Generated_Source\PSoC4/BLE_eventHandler.c ****         #endif /* CYBLE_GAP_ROLE_PERIPHERAL || CYBLE_GAP_ROLE_BROADCASTER */
 747              		.loc 1 902 0
 748 01f2 54E0     		b	.L48
 749              	.L51:
 750 01f4 53E0     		b	.L48
 751              	.L44:
 951:.\Generated_Source\PSoC4/BLE_eventHandler.c ****             break;
 752              		.loc 1 951 0
 753 01f6 3B68     		ldr	r3, [r7]
 754 01f8 1B88     		ldrh	r3, [r3]
 755 01fa 181C     		mov	r0, r3
 756 01fc FFF7FEFF 		bl	CyBle_L2Cap_ConnParamUpdateRspEventHandler
 952:.\Generated_Source\PSoC4/BLE_eventHandler.c ****         
 757              		.loc 1 952 0
 758 0200 4DE0     		b	.L48
 759              	.L40:
 958:.\Generated_Source\PSoC4/BLE_eventHandler.c ****             
 760              		.loc 1 958 0
 761 0202 3D4A     		ldr	r2, .L58+36
 762 0204 3B68     		ldr	r3, [r7]
 763 0206 111C     		mov	r1, r2
 764 0208 1A1C     		mov	r2, r3
 765 020a 0223     		mov	r3, #2
 766 020c 081C     		mov	r0, r1
 767 020e 111C     		mov	r1, r2
 768 0210 1A1C     		mov	r2, r3
 769 0212 FFF7FEFF 		bl	memcpy
 962:.\Generated_Source\PSoC4/BLE_eventHandler.c ****                             CYBLE_GATT_DB_CCCD_COUNT);
 770              		.loc 1 962 0
 771 0216 384B     		ldr	r3, .L58+36
 772 0218 1B78     		ldrb	r3, [r3]
 773 021a DA00     		lsl	r2, r3, #3
 774 021c 384B     		ldr	r3, .L58+44
 775 021e D318     		add	r3, r2, r3
 776 0220 384A     		ldr	r2, .L58+48
 777 0222 111C     		mov	r1, r2
 778 0224 1A1C     		mov	r2, r3
 779 0226 0823     		mov	r3, #8
 780 0228 081C     		mov	r0, r1
 781 022a 111C     		mov	r1, r2
ARM GAS  C:\Users\Lonnie\AppData\Local\Temp\ccJOwa1B.s 			page 39


 782 022c 1A1C     		mov	r2, r3
 783 022e FFF7FEFF 		bl	memcpy
 970:.\Generated_Source\PSoC4/BLE_eventHandler.c ****             break;
 784              		.loc 1 970 0
 785 0232 FFF7FEFF 		bl	CyBle_GattConnectReqHandler
 971:.\Generated_Source\PSoC4/BLE_eventHandler.c **** 
 786              		.loc 1 971 0
 787 0236 32E0     		b	.L48
 788              	.L38:
 974:.\Generated_Source\PSoC4/BLE_eventHandler.c ****             break;
 789              		.loc 1 974 0
 790 0238 FFF7FEFF 		bl	CyBle_GattDisconnectEventHandler
 975:.\Generated_Source\PSoC4/BLE_eventHandler.c **** 
 791              		.loc 1 975 0
 792 023c 2FE0     		b	.L48
 793              	.L39:
 794              	.LBB4:
 981:.\Generated_Source\PSoC4/BLE_eventHandler.c ****             {
 795              		.loc 1 981 0
 796 023e 3B68     		ldr	r3, [r7]
 797 0240 5B88     		ldrh	r3, [r3, #2]
 798 0242 162B     		cmp	r3, #22
 799 0244 05D8     		bhi	.L54
 983:.\Generated_Source\PSoC4/BLE_eventHandler.c ****             }
 800              		.loc 1 983 0
 801 0246 0E23     		mov	r3, #14
 802 0248 FB18     		add	r3, r7, r3
 803 024a 3A68     		ldr	r2, [r7]
 804 024c 5288     		ldrh	r2, [r2, #2]
 805 024e 1A80     		strh	r2, [r3]
 806 0250 03E0     		b	.L55
 807              	.L54:
 987:.\Generated_Source\PSoC4/BLE_eventHandler.c ****             }
 808              		.loc 1 987 0
 809 0252 0E23     		mov	r3, #14
 810 0254 FB18     		add	r3, r7, r3
 811 0256 1722     		mov	r2, #23
 812 0258 1A80     		strh	r2, [r3]
 813              	.L55:
 989:.\Generated_Source\PSoC4/BLE_eventHandler.c ****              }
 814              		.loc 1 989 0
 815 025a 3B68     		ldr	r3, [r7]
 816 025c 0E22     		mov	r2, #14
 817 025e BA18     		add	r2, r7, r2
 818 0260 1188     		ldrh	r1, [r2]
 819 0262 1A88     		ldrh	r2, [r3]
 820 0264 0023     		mov	r3, #0
 821 0266 1204     		lsl	r2, r2, #16
 822 0268 120C     		lsr	r2, r2, #16
 823 026a 1B0C     		lsr	r3, r3, #16
 824 026c 1B04     		lsl	r3, r3, #16
 825 026e 1343     		orr	r3, r2
 826 0270 181C     		mov	r0, r3
 827 0272 FFF7FEFF 		bl	CyBle_GattsExchangeMtuRsp
 828              	.LBE4:
 991:.\Generated_Source\PSoC4/BLE_eventHandler.c ****     #endif /* (CYBLE_GATT_ROLE_SERVER) || (CYBLE_GATT_ROLE_CLIENT) */
 829              		.loc 1 991 0
ARM GAS  C:\Users\Lonnie\AppData\Local\Temp\ccJOwa1B.s 			page 40


 830 0276 12E0     		b	.L48
 831              	.L36:
1004:.\Generated_Source\PSoC4/BLE_eventHandler.c ****             break;
 832              		.loc 1 1004 0
 833 0278 3B68     		ldr	r3, [r7]
 834 027a 181C     		mov	r0, r3
 835 027c FFF7FEFF 		bl	CyBle_WriteReqHandler
1005:.\Generated_Source\PSoC4/BLE_eventHandler.c **** 
 836              		.loc 1 1005 0
 837 0280 0DE0     		b	.L48
 838              	.L41:
1041:.\Generated_Source\PSoC4/BLE_eventHandler.c ****             break;
 839              		.loc 1 1041 0
 840 0282 3B68     		ldr	r3, [r7]
 841 0284 181C     		mov	r0, r3
 842 0286 FFF7FEFF 		bl	CyBle_ValueConfirmation
1042:.\Generated_Source\PSoC4/BLE_eventHandler.c ****     #endif /* CYBLE_GATT_ROLE_SERVER */
 843              		.loc 1 1042 0
 844 028a 08E0     		b	.L48
 845              	.L45:
1326:.\Generated_Source\PSoC4/BLE_eventHandler.c ****             break;
 846              		.loc 1 1326 0
 847 028c 1E4B     		ldr	r3, .L58+52
 848 028e 1B78     		ldrb	r3, [r3]
 849 0290 0122     		mov	r2, #1
 850 0292 1343     		orr	r3, r2
 851 0294 DAB2     		uxtb	r2, r3
 852 0296 1C4B     		ldr	r3, .L58+52
 853 0298 1A70     		strb	r2, [r3]
1327:.\Generated_Source\PSoC4/BLE_eventHandler.c ****         
 854              		.loc 1 1327 0
 855 029a 00E0     		b	.L48
 856              	.L57:
1038:.\Generated_Source\PSoC4/BLE_eventHandler.c ****             
 857              		.loc 1 1038 0
 858 029c C046     		mov	r8, r8
 859              	.L48:
1332:.\Generated_Source\PSoC4/BLE_eventHandler.c ****     }
1333:.\Generated_Source\PSoC4/BLE_eventHandler.c **** 
1334:.\Generated_Source\PSoC4/BLE_eventHandler.c ****     if(0u != (cyBle_eventHandlerFlag & (CYBLE_CALLBACK | CYBLE_ENABLE_ALL_EVENTS))) 
 860              		.loc 1 1334 0
 861 029e 0D4B     		ldr	r3, .L58
 862 02a0 1B78     		ldrb	r3, [r3]
 863 02a2 DBB2     		uxtb	r3, r3
 864 02a4 1A1C     		mov	r2, r3
 865 02a6 1123     		mov	r3, #17
 866 02a8 1340     		and	r3, r2
 867 02aa 0FD0     		beq	.L24
1335:.\Generated_Source\PSoC4/BLE_eventHandler.c ****     {
1336:.\Generated_Source\PSoC4/BLE_eventHandler.c ****         cyBle_eventHandlerFlag &= (uint8)~CYBLE_CALLBACK;
 868              		.loc 1 1336 0
 869 02ac 094B     		ldr	r3, .L58
 870 02ae 1B78     		ldrb	r3, [r3]
 871 02b0 DBB2     		uxtb	r3, r3
 872 02b2 0122     		mov	r2, #1
 873 02b4 9343     		bic	r3, r2
 874 02b6 DAB2     		uxtb	r2, r3
ARM GAS  C:\Users\Lonnie\AppData\Local\Temp\ccJOwa1B.s 			page 41


 875 02b8 064B     		ldr	r3, .L58
 876 02ba 1A70     		strb	r2, [r3]
1337:.\Generated_Source\PSoC4/BLE_eventHandler.c ****         CyBle_ApplCallback((uint32)eventCode, eventParam);
 877              		.loc 1 1337 0
 878 02bc 134B     		ldr	r3, .L58+56
 879 02be 1B68     		ldr	r3, [r3]
 880 02c0 FA1D     		add	r2, r7, #7
 881 02c2 1178     		ldrb	r1, [r2]
 882 02c4 3A68     		ldr	r2, [r7]
 883 02c6 081C     		mov	r0, r1
 884 02c8 111C     		mov	r1, r2
 885 02ca 9847     		blx	r3
 886              	.L24:
1338:.\Generated_Source\PSoC4/BLE_eventHandler.c ****     }
1339:.\Generated_Source\PSoC4/BLE_eventHandler.c **** 
1340:.\Generated_Source\PSoC4/BLE_eventHandler.c **** }
 887              		.loc 1 1340 0
 888 02cc BD46     		mov	sp, r7
 889 02ce 04B0     		add	sp, sp, #16
 890              		@ sp needed
 891 02d0 80BD     		pop	{r7, pc}
 892              	.L59:
 893 02d2 C046     		.align	2
 894              	.L58:
 895 02d4 00000000 		.word	cyBle_eventHandlerFlag
 896 02d8 00000000 		.word	cyBle_sflashDeviceAddress
 897 02dc 7CF1FF0F 		.word	268431740
 898 02e0 00000000 		.word	cyBle_deviceAddress
 899 02e4 7DF1FF0F 		.word	268431741
 900 02e8 7BF1FF0F 		.word	268431739
 901 02ec 00000000 		.word	cyBle_state
 902 02f0 00000000 		.word	cyBle_busStatus
 903 02f4 00000000 		.word	cyBle_authInfo
 904 02f8 00000000 		.word	cyBle_connHandle
 905 02fc 00000000 		.word	cyBle_advertisingIntervalType
 906 0300 00000000 		.word	cyBle_attValuesCCCDFlashMemory
 907 0304 00000000 		.word	cyBle_attValuesCCCD
 908 0308 00000000 		.word	cyBle_pendingFlashWrite
 909 030c 00000000 		.word	CyBle_ApplCallback
 910              		.cfi_endproc
 911              	.LFE10:
 912              		.size	CyBle_EventHandler, .-CyBle_EventHandler
 913              		.text
 914              	.Letext0:
 915              		.file 2 ".\\Generated_Source\\PSoC4\\cytypes.h"
 916              		.file 3 ".\\Generated_Source\\PSoC4\\BLE_Stack.h"
 917              		.file 4 ".\\Generated_Source\\PSoC4\\BLE_StackHostMain.h"
 918              		.file 5 ".\\Generated_Source\\PSoC4\\BLE_StackGap.h"
 919              		.file 6 ".\\Generated_Source\\PSoC4\\BLE_StackGatt.h"
 920              		.file 7 ".\\Generated_Source\\PSoC4\\BLE_StackGattServer.h"
 921              		.file 8 ".\\Generated_Source\\PSoC4\\BLE.h"
 922              		.file 9 ".\\Generated_Source\\PSoC4\\BLE_dis.h"
 923              		.file 10 ".\\Generated_Source\\PSoC4\\BLE_hts.h"
 924              		.file 11 ".\\Generated_Source\\PSoC4\\BLE_eventHandler.h"
 925              		.file 12 ".\\Generated_Source\\PSoC4\\BLE_gatt.h"