ARM GAS  C:\Users\Lonnie\AppData\Local\Temp\ccJOwa1B.s 			page 1


   1              		.cpu cortex-m0
   2              		.fpu softvfp
   3              		.eabi_attribute 20, 1
   4              		.eabi_attribute 21, 1
   5              		.eabi_attribute 23, 3
   6              		.eabi_attribute 24, 1
   7              		.eabi_attribute 25, 1
   8              		.eabi_attribute 26, 1
   9              		.eabi_attribute 30, 6
  10              		.eabi_attribute 34, 0
  11              		.eabi_attribute 18, 4
  12              		.code	16
  13              		.file	"BLE_eventHandler.c"
  14              		.text
  15              	.Ltext0:
  16              		.cfi_sections	.debug_frame
  17              		.comm	cyBle_eventHandlerFlag,1,1
  18              		.comm	cyBle_connHandle,2,4
  19              		.comm	cyBle_busStatus,1,1
  20              		.comm	cyBle_advertisingIntervalType,1,1
  21              		.global	cyBle_authInfo
  22              		.data
  23              		.align	2
  24              		.type	cyBle_authInfo, %object
  25              		.size	cyBle_authInfo, 4
  26              	cyBle_authInfo:
  27 0000 10       		.byte	16
  28 0001 01       		.byte	1
  29 0002 10       		.byte	16
  30 0003 00       		.byte	0
  31              		.section	.text.CyBle_WriteReqHandler,"ax",%progbits
  32              		.align	2
  33              		.code	16
  34              		.thumb_func
  35              		.type	CyBle_WriteReqHandler, %function
  36              	CyBle_WriteReqHandler:
  37              	.LFB2:
  38              		.file 1 ".\\Generated_Source\\PSoC4\\BLE_eventHandler.c"
   1:.\Generated_Source\PSoC4/BLE_eventHandler.c **** /*******************************************************************************
   2:.\Generated_Source\PSoC4/BLE_eventHandler.c **** File Name: CYBLE_eventHandler.c
   3:.\Generated_Source\PSoC4/BLE_eventHandler.c **** Version 1.10
   4:.\Generated_Source\PSoC4/BLE_eventHandler.c **** 
   5:.\Generated_Source\PSoC4/BLE_eventHandler.c **** Description:
   6:.\Generated_Source\PSoC4/BLE_eventHandler.c ****  This file contains the source code for the Event Handler State Machine
   7:.\Generated_Source\PSoC4/BLE_eventHandler.c ****  of the BLE Component.
   8:.\Generated_Source\PSoC4/BLE_eventHandler.c **** 
   9:.\Generated_Source\PSoC4/BLE_eventHandler.c **** ********************************************************************************
  10:.\Generated_Source\PSoC4/BLE_eventHandler.c **** Copyright 2014, Cypress Semiconductor Corporation.  All rights reserved.
  11:.\Generated_Source\PSoC4/BLE_eventHandler.c **** You may use this file only in accordance with the license, terms, conditions,
  12:.\Generated_Source\PSoC4/BLE_eventHandler.c **** disclaimers, and limitations in the end user license agreement accompanying
  13:.\Generated_Source\PSoC4/BLE_eventHandler.c **** the software package with which this file was provided.
  14:.\Generated_Source\PSoC4/BLE_eventHandler.c **** *******************************************************************************/
  15:.\Generated_Source\PSoC4/BLE_eventHandler.c **** 
  16:.\Generated_Source\PSoC4/BLE_eventHandler.c **** #include "BLE_eventHandler.h"
  17:.\Generated_Source\PSoC4/BLE_eventHandler.c **** 
  18:.\Generated_Source\PSoC4/BLE_eventHandler.c **** 
  19:.\Generated_Source\PSoC4/BLE_eventHandler.c **** /***************************************
ARM GAS  C:\Users\Lonnie\AppData\Local\Temp\ccJOwa1B.s 			page 2


  20:.\Generated_Source\PSoC4/BLE_eventHandler.c **** ##Private Function Prototypes
  21:.\Generated_Source\PSoC4/BLE_eventHandler.c **** ***************************************/
  22:.\Generated_Source\PSoC4/BLE_eventHandler.c **** 
  23:.\Generated_Source\PSoC4/BLE_eventHandler.c **** #if (CYBLE_GATT_ROLE_SERVER || CYBLE_GATT_ROLE_CLIENT)
  24:.\Generated_Source\PSoC4/BLE_eventHandler.c **** 
  25:.\Generated_Source\PSoC4/BLE_eventHandler.c **** static uint8 CyBle_IsDeviceAddressValid(const CYBLE_GAP_BD_ADDR_T *sflashDeviceAddress);
  26:.\Generated_Source\PSoC4/BLE_eventHandler.c **** 
  27:.\Generated_Source\PSoC4/BLE_eventHandler.c **** #endif /* (CYBLE_GATT_ROLE_SERVER || CYBLE_GATT_ROLE_CLIENT) */
  28:.\Generated_Source\PSoC4/BLE_eventHandler.c **** 
  29:.\Generated_Source\PSoC4/BLE_eventHandler.c **** static void CyBle_GattDisconnectEventHandler(void);
  30:.\Generated_Source\PSoC4/BLE_eventHandler.c **** static void CyBle_TimeOutEventHandler(const CYBLE_TO_REASON_CODE_T *eventParam);
  31:.\Generated_Source\PSoC4/BLE_eventHandler.c **** static void CyBle_GattConnectReqHandler(void);
  32:.\Generated_Source\PSoC4/BLE_eventHandler.c **** static void CyBle_L2Cap_ConnParamUpdateRspEventHandler(uint16 response);
  33:.\Generated_Source\PSoC4/BLE_eventHandler.c **** static void CyBle_GapConnUpdateCompleteEventHandler(const CYBLE_GAP_CONN_PARAM_UPDATED_IN_CONTROLLE
  34:.\Generated_Source\PSoC4/BLE_eventHandler.c **** 
  35:.\Generated_Source\PSoC4/BLE_eventHandler.c **** 
  36:.\Generated_Source\PSoC4/BLE_eventHandler.c **** #if (CYBLE_GATT_ROLE_SERVER)
  37:.\Generated_Source\PSoC4/BLE_eventHandler.c **** 
  38:.\Generated_Source\PSoC4/BLE_eventHandler.c **** static void CyBle_WriteReqHandler(CYBLE_GATTS_WRITE_REQ_PARAM_T *eventParam);
  39:.\Generated_Source\PSoC4/BLE_eventHandler.c **** static void CyBle_ValueConfirmation(const CYBLE_CONN_HANDLE_T *eventParam);
  40:.\Generated_Source\PSoC4/BLE_eventHandler.c **** 
  41:.\Generated_Source\PSoC4/BLE_eventHandler.c **** #endif /* (CYBLE_GATT_ROLE_SERVER) */
  42:.\Generated_Source\PSoC4/BLE_eventHandler.c **** 
  43:.\Generated_Source\PSoC4/BLE_eventHandler.c **** #if (CYBLE_GATT_ROLE_CLIENT)
  44:.\Generated_Source\PSoC4/BLE_eventHandler.c **** 
  45:.\Generated_Source\PSoC4/BLE_eventHandler.c **** static void CyBle_GapcDiscoverCharacteristicsEventHandler(CYBLE_DISC_CHAR_INFO_T *discCharInfo);
  46:.\Generated_Source\PSoC4/BLE_eventHandler.c **** static CYBLE_GATT_ATTR_HANDLE_RANGE_T CyBle_GetCharRange(void);
  47:.\Generated_Source\PSoC4/BLE_eventHandler.c **** static void CyBle_GattcWriteResponseEventHandler(const CYBLE_CONN_HANDLE_T *eventParam);
  48:.\Generated_Source\PSoC4/BLE_eventHandler.c **** 
  49:.\Generated_Source\PSoC4/BLE_eventHandler.c **** #endif /* (CYBLE_GATT_ROLE_CLIENT) */
  50:.\Generated_Source\PSoC4/BLE_eventHandler.c **** 
  51:.\Generated_Source\PSoC4/BLE_eventHandler.c **** 
  52:.\Generated_Source\PSoC4/BLE_eventHandler.c **** /***************************************
  53:.\Generated_Source\PSoC4/BLE_eventHandler.c **** ##Global Variables
  54:.\Generated_Source\PSoC4/BLE_eventHandler.c **** ***************************************/
  55:.\Generated_Source\PSoC4/BLE_eventHandler.c **** 
  56:.\Generated_Source\PSoC4/BLE_eventHandler.c **** volatile uint8 cyBle_eventHandlerFlag;
  57:.\Generated_Source\PSoC4/BLE_eventHandler.c **** CYBLE_CONN_HANDLE_T cyBle_connHandle;
  58:.\Generated_Source\PSoC4/BLE_eventHandler.c **** volatile uint8 cyBle_busStatus;
  59:.\Generated_Source\PSoC4/BLE_eventHandler.c **** 
  60:.\Generated_Source\PSoC4/BLE_eventHandler.c **** #if(CYBLE_GAP_ROLE_PERIPHERAL || CYBLE_GAP_ROLE_BROADCASTER) 
  61:.\Generated_Source\PSoC4/BLE_eventHandler.c ****     uint8 cyBle_advertisingIntervalType;
  62:.\Generated_Source\PSoC4/BLE_eventHandler.c **** #endif /* (CYBLE_GAP_ROLE_PERIPHERAL || CYBLE_GAP_ROLE_BROADCASTER) */
  63:.\Generated_Source\PSoC4/BLE_eventHandler.c **** 
  64:.\Generated_Source\PSoC4/BLE_eventHandler.c **** #if(CYBLE_GAP_ROLE_CENTRAL || CYBLE_GAP_ROLE_OBSERVER) 
  65:.\Generated_Source\PSoC4/BLE_eventHandler.c ****     uint8 cyBle_scanningIntervalType;
  66:.\Generated_Source\PSoC4/BLE_eventHandler.c **** #endif /* CYBLE_GAP_ROLE_CENTRAL || CYBLE_GAP_ROLE_OBSERVER */
  67:.\Generated_Source\PSoC4/BLE_eventHandler.c **** 
  68:.\Generated_Source\PSoC4/BLE_eventHandler.c **** #if(CYBLE_GATT_ROLE_CLIENT)
  69:.\Generated_Source\PSoC4/BLE_eventHandler.c **** uint8 cyBle_disCount; /* Counter for discovery procedures */
  70:.\Generated_Source\PSoC4/BLE_eventHandler.c **** static CYBLE_GATT_DB_ATTR_HANDLE_T cyBle_charEndHandle;
  71:.\Generated_Source\PSoC4/BLE_eventHandler.c **** #ifdef CYBLE_HIDS_CLIENT
  72:.\Generated_Source\PSoC4/BLE_eventHandler.c ****     static uint8 disServiceIndex;      /* To discovery descriptors for multiple HID service instanc
  73:.\Generated_Source\PSoC4/BLE_eventHandler.c **** #endif /* defined(CYBLE_HIDS_CLIENT) */
  74:.\Generated_Source\PSoC4/BLE_eventHandler.c **** 
  75:.\Generated_Source\PSoC4/BLE_eventHandler.c **** CYBLE_DISC_SRVC_INFO_T cyBle_serverInfo[CYBLE_SRVI_COUNT] = /*4*/
  76:.\Generated_Source\PSoC4/BLE_eventHandler.c **** {
ARM GAS  C:\Users\Lonnie\AppData\Local\Temp\ccJOwa1B.s 			page 3


  77:.\Generated_Source\PSoC4/BLE_eventHandler.c ****     {{CYBLE_GATT_INVALID_ATTR_HANDLE_VALUE, CYBLE_GATT_INVALID_ATTR_HANDLE_VALUE}, CYBLE_UUID_GAP_S
  78:.\Generated_Source\PSoC4/BLE_eventHandler.c ****     {{CYBLE_GATT_INVALID_ATTR_HANDLE_VALUE, CYBLE_GATT_INVALID_ATTR_HANDLE_VALUE}, CYBLE_UUID_GATT_
  79:.\Generated_Source\PSoC4/BLE_eventHandler.c **** #ifdef CYBLE_ANS_CLIENT
  80:.\Generated_Source\PSoC4/BLE_eventHandler.c ****     {{CYBLE_GATT_INVALID_ATTR_HANDLE_VALUE, CYBLE_GATT_INVALID_ATTR_HANDLE_VALUE}, CYBLE_UUID_ALERT
  81:.\Generated_Source\PSoC4/BLE_eventHandler.c **** #endif /* CYBLE_ANS_CLIENT */
  82:.\Generated_Source\PSoC4/BLE_eventHandler.c **** #ifdef CYBLE_BAS_CLIENT
  83:.\Generated_Source\PSoC4/BLE_eventHandler.c ****     {{CYBLE_GATT_INVALID_ATTR_HANDLE_VALUE, CYBLE_GATT_INVALID_ATTR_HANDLE_VALUE}, CYBLE_UUID_BAS_S
  84:.\Generated_Source\PSoC4/BLE_eventHandler.c ****     #if(CYBLE_BASC_SERVICE_COUNT > 1u) /* Generate it by GUI */
  85:.\Generated_Source\PSoC4/BLE_eventHandler.c ****         
  86:.\Generated_Source\PSoC4/BLE_eventHandler.c ****     #endif /* CYBLE_BASC_SERVICE_COUNT > 1u */
  87:.\Generated_Source\PSoC4/BLE_eventHandler.c **** #endif /* CYBLE_BAS_CLIENT */
  88:.\Generated_Source\PSoC4/BLE_eventHandler.c **** #ifdef CYBLE_BLS_CLIENT
  89:.\Generated_Source\PSoC4/BLE_eventHandler.c ****     {{CYBLE_GATT_INVALID_ATTR_HANDLE_VALUE, CYBLE_GATT_INVALID_ATTR_HANDLE_VALUE}, CYBLE_UUID_BLOOD
  90:.\Generated_Source\PSoC4/BLE_eventHandler.c **** #endif /* CYBLE_BLS_CLIENT */
  91:.\Generated_Source\PSoC4/BLE_eventHandler.c **** #ifdef CYBLE_CPS_CLIENT
  92:.\Generated_Source\PSoC4/BLE_eventHandler.c ****     {{CYBLE_GATT_INVALID_ATTR_HANDLE_VALUE, CYBLE_GATT_INVALID_ATTR_HANDLE_VALUE}, CYBLE_UUID_CPS_S
  93:.\Generated_Source\PSoC4/BLE_eventHandler.c **** #endif /* CYBLE_CPS_CLIENT */
  94:.\Generated_Source\PSoC4/BLE_eventHandler.c **** #ifdef CYBLE_CSCS_CLIENT
  95:.\Generated_Source\PSoC4/BLE_eventHandler.c ****     {{CYBLE_GATT_INVALID_ATTR_HANDLE_VALUE, CYBLE_GATT_INVALID_ATTR_HANDLE_VALUE}, CYBLE_UUID_CYCLI
  96:.\Generated_Source\PSoC4/BLE_eventHandler.c **** #endif /* CYBLE_CSCS_CLIENT */
  97:.\Generated_Source\PSoC4/BLE_eventHandler.c **** #ifdef CYBLE_CTS_CLIENT
  98:.\Generated_Source\PSoC4/BLE_eventHandler.c ****     {{CYBLE_GATT_INVALID_ATTR_HANDLE_VALUE, CYBLE_GATT_INVALID_ATTR_HANDLE_VALUE}, CYBLE_UUID_CURRE
  99:.\Generated_Source\PSoC4/BLE_eventHandler.c **** #endif /* CYBLE_CTS_CLIENT */
 100:.\Generated_Source\PSoC4/BLE_eventHandler.c **** #ifdef CYBLE_DIS_CLIENT
 101:.\Generated_Source\PSoC4/BLE_eventHandler.c ****     {{CYBLE_GATT_INVALID_ATTR_HANDLE_VALUE, CYBLE_GATT_INVALID_ATTR_HANDLE_VALUE}, CYBLE_UUID_DEVIC
 102:.\Generated_Source\PSoC4/BLE_eventHandler.c **** #endif /* CYBLE_DIS_CLIENT */
 103:.\Generated_Source\PSoC4/BLE_eventHandler.c **** #ifdef CYBLE_GLS_CLIENT
 104:.\Generated_Source\PSoC4/BLE_eventHandler.c ****     {{CYBLE_GATT_INVALID_ATTR_HANDLE_VALUE, CYBLE_GATT_INVALID_ATTR_HANDLE_VALUE}, CYBLE_UUID_GLUCO
 105:.\Generated_Source\PSoC4/BLE_eventHandler.c **** #endif /* CYBLE_GLS_CLIENT */
 106:.\Generated_Source\PSoC4/BLE_eventHandler.c **** #ifdef CYBLE_HIDS_CLIENT
 107:.\Generated_Source\PSoC4/BLE_eventHandler.c ****     {{CYBLE_GATT_INVALID_ATTR_HANDLE_VALUE, CYBLE_GATT_INVALID_ATTR_HANDLE_VALUE}, CYBLE_UUID_HIDS_
 108:.\Generated_Source\PSoC4/BLE_eventHandler.c ****     #if(CYBLE_HIDSC_SERVICE_COUNT > 1u) /* Generate it by GUI */
 109:.\Generated_Source\PSoC4/BLE_eventHandler.c ****         
 110:.\Generated_Source\PSoC4/BLE_eventHandler.c ****     #endif /* CYBLE_HIDSC_SERVICE_COUNT > 1u */
 111:.\Generated_Source\PSoC4/BLE_eventHandler.c **** #endif /* CYBLE_HIDS_CLIENT */
 112:.\Generated_Source\PSoC4/BLE_eventHandler.c **** #ifdef CYBLE_HRS_CLIENT
 113:.\Generated_Source\PSoC4/BLE_eventHandler.c ****     {{CYBLE_GATT_INVALID_ATTR_HANDLE_VALUE, CYBLE_GATT_INVALID_ATTR_HANDLE_VALUE}, CYBLE_UUID_HEART
 114:.\Generated_Source\PSoC4/BLE_eventHandler.c **** #endif /* CYBLE_HRS_CLIENT */
 115:.\Generated_Source\PSoC4/BLE_eventHandler.c **** #ifdef CYBLE_HTS_CLIENT
 116:.\Generated_Source\PSoC4/BLE_eventHandler.c ****     {{CYBLE_GATT_INVALID_ATTR_HANDLE_VALUE, CYBLE_GATT_INVALID_ATTR_HANDLE_VALUE}, CYBLE_UUID_HEALT
 117:.\Generated_Source\PSoC4/BLE_eventHandler.c **** #endif /* CYBLE_HTS_CLIENT */
 118:.\Generated_Source\PSoC4/BLE_eventHandler.c **** #ifdef CYBLE_IAS_CLIENT
 119:.\Generated_Source\PSoC4/BLE_eventHandler.c ****     {{CYBLE_GATT_INVALID_ATTR_HANDLE_VALUE, CYBLE_GATT_INVALID_ATTR_HANDLE_VALUE}, CYBLE_UUID_IMMED
 120:.\Generated_Source\PSoC4/BLE_eventHandler.c **** #endif /* CYBLE_IAS_CLIENT */
 121:.\Generated_Source\PSoC4/BLE_eventHandler.c **** #ifdef CYBLE_LLS_CLIENT
 122:.\Generated_Source\PSoC4/BLE_eventHandler.c ****     {{CYBLE_GATT_INVALID_ATTR_HANDLE_VALUE, CYBLE_GATT_INVALID_ATTR_HANDLE_VALUE}, CYBLE_UUID_LINK_
 123:.\Generated_Source\PSoC4/BLE_eventHandler.c **** #endif /* CYBLE_LLS_CLIENT */
 124:.\Generated_Source\PSoC4/BLE_eventHandler.c **** #ifdef CYBLE_LNS_CLIENT
 125:.\Generated_Source\PSoC4/BLE_eventHandler.c ****     {{CYBLE_GATT_INVALID_ATTR_HANDLE_VALUE, CYBLE_GATT_INVALID_ATTR_HANDLE_VALUE}, CYBLE_UUID_LOCAT
 126:.\Generated_Source\PSoC4/BLE_eventHandler.c **** #endif /* CYBLE_LNS_CLIENT */
 127:.\Generated_Source\PSoC4/BLE_eventHandler.c **** #ifdef CYBLE_NDCS_CLIENT
 128:.\Generated_Source\PSoC4/BLE_eventHandler.c ****     {{CYBLE_GATT_INVALID_ATTR_HANDLE_VALUE, CYBLE_GATT_INVALID_ATTR_HANDLE_VALUE}, CYBLE_UUID_NEXT_
 129:.\Generated_Source\PSoC4/BLE_eventHandler.c **** #endif /* CYBLE_NDCS_CLIENT */
 130:.\Generated_Source\PSoC4/BLE_eventHandler.c **** #ifdef CYBLE_PASS_CLIENT
 131:.\Generated_Source\PSoC4/BLE_eventHandler.c ****     {{CYBLE_GATT_INVALID_ATTR_HANDLE_VALUE, CYBLE_GATT_INVALID_ATTR_HANDLE_VALUE}, CYBLE_UUID_PHONE
 132:.\Generated_Source\PSoC4/BLE_eventHandler.c **** #endif /* CYBLE_PASS_CLIENT */
 133:.\Generated_Source\PSoC4/BLE_eventHandler.c **** #ifdef CYBLE_RSCS_CLIENT
ARM GAS  C:\Users\Lonnie\AppData\Local\Temp\ccJOwa1B.s 			page 4


 134:.\Generated_Source\PSoC4/BLE_eventHandler.c ****     {{CYBLE_GATT_INVALID_ATTR_HANDLE_VALUE, CYBLE_GATT_INVALID_ATTR_HANDLE_VALUE}, CYBLE_UUID_RUNNI
 135:.\Generated_Source\PSoC4/BLE_eventHandler.c **** #endif /* CYBLE_RSCS_CLIENT */
 136:.\Generated_Source\PSoC4/BLE_eventHandler.c **** #ifdef CYBLE_RTUS_CLIENT
 137:.\Generated_Source\PSoC4/BLE_eventHandler.c ****     {{CYBLE_GATT_INVALID_ATTR_HANDLE_VALUE, CYBLE_GATT_INVALID_ATTR_HANDLE_VALUE}, CYBLE_UUID_REF_T
 138:.\Generated_Source\PSoC4/BLE_eventHandler.c **** #endif /* CYBLE_RTUS_CLIENT */
 139:.\Generated_Source\PSoC4/BLE_eventHandler.c **** #ifdef CYBLE_SCPS_CLIENT
 140:.\Generated_Source\PSoC4/BLE_eventHandler.c ****     {{CYBLE_GATT_INVALID_ATTR_HANDLE_VALUE, CYBLE_GATT_INVALID_ATTR_HANDLE_VALUE}, CYBLE_UUID_SCAN_
 141:.\Generated_Source\PSoC4/BLE_eventHandler.c **** #endif /* CYBLE_SCPS_CLIENT */
 142:.\Generated_Source\PSoC4/BLE_eventHandler.c **** #ifdef CYBLE_TPS_CLIENT
 143:.\Generated_Source\PSoC4/BLE_eventHandler.c ****     {{CYBLE_GATT_INVALID_ATTR_HANDLE_VALUE, CYBLE_GATT_INVALID_ATTR_HANDLE_VALUE}, CYBLE_UUID_TX_PO
 144:.\Generated_Source\PSoC4/BLE_eventHandler.c **** #endif /* CYBLE_TPS_CLIENT */
 145:.\Generated_Source\PSoC4/BLE_eventHandler.c **** 
 146:.\Generated_Source\PSoC4/BLE_eventHandler.c **** };
 147:.\Generated_Source\PSoC4/BLE_eventHandler.c **** 
 148:.\Generated_Source\PSoC4/BLE_eventHandler.c **** CYBLE_GAPC_T cyBle_gapc;
 149:.\Generated_Source\PSoC4/BLE_eventHandler.c **** 
 150:.\Generated_Source\PSoC4/BLE_eventHandler.c **** #endif /* CYBLE_GATT_ROLE_CLIENT */
 151:.\Generated_Source\PSoC4/BLE_eventHandler.c **** 
 152:.\Generated_Source\PSoC4/BLE_eventHandler.c **** /* Default device security */
 153:.\Generated_Source\PSoC4/BLE_eventHandler.c **** CYBLE_GAP_AUTH_INFO_T cyBle_authInfo =
 154:.\Generated_Source\PSoC4/BLE_eventHandler.c **** {
 155:.\Generated_Source\PSoC4/BLE_eventHandler.c ****     (CYBLE_GAP_SEC_MODE_1 | CYBLE_GAP_SEC_LEVEL_1 ), /* uint8 security */
 156:.\Generated_Source\PSoC4/BLE_eventHandler.c ****     CYBLE_GAP_BONDING, /* uint8 bonding */
 157:.\Generated_Source\PSoC4/BLE_eventHandler.c ****     0x10u,      /* uint8 ekeySize */
 158:.\Generated_Source\PSoC4/BLE_eventHandler.c ****     CYBLE_GAP_AUTH_ERROR_NONE, /* CYBLE_AUTH_FAILED_REASON_T authErr */
 159:.\Generated_Source\PSoC4/BLE_eventHandler.c **** };
 160:.\Generated_Source\PSoC4/BLE_eventHandler.c **** 
 161:.\Generated_Source\PSoC4/BLE_eventHandler.c **** #if(CYBLE_GATT_ROLE_SERVER)
 162:.\Generated_Source\PSoC4/BLE_eventHandler.c **** 
 163:.\Generated_Source\PSoC4/BLE_eventHandler.c **** 
 164:.\Generated_Source\PSoC4/BLE_eventHandler.c **** /******************************************************************************    
 165:.\Generated_Source\PSoC4/BLE_eventHandler.c **** ##Function Name: CyBle_WriteReqHandler
 166:.\Generated_Source\PSoC4/BLE_eventHandler.c **** *******************************************************************************
 167:.\Generated_Source\PSoC4/BLE_eventHandler.c **** 
 168:.\Generated_Source\PSoC4/BLE_eventHandler.c **** Summary:
 169:.\Generated_Source\PSoC4/BLE_eventHandler.c ****  Handles the Write Request event from BLE stack.
 170:.\Generated_Source\PSoC4/BLE_eventHandler.c **** 
 171:.\Generated_Source\PSoC4/BLE_eventHandler.c **** Parameters:
 172:.\Generated_Source\PSoC4/BLE_eventHandler.c ****  CYBLE_GATTS_WRITE_REQ_PARAM_T * eventParam - event parameter
 173:.\Generated_Source\PSoC4/BLE_eventHandler.c **** 
 174:.\Generated_Source\PSoC4/BLE_eventHandler.c **** Return:
 175:.\Generated_Source\PSoC4/BLE_eventHandler.c ****  None
 176:.\Generated_Source\PSoC4/BLE_eventHandler.c **** 
 177:.\Generated_Source\PSoC4/BLE_eventHandler.c **** ******************************************************************************/
 178:.\Generated_Source\PSoC4/BLE_eventHandler.c **** static void CyBle_WriteReqHandler(CYBLE_GATTS_WRITE_REQ_PARAM_T *eventParam)
 179:.\Generated_Source\PSoC4/BLE_eventHandler.c **** {
  39              		.loc 1 179 0
  40              		.cfi_startproc
  41 0000 90B5     		push	{r4, r7, lr}
  42              		.cfi_def_cfa_offset 12
  43              		.cfi_offset 4, -12
  44              		.cfi_offset 7, -8
  45              		.cfi_offset 14, -4
  46 0002 85B0     		sub	sp, sp, #20
  47              		.cfi_def_cfa_offset 32
  48 0004 00AF     		add	r7, sp, #0
  49              		.cfi_def_cfa_register 7
ARM GAS  C:\Users\Lonnie\AppData\Local\Temp\ccJOwa1B.s 			page 5


  50 0006 7860     		str	r0, [r7, #4]
 180:.\Generated_Source\PSoC4/BLE_eventHandler.c ****     CYBLE_GATT_ERR_CODE_T gattErr;
 181:.\Generated_Source\PSoC4/BLE_eventHandler.c ****     
 182:.\Generated_Source\PSoC4/BLE_eventHandler.c ****     gattErr = CyBle_GattsWriteEventHandler(eventParam);
  51              		.loc 1 182 0
  52 0008 0F23     		mov	r3, #15
  53 000a FC18     		add	r4, r7, r3
  54 000c 7B68     		ldr	r3, [r7, #4]
  55 000e 181C     		mov	r0, r3
  56 0010 FFF7FEFF 		bl	CyBle_GattsWriteEventHandler
  57 0014 031C     		mov	r3, r0
  58 0016 2370     		strb	r3, [r4]
 183:.\Generated_Source\PSoC4/BLE_eventHandler.c **** #if defined(CYBLE_ANS_SERVER)
 184:.\Generated_Source\PSoC4/BLE_eventHandler.c ****     if((CYBLE_GATT_ERR_NONE == gattErr) && ((cyBle_eventHandlerFlag & CYBLE_CALLBACK) != 0u))
 185:.\Generated_Source\PSoC4/BLE_eventHandler.c ****     {
 186:.\Generated_Source\PSoC4/BLE_eventHandler.c ****         gattErr = CyBle_AnssWriteEventHandler(eventParam);
 187:.\Generated_Source\PSoC4/BLE_eventHandler.c ****     }
 188:.\Generated_Source\PSoC4/BLE_eventHandler.c **** #endif /* defined(CYBLE_ANS_SERVER) */
 189:.\Generated_Source\PSoC4/BLE_eventHandler.c **** #if defined(CYBLE_BAS_SERVER)
 190:.\Generated_Source\PSoC4/BLE_eventHandler.c ****     if((CYBLE_GATT_ERR_NONE == gattErr) && ((cyBle_eventHandlerFlag & CYBLE_CALLBACK) != 0u))
 191:.\Generated_Source\PSoC4/BLE_eventHandler.c ****     {
 192:.\Generated_Source\PSoC4/BLE_eventHandler.c ****         gattErr = CyBle_BassWriteEventHandler(eventParam);
 193:.\Generated_Source\PSoC4/BLE_eventHandler.c ****     }
 194:.\Generated_Source\PSoC4/BLE_eventHandler.c **** #endif /* defined(CYBLE_BAS_SERVER) */
 195:.\Generated_Source\PSoC4/BLE_eventHandler.c **** #if defined(CYBLE_BLS_SERVER)
 196:.\Generated_Source\PSoC4/BLE_eventHandler.c ****     if((CYBLE_GATT_ERR_NONE == gattErr) && ((cyBle_eventHandlerFlag & CYBLE_CALLBACK) != 0u))
 197:.\Generated_Source\PSoC4/BLE_eventHandler.c ****     {
 198:.\Generated_Source\PSoC4/BLE_eventHandler.c ****         gattErr = CyBle_BlssWriteEventHandler(eventParam);
 199:.\Generated_Source\PSoC4/BLE_eventHandler.c ****     }
 200:.\Generated_Source\PSoC4/BLE_eventHandler.c **** #endif /* defined(CYBLE_BLS_SERVER) */
 201:.\Generated_Source\PSoC4/BLE_eventHandler.c **** #if defined(CYBLE_CPS_SERVER)
 202:.\Generated_Source\PSoC4/BLE_eventHandler.c ****     if((CYBLE_GATT_ERR_NONE == gattErr) && ((cyBle_eventHandlerFlag & CYBLE_CALLBACK) != 0u))
 203:.\Generated_Source\PSoC4/BLE_eventHandler.c ****     {
 204:.\Generated_Source\PSoC4/BLE_eventHandler.c ****         gattErr = CyBle_CpssWriteEventHandler(eventParam);
 205:.\Generated_Source\PSoC4/BLE_eventHandler.c ****     }
 206:.\Generated_Source\PSoC4/BLE_eventHandler.c **** #endif /* defined(CYBLE_CPS_SERVER) */
 207:.\Generated_Source\PSoC4/BLE_eventHandler.c **** #if defined(CYBLE_CSCS_SERVER)
 208:.\Generated_Source\PSoC4/BLE_eventHandler.c ****     if((CYBLE_GATT_ERR_NONE == gattErr) && ((cyBle_eventHandlerFlag & CYBLE_CALLBACK) != 0u))
 209:.\Generated_Source\PSoC4/BLE_eventHandler.c ****     {
 210:.\Generated_Source\PSoC4/BLE_eventHandler.c ****         gattErr = CyBle_CscssWriteEventHandler(eventParam);
 211:.\Generated_Source\PSoC4/BLE_eventHandler.c ****     }
 212:.\Generated_Source\PSoC4/BLE_eventHandler.c **** #endif /* defined(CYBLE_CSCS_SERVER) */
 213:.\Generated_Source\PSoC4/BLE_eventHandler.c **** #if defined(CYBLE_CTS_SERVER)
 214:.\Generated_Source\PSoC4/BLE_eventHandler.c ****     if((CYBLE_GATT_ERR_NONE == gattErr) && ((cyBle_eventHandlerFlag & CYBLE_CALLBACK) != 0u))
 215:.\Generated_Source\PSoC4/BLE_eventHandler.c ****     {
 216:.\Generated_Source\PSoC4/BLE_eventHandler.c ****         gattErr = CyBle_CtssWriteEventHandler(eventParam);
 217:.\Generated_Source\PSoC4/BLE_eventHandler.c ****     }
 218:.\Generated_Source\PSoC4/BLE_eventHandler.c **** #endif /* defined(CYBLE_CTS_SERVER) */
 219:.\Generated_Source\PSoC4/BLE_eventHandler.c **** #if defined(CYBLE_GLS_SERVER)
 220:.\Generated_Source\PSoC4/BLE_eventHandler.c ****     if((CYBLE_GATT_ERR_NONE == gattErr) && ((cyBle_eventHandlerFlag & CYBLE_CALLBACK) != 0u))
 221:.\Generated_Source\PSoC4/BLE_eventHandler.c ****     {
 222:.\Generated_Source\PSoC4/BLE_eventHandler.c ****         gattErr = CyBle_GlssWriteEventHandler(eventParam);
 223:.\Generated_Source\PSoC4/BLE_eventHandler.c ****     }
 224:.\Generated_Source\PSoC4/BLE_eventHandler.c **** #endif /* defined(CYBLE_GLS_SERVER) */
 225:.\Generated_Source\PSoC4/BLE_eventHandler.c **** #if defined(CYBLE_HIDS_SERVER)
 226:.\Generated_Source\PSoC4/BLE_eventHandler.c ****     if((CYBLE_GATT_ERR_NONE == gattErr) && ((cyBle_eventHandlerFlag & CYBLE_CALLBACK) != 0u))
 227:.\Generated_Source\PSoC4/BLE_eventHandler.c ****     {
ARM GAS  C:\Users\Lonnie\AppData\Local\Temp\ccJOwa1B.s 			page 6


 228:.\Generated_Source\PSoC4/BLE_eventHandler.c ****         gattErr = CyBle_HidssWriteEventHandler(eventParam);
 229:.\Generated_Source\PSoC4/BLE_eventHandler.c ****     }
 230:.\Generated_Source\PSoC4/BLE_eventHandler.c **** #endif /* defined(CYBLE_HIDS_SERVER) */
 231:.\Generated_Source\PSoC4/BLE_eventHandler.c **** #if defined(CYBLE_HRS_SERVER)
 232:.\Generated_Source\PSoC4/BLE_eventHandler.c ****     if((CYBLE_GATT_ERR_NONE == gattErr) && ((cyBle_eventHandlerFlag & CYBLE_CALLBACK) != 0u))
 233:.\Generated_Source\PSoC4/BLE_eventHandler.c ****     {
 234:.\Generated_Source\PSoC4/BLE_eventHandler.c ****         gattErr = CyBle_HrssWriteEventHandler(eventParam);
 235:.\Generated_Source\PSoC4/BLE_eventHandler.c ****     }
 236:.\Generated_Source\PSoC4/BLE_eventHandler.c **** #endif /* defined(CYBLE_HRS_SERVER) */
 237:.\Generated_Source\PSoC4/BLE_eventHandler.c **** #if defined(CYBLE_HTS_SERVER)
 238:.\Generated_Source\PSoC4/BLE_eventHandler.c ****     if((CYBLE_GATT_ERR_NONE == gattErr) && ((cyBle_eventHandlerFlag & CYBLE_CALLBACK) != 0u))
  59              		.loc 1 238 0
  60 0018 0F23     		mov	r3, #15
  61 001a FB18     		add	r3, r7, r3
  62 001c 1B78     		ldrb	r3, [r3]
  63 001e 002B     		cmp	r3, #0
  64 0020 0ED1     		bne	.L2
  65              		.loc 1 238 0 is_stmt 0 discriminator 1
  66 0022 1C4B     		ldr	r3, .L5
  67 0024 1B78     		ldrb	r3, [r3]
  68 0026 DBB2     		uxtb	r3, r3
  69 0028 1A1C     		mov	r2, r3
  70 002a 0123     		mov	r3, #1
  71 002c 1340     		and	r3, r2
  72 002e 07D0     		beq	.L2
 239:.\Generated_Source\PSoC4/BLE_eventHandler.c ****     {
 240:.\Generated_Source\PSoC4/BLE_eventHandler.c ****         gattErr = CyBle_HtssWriteEventHandler(eventParam);
  73              		.loc 1 240 0 is_stmt 1
  74 0030 0F23     		mov	r3, #15
  75 0032 FC18     		add	r4, r7, r3
  76 0034 7B68     		ldr	r3, [r7, #4]
  77 0036 181C     		mov	r0, r3
  78 0038 FFF7FEFF 		bl	CyBle_HtssWriteEventHandler
  79 003c 031C     		mov	r3, r0
  80 003e 2370     		strb	r3, [r4]
  81              	.L2:
 241:.\Generated_Source\PSoC4/BLE_eventHandler.c ****     }
 242:.\Generated_Source\PSoC4/BLE_eventHandler.c **** #endif /* defined(CYBLE_TPS_SERVER) */
 243:.\Generated_Source\PSoC4/BLE_eventHandler.c **** #if defined(CYBLE_LLS_SERVER)
 244:.\Generated_Source\PSoC4/BLE_eventHandler.c ****     if((CYBLE_GATT_ERR_NONE == gattErr) && ((cyBle_eventHandlerFlag & CYBLE_CALLBACK) != 0u))
 245:.\Generated_Source\PSoC4/BLE_eventHandler.c ****     {
 246:.\Generated_Source\PSoC4/BLE_eventHandler.c ****         gattErr = CyBle_LlssWriteEventHandler(eventParam);
 247:.\Generated_Source\PSoC4/BLE_eventHandler.c ****     }
 248:.\Generated_Source\PSoC4/BLE_eventHandler.c **** #endif /* defined(CYBLE_LLS_SERVER) */
 249:.\Generated_Source\PSoC4/BLE_eventHandler.c **** #if defined(CYBLE_LNS_SERVER)
 250:.\Generated_Source\PSoC4/BLE_eventHandler.c ****     if((CYBLE_GATT_ERR_NONE == gattErr) && ((cyBle_eventHandlerFlag & CYBLE_CALLBACK) != 0u))
 251:.\Generated_Source\PSoC4/BLE_eventHandler.c ****     {
 252:.\Generated_Source\PSoC4/BLE_eventHandler.c ****         gattErr = CyBle_LnssWriteEventHandler(eventParam);
 253:.\Generated_Source\PSoC4/BLE_eventHandler.c ****     }
 254:.\Generated_Source\PSoC4/BLE_eventHandler.c **** #endif /* defined(CYBLE_LNS_SERVER) */
 255:.\Generated_Source\PSoC4/BLE_eventHandler.c **** #if defined(CYBLE_PASS_SERVER)
 256:.\Generated_Source\PSoC4/BLE_eventHandler.c ****     if((CYBLE_GATT_ERR_NONE == gattErr) && ((cyBle_eventHandlerFlag & CYBLE_CALLBACK) != 0u))
 257:.\Generated_Source\PSoC4/BLE_eventHandler.c ****     {
 258:.\Generated_Source\PSoC4/BLE_eventHandler.c ****         gattErr = CyBle_PasssWriteEventHandler(eventParam);
 259:.\Generated_Source\PSoC4/BLE_eventHandler.c ****     }
 260:.\Generated_Source\PSoC4/BLE_eventHandler.c **** #endif /* defined(CYBLE_PASS_SERVER) */
 261:.\Generated_Source\PSoC4/BLE_eventHandler.c **** #if defined(CYBLE_RSCS_SERVER)
ARM GAS  C:\Users\Lonnie\AppData\Local\Temp\ccJOwa1B.s 			page 7


 262:.\Generated_Source\PSoC4/BLE_eventHandler.c ****     if((CYBLE_GATT_ERR_NONE == gattErr) && ((cyBle_eventHandlerFlag & CYBLE_CALLBACK) != 0u))
 263:.\Generated_Source\PSoC4/BLE_eventHandler.c ****     {
 264:.\Generated_Source\PSoC4/BLE_eventHandler.c ****         gattErr = CyBle_RscssWriteEventHandler(eventParam);
 265:.\Generated_Source\PSoC4/BLE_eventHandler.c ****     }
 266:.\Generated_Source\PSoC4/BLE_eventHandler.c **** #endif /* defined(CYBLE_RSCS_SERVER) */
 267:.\Generated_Source\PSoC4/BLE_eventHandler.c **** #if defined(CYBLE_SCPS_SERVER)
 268:.\Generated_Source\PSoC4/BLE_eventHandler.c ****     if((CYBLE_GATT_ERR_NONE == gattErr) && ((cyBle_eventHandlerFlag & CYBLE_CALLBACK) != 0u))
 269:.\Generated_Source\PSoC4/BLE_eventHandler.c ****     {
 270:.\Generated_Source\PSoC4/BLE_eventHandler.c ****         gattErr = CyBle_ScpssWriteEventHandler(eventParam);
 271:.\Generated_Source\PSoC4/BLE_eventHandler.c ****     }
 272:.\Generated_Source\PSoC4/BLE_eventHandler.c **** #endif /* defined(CYBLE_SCPS_SERVER) */
 273:.\Generated_Source\PSoC4/BLE_eventHandler.c **** #if defined(CYBLE_TPS_SERVER)
 274:.\Generated_Source\PSoC4/BLE_eventHandler.c ****     if((CYBLE_GATT_ERR_NONE == gattErr) && ((cyBle_eventHandlerFlag & CYBLE_CALLBACK) != 0u))
 275:.\Generated_Source\PSoC4/BLE_eventHandler.c ****     {
 276:.\Generated_Source\PSoC4/BLE_eventHandler.c ****         gattErr = CyBle_TpssWriteEventHandler(eventParam);
 277:.\Generated_Source\PSoC4/BLE_eventHandler.c ****     }
 278:.\Generated_Source\PSoC4/BLE_eventHandler.c **** #endif /* defined(CYBLE_TPS_SERVER) */
 279:.\Generated_Source\PSoC4/BLE_eventHandler.c **** 
 280:.\Generated_Source\PSoC4/BLE_eventHandler.c ****     /* Send response when event was handled by service */
 281:.\Generated_Source\PSoC4/BLE_eventHandler.c ****     if((cyBle_eventHandlerFlag & CYBLE_CALLBACK) == 0u)
  82              		.loc 1 281 0
  83 0040 144B     		ldr	r3, .L5
  84 0042 1B78     		ldrb	r3, [r3]
  85 0044 DBB2     		uxtb	r3, r3
  86 0046 1A1C     		mov	r2, r3
  87 0048 0123     		mov	r3, #1
  88 004a 1340     		and	r3, r2
  89 004c 1FD1     		bne	.L1
 282:.\Generated_Source\PSoC4/BLE_eventHandler.c ****     {
 283:.\Generated_Source\PSoC4/BLE_eventHandler.c ****         if(CYBLE_GATT_ERR_NONE != gattErr)
  90              		.loc 1 283 0
  91 004e 0F23     		mov	r3, #15
  92 0050 FB18     		add	r3, r7, r3
  93 0052 1B78     		ldrb	r3, [r3]
  94 0054 002B     		cmp	r3, #0
  95 0056 16D0     		beq	.L4
  96              	.LBB2:
 284:.\Generated_Source\PSoC4/BLE_eventHandler.c ****         {
 285:.\Generated_Source\PSoC4/BLE_eventHandler.c ****             CYBLE_GATTS_ERR_PARAM_T err_param;
 286:.\Generated_Source\PSoC4/BLE_eventHandler.c ****             
 287:.\Generated_Source\PSoC4/BLE_eventHandler.c ****             err_param.opcode = (uint8) CYBLE_GATT_WRITE_REQ;
  97              		.loc 1 287 0
  98 0058 0823     		mov	r3, #8
  99 005a FB18     		add	r3, r7, r3
 100 005c 1222     		mov	r2, #18
 101 005e 9A70     		strb	r2, [r3, #2]
 288:.\Generated_Source\PSoC4/BLE_eventHandler.c ****             err_param.attrHandle = eventParam->handleValPair.attrHandle;
 102              		.loc 1 288 0
 103 0060 7B68     		ldr	r3, [r7, #4]
 104 0062 9A89     		ldrh	r2, [r3, #12]
 105 0064 0823     		mov	r3, #8
 106 0066 FB18     		add	r3, r7, r3
 107 0068 1A80     		strh	r2, [r3]
 289:.\Generated_Source\PSoC4/BLE_eventHandler.c ****             err_param.errorCode = gattErr;
 108              		.loc 1 289 0
 109 006a 0823     		mov	r3, #8
 110 006c FB18     		add	r3, r7, r3
ARM GAS  C:\Users\Lonnie\AppData\Local\Temp\ccJOwa1B.s 			page 8


 111 006e 0F22     		mov	r2, #15
 112 0070 BA18     		add	r2, r7, r2
 113 0072 1278     		ldrb	r2, [r2]
 114 0074 DA70     		strb	r2, [r3, #3]
 290:.\Generated_Source\PSoC4/BLE_eventHandler.c **** 
 291:.\Generated_Source\PSoC4/BLE_eventHandler.c ****             /* Send Error Response */
 292:.\Generated_Source\PSoC4/BLE_eventHandler.c ****             (void)CyBle_GattsErrorRsp(eventParam->connHandle, &err_param);
 115              		.loc 1 292 0
 116 0076 7B68     		ldr	r3, [r7, #4]
 117 0078 0822     		mov	r2, #8
 118 007a BA18     		add	r2, r7, r2
 119 007c 1868     		ldr	r0, [r3]
 120 007e 111C     		mov	r1, r2
 121 0080 FFF7FEFF 		bl	CyBle_GattsErrorRsp
 122              	.LBE2:
 123 0084 03E0     		b	.L1
 124              	.L4:
 293:.\Generated_Source\PSoC4/BLE_eventHandler.c ****         }
 294:.\Generated_Source\PSoC4/BLE_eventHandler.c ****         else
 295:.\Generated_Source\PSoC4/BLE_eventHandler.c ****         {
 296:.\Generated_Source\PSoC4/BLE_eventHandler.c ****             (void)CyBle_GattsWriteRsp(eventParam->connHandle);
 125              		.loc 1 296 0
 126 0086 7B68     		ldr	r3, [r7, #4]
 127 0088 1868     		ldr	r0, [r3]
 128 008a FFF7FEFF 		bl	CyBle_GattsWriteRsp
 129              	.L1:
 297:.\Generated_Source\PSoC4/BLE_eventHandler.c ****         }
 298:.\Generated_Source\PSoC4/BLE_eventHandler.c ****     }
 299:.\Generated_Source\PSoC4/BLE_eventHandler.c **** }
 130              		.loc 1 299 0
 131 008e BD46     		mov	sp, r7
 132 0090 05B0     		add	sp, sp, #20
 133              		@ sp needed
 134 0092 90BD     		pop	{r4, r7, pc}
 135              	.L6:
 136              		.align	2
 137              	.L5:
 138 0094 00000000 		.word	cyBle_eventHandlerFlag
 139              		.cfi_endproc
 140              	.LFE2:
 141              		.size	CyBle_WriteReqHandler, .-CyBle_WriteReqHandler
 142              		.section	.text.CyBle_ValueConfirmation,"ax",%progbits
 143              		.align	2
 144              		.code	16
 145              		.thumb_func
 146              		.type	CyBle_ValueConfirmation, %function
 147              	CyBle_ValueConfirmation:
 148              	.LFB3:
 300:.\Generated_Source\PSoC4/BLE_eventHandler.c **** 
 301:.\Generated_Source\PSoC4/BLE_eventHandler.c **** 
 302:.\Generated_Source\PSoC4/BLE_eventHandler.c **** /****************************************************************************** 
 303:.\Generated_Source\PSoC4/BLE_eventHandler.c **** ##Function Name: CyBle_ValueConfirmation
 304:.\Generated_Source\PSoC4/BLE_eventHandler.c **** *******************************************************************************
 305:.\Generated_Source\PSoC4/BLE_eventHandler.c **** 
 306:.\Generated_Source\PSoC4/BLE_eventHandler.c **** Summary:
 307:.\Generated_Source\PSoC4/BLE_eventHandler.c ****  Handles the Value Confirmation request event from the BLE stack.
 308:.\Generated_Source\PSoC4/BLE_eventHandler.c **** 
ARM GAS  C:\Users\Lonnie\AppData\Local\Temp\ccJOwa1B.s 			page 9


 309:.\Generated_Source\PSoC4/BLE_eventHandler.c **** Parameters:
 310:.\Generated_Source\PSoC4/BLE_eventHandler.c ****  CYBLE_CONN_HANDLE_T *eventParam - Pointer to a structure
 311:.\Generated_Source\PSoC4/BLE_eventHandler.c ****     of type 'CYBLE_CONN_HANDLE_T'
 312:.\Generated_Source\PSoC4/BLE_eventHandler.c **** 
 313:.\Generated_Source\PSoC4/BLE_eventHandler.c **** Return:
 314:.\Generated_Source\PSoC4/BLE_eventHandler.c ****  None
 315:.\Generated_Source\PSoC4/BLE_eventHandler.c **** 
 316:.\Generated_Source\PSoC4/BLE_eventHandler.c **** ******************************************************************************/
 317:.\Generated_Source\PSoC4/BLE_eventHandler.c **** static void CyBle_ValueConfirmation(const CYBLE_CONN_HANDLE_T *eventParam)
 318:.\Generated_Source\PSoC4/BLE_eventHandler.c **** {
 149              		.loc 1 318 0
 150              		.cfi_startproc
 151 0000 80B5     		push	{r7, lr}
 152              		.cfi_def_cfa_offset 8
 153              		.cfi_offset 7, -8
 154              		.cfi_offset 14, -4
 155 0002 82B0     		sub	sp, sp, #8
 156              		.cfi_def_cfa_offset 16
 157 0004 00AF     		add	r7, sp, #0
 158              		.cfi_def_cfa_register 7
 159 0006 7860     		str	r0, [r7, #4]
 319:.\Generated_Source\PSoC4/BLE_eventHandler.c ****     if(eventParam != NULL)
 160              		.loc 1 319 0
 161 0008 7B68     		ldr	r3, [r7, #4]
 162 000a 002B     		cmp	r3, #0
 163 000c 0AD0     		beq	.L7
 320:.\Generated_Source\PSoC4/BLE_eventHandler.c ****     {
 321:.\Generated_Source\PSoC4/BLE_eventHandler.c ****     #if defined(CYBLE_BLS_SERVER)
 322:.\Generated_Source\PSoC4/BLE_eventHandler.c ****         CyBle_BlssConfirmationEventHandler(eventParam);
 323:.\Generated_Source\PSoC4/BLE_eventHandler.c ****     #endif /* defined(CYBLE_BLS_SERVER) */
 324:.\Generated_Source\PSoC4/BLE_eventHandler.c ****     
 325:.\Generated_Source\PSoC4/BLE_eventHandler.c ****     #if defined(CYBLE_CPS_SERVER)
 326:.\Generated_Source\PSoC4/BLE_eventHandler.c ****         if((cyBle_eventHandlerFlag & CYBLE_CALLBACK) != 0u)
 327:.\Generated_Source\PSoC4/BLE_eventHandler.c ****         {
 328:.\Generated_Source\PSoC4/BLE_eventHandler.c ****             CyBle_CpssConfirmationEventHandler(eventParam);
 329:.\Generated_Source\PSoC4/BLE_eventHandler.c ****         }
 330:.\Generated_Source\PSoC4/BLE_eventHandler.c ****     #endif /* defined(CYBLE_CPS_SERVER) */
 331:.\Generated_Source\PSoC4/BLE_eventHandler.c ****     
 332:.\Generated_Source\PSoC4/BLE_eventHandler.c ****     #if defined(CYBLE_CSCS_SERVER)
 333:.\Generated_Source\PSoC4/BLE_eventHandler.c ****         if((cyBle_eventHandlerFlag & CYBLE_CALLBACK) != 0u)
 334:.\Generated_Source\PSoC4/BLE_eventHandler.c ****         {
 335:.\Generated_Source\PSoC4/BLE_eventHandler.c ****             CyBle_CscssConfirmationEventHandler(eventParam);
 336:.\Generated_Source\PSoC4/BLE_eventHandler.c ****         }
 337:.\Generated_Source\PSoC4/BLE_eventHandler.c ****     #endif /* defined(CYBLE_CSCS_SERVER) */
 338:.\Generated_Source\PSoC4/BLE_eventHandler.c ****     
 339:.\Generated_Source\PSoC4/BLE_eventHandler.c ****     #if defined(CYBLE_GLS_SERVER)
 340:.\Generated_Source\PSoC4/BLE_eventHandler.c ****         if((cyBle_eventHandlerFlag & CYBLE_CALLBACK) != 0u)
 341:.\Generated_Source\PSoC4/BLE_eventHandler.c ****         {
 342:.\Generated_Source\PSoC4/BLE_eventHandler.c ****             CyBle_GlssConfirmationEventHandler(eventParam);
 343:.\Generated_Source\PSoC4/BLE_eventHandler.c ****         }
 344:.\Generated_Source\PSoC4/BLE_eventHandler.c ****     #endif /* defined(CYBLE_GLS_SERVER) */
 345:.\Generated_Source\PSoC4/BLE_eventHandler.c ****     
 346:.\Generated_Source\PSoC4/BLE_eventHandler.c ****     #if defined(CYBLE_HTS_SERVER)
 347:.\Generated_Source\PSoC4/BLE_eventHandler.c ****         if((cyBle_eventHandlerFlag & CYBLE_CALLBACK) != 0u)
 164              		.loc 1 347 0
 165 000e 074B     		ldr	r3, .L9
 166 0010 1B78     		ldrb	r3, [r3]
ARM GAS  C:\Users\Lonnie\AppData\Local\Temp\ccJOwa1B.s 			page 10


 167 0012 DBB2     		uxtb	r3, r3
 168 0014 1A1C     		mov	r2, r3
 169 0016 0123     		mov	r3, #1
 170 0018 1340     		and	r3, r2
 171 001a 03D0     		beq	.L7
 348:.\Generated_Source\PSoC4/BLE_eventHandler.c ****         {
 349:.\Generated_Source\PSoC4/BLE_eventHandler.c ****             CyBle_HtssConfirmationEventHandler(eventParam);
 172              		.loc 1 349 0
 173 001c 7B68     		ldr	r3, [r7, #4]
 174 001e 181C     		mov	r0, r3
 175 0020 FFF7FEFF 		bl	CyBle_HtssConfirmationEventHandler
 176              	.L7:
 350:.\Generated_Source\PSoC4/BLE_eventHandler.c ****         }
 351:.\Generated_Source\PSoC4/BLE_eventHandler.c ****     #endif /* defined(CYBLE_HTS_SERVER) */
 352:.\Generated_Source\PSoC4/BLE_eventHandler.c **** 
 353:.\Generated_Source\PSoC4/BLE_eventHandler.c ****     #if defined(CYBLE_LNS_SERVER)
 354:.\Generated_Source\PSoC4/BLE_eventHandler.c ****         if((cyBle_eventHandlerFlag & CYBLE_CALLBACK) != 0u)
 355:.\Generated_Source\PSoC4/BLE_eventHandler.c ****         {
 356:.\Generated_Source\PSoC4/BLE_eventHandler.c ****             CyBle_LnssConfirmationEventHandler(eventParam);
 357:.\Generated_Source\PSoC4/BLE_eventHandler.c ****         }
 358:.\Generated_Source\PSoC4/BLE_eventHandler.c ****     #endif /* defined(CYBLE_LNS_SERVER) */
 359:.\Generated_Source\PSoC4/BLE_eventHandler.c ****     
 360:.\Generated_Source\PSoC4/BLE_eventHandler.c ****     #if defined(CYBLE_RSCS_SERVER)
 361:.\Generated_Source\PSoC4/BLE_eventHandler.c ****         if((cyBle_eventHandlerFlag & CYBLE_CALLBACK) != 0u)
 362:.\Generated_Source\PSoC4/BLE_eventHandler.c ****         {
 363:.\Generated_Source\PSoC4/BLE_eventHandler.c ****             CyBle_RscssConfirmationEventHandler(eventParam);
 364:.\Generated_Source\PSoC4/BLE_eventHandler.c ****         }
 365:.\Generated_Source\PSoC4/BLE_eventHandler.c ****     #endif /* defined(CYBLE_RSCS_SERVER) */
 366:.\Generated_Source\PSoC4/BLE_eventHandler.c ****     }
 367:.\Generated_Source\PSoC4/BLE_eventHandler.c **** }
 177              		.loc 1 367 0
 178 0024 BD46     		mov	sp, r7
 179 0026 02B0     		add	sp, sp, #8
 180              		@ sp needed
 181 0028 80BD     		pop	{r7, pc}
 182              	.L10:
 183 002a C046     		.align	2
 184              	.L9:
 185 002c 00000000 		.word	cyBle_eventHandlerFlag
 186              		.cfi_endproc
 187              	.LFE3:
 188              		.size	CyBle_ValueConfirmation, .-CyBle_ValueConfirmation
 189              		.section	.text.CyBle_GattDisconnectEventHandler,"ax",%progbits
 190              		.align	2
 191              		.code	16
 192              		.thumb_func
 193              		.type	CyBle_GattDisconnectEventHandler, %function
 194              	CyBle_GattDisconnectEventHandler:
 195              	.LFB4:
 368:.\Generated_Source\PSoC4/BLE_eventHandler.c **** 
 369:.\Generated_Source\PSoC4/BLE_eventHandler.c **** #endif /* (CYBLE_GATT_ROLE_SERVER) */
 370:.\Generated_Source\PSoC4/BLE_eventHandler.c **** 
 371:.\Generated_Source\PSoC4/BLE_eventHandler.c **** 
 372:.\Generated_Source\PSoC4/BLE_eventHandler.c **** #if (CYBLE_GATT_ROLE_CLIENT)
 373:.\Generated_Source\PSoC4/BLE_eventHandler.c **** 
 374:.\Generated_Source\PSoC4/BLE_eventHandler.c **** /****************************************************************************** 
 375:.\Generated_Source\PSoC4/BLE_eventHandler.c **** ##Function Name: CyBle_GattcWriteResponseEventHandler
ARM GAS  C:\Users\Lonnie\AppData\Local\Temp\ccJOwa1B.s 			page 11


 376:.\Generated_Source\PSoC4/BLE_eventHandler.c **** *******************************************************************************
 377:.\Generated_Source\PSoC4/BLE_eventHandler.c **** 
 378:.\Generated_Source\PSoC4/BLE_eventHandler.c **** Summary:
 379:.\Generated_Source\PSoC4/BLE_eventHandler.c ****  Handles the Write response event from the BLE stack.
 380:.\Generated_Source\PSoC4/BLE_eventHandler.c **** 
 381:.\Generated_Source\PSoC4/BLE_eventHandler.c **** Parameters:
 382:.\Generated_Source\PSoC4/BLE_eventHandler.c ****  CYBLE_CONN_HANDLE_T *eventParam - Pointer to a structure
 383:.\Generated_Source\PSoC4/BLE_eventHandler.c ****     of type 'CYBLE_CONN_HANDLE_T'
 384:.\Generated_Source\PSoC4/BLE_eventHandler.c **** 
 385:.\Generated_Source\PSoC4/BLE_eventHandler.c **** Return:
 386:.\Generated_Source\PSoC4/BLE_eventHandler.c ****  None
 387:.\Generated_Source\PSoC4/BLE_eventHandler.c **** 
 388:.\Generated_Source\PSoC4/BLE_eventHandler.c **** ******************************************************************************/
 389:.\Generated_Source\PSoC4/BLE_eventHandler.c **** static void CyBle_GattcWriteResponseEventHandler(const CYBLE_CONN_HANDLE_T *eventParam)
 390:.\Generated_Source\PSoC4/BLE_eventHandler.c **** {
 391:.\Generated_Source\PSoC4/BLE_eventHandler.c **** #ifdef CYBLE_ANS_CLIENT
 392:.\Generated_Source\PSoC4/BLE_eventHandler.c ****     CyBle_AnscWriteResponseEventHandler(eventParam);
 393:.\Generated_Source\PSoC4/BLE_eventHandler.c **** #endif /* CYBLE_ANS_CLIENT */
 394:.\Generated_Source\PSoC4/BLE_eventHandler.c **** 
 395:.\Generated_Source\PSoC4/BLE_eventHandler.c **** #ifdef CYBLE_BAS_CLIENT
 396:.\Generated_Source\PSoC4/BLE_eventHandler.c ****     if((cyBle_eventHandlerFlag & CYBLE_CALLBACK) != 0u)
 397:.\Generated_Source\PSoC4/BLE_eventHandler.c ****     {
 398:.\Generated_Source\PSoC4/BLE_eventHandler.c ****         CyBle_BascWriteResponseEventHandler(eventParam);
 399:.\Generated_Source\PSoC4/BLE_eventHandler.c ****     }
 400:.\Generated_Source\PSoC4/BLE_eventHandler.c **** #endif /* CYBLE_BAS_CLIENT */
 401:.\Generated_Source\PSoC4/BLE_eventHandler.c **** 
 402:.\Generated_Source\PSoC4/BLE_eventHandler.c **** #ifdef CYBLE_BLS_CLIENT
 403:.\Generated_Source\PSoC4/BLE_eventHandler.c ****     if((cyBle_eventHandlerFlag & CYBLE_CALLBACK) != 0u)
 404:.\Generated_Source\PSoC4/BLE_eventHandler.c ****     {
 405:.\Generated_Source\PSoC4/BLE_eventHandler.c ****         CyBle_BlscWriteResponseEventHandler(eventParam);
 406:.\Generated_Source\PSoC4/BLE_eventHandler.c ****     }
 407:.\Generated_Source\PSoC4/BLE_eventHandler.c **** #endif /* CYBLE_BLS_CLIENT */
 408:.\Generated_Source\PSoC4/BLE_eventHandler.c **** 
 409:.\Generated_Source\PSoC4/BLE_eventHandler.c **** #ifdef CYBLE_CPS_CLIENT
 410:.\Generated_Source\PSoC4/BLE_eventHandler.c ****     if((cyBle_eventHandlerFlag & CYBLE_CALLBACK) != 0u)
 411:.\Generated_Source\PSoC4/BLE_eventHandler.c ****     {
 412:.\Generated_Source\PSoC4/BLE_eventHandler.c ****         CyBle_CpscWriteResponseEventHandler(eventParam);
 413:.\Generated_Source\PSoC4/BLE_eventHandler.c ****     }
 414:.\Generated_Source\PSoC4/BLE_eventHandler.c **** #endif /* CYBLE_CPS_CLIENT */
 415:.\Generated_Source\PSoC4/BLE_eventHandler.c **** 
 416:.\Generated_Source\PSoC4/BLE_eventHandler.c **** #ifdef CYBLE_CSCS_CLIENT
 417:.\Generated_Source\PSoC4/BLE_eventHandler.c ****     if((cyBle_eventHandlerFlag & CYBLE_CALLBACK) != 0u)
 418:.\Generated_Source\PSoC4/BLE_eventHandler.c ****     {
 419:.\Generated_Source\PSoC4/BLE_eventHandler.c ****         CyBle_CscscWriteResponseEventHandler(eventParam);
 420:.\Generated_Source\PSoC4/BLE_eventHandler.c ****     }
 421:.\Generated_Source\PSoC4/BLE_eventHandler.c **** #endif /* CYBLE_CSCS_CLIENT */
 422:.\Generated_Source\PSoC4/BLE_eventHandler.c **** 
 423:.\Generated_Source\PSoC4/BLE_eventHandler.c **** #ifdef CYBLE_CTS_CLIENT
 424:.\Generated_Source\PSoC4/BLE_eventHandler.c ****     if((cyBle_eventHandlerFlag & CYBLE_CALLBACK) != 0u)
 425:.\Generated_Source\PSoC4/BLE_eventHandler.c ****     {
 426:.\Generated_Source\PSoC4/BLE_eventHandler.c ****         CyBle_CtscWriteResponseEventHandler(eventParam);
 427:.\Generated_Source\PSoC4/BLE_eventHandler.c ****     }
 428:.\Generated_Source\PSoC4/BLE_eventHandler.c **** #endif /* CYBLE_CTS_CLIENT */
 429:.\Generated_Source\PSoC4/BLE_eventHandler.c **** 
 430:.\Generated_Source\PSoC4/BLE_eventHandler.c **** #ifdef CYBLE_GLS_CLIENT
 431:.\Generated_Source\PSoC4/BLE_eventHandler.c ****     if((cyBle_eventHandlerFlag & CYBLE_CALLBACK) != 0u)
 432:.\Generated_Source\PSoC4/BLE_eventHandler.c ****     {
ARM GAS  C:\Users\Lonnie\AppData\Local\Temp\ccJOwa1B.s 			page 12


 433:.\Generated_Source\PSoC4/BLE_eventHandler.c ****         CyBle_GlscWriteResponseEventHandler(eventParam);
 434:.\Generated_Source\PSoC4/BLE_eventHandler.c ****     }
 435:.\Generated_Source\PSoC4/BLE_eventHandler.c **** #endif /* CYBLE_GLS_CLIENT */
 436:.\Generated_Source\PSoC4/BLE_eventHandler.c **** 
 437:.\Generated_Source\PSoC4/BLE_eventHandler.c **** #ifdef CYBLE_HIDS_CLIENT
 438:.\Generated_Source\PSoC4/BLE_eventHandler.c ****     if((cyBle_eventHandlerFlag & CYBLE_CALLBACK) != 0u)
 439:.\Generated_Source\PSoC4/BLE_eventHandler.c ****     {
 440:.\Generated_Source\PSoC4/BLE_eventHandler.c ****         CyBle_HidscWriteResponseEventHandler(eventParam);
 441:.\Generated_Source\PSoC4/BLE_eventHandler.c ****     }
 442:.\Generated_Source\PSoC4/BLE_eventHandler.c **** #endif /* CYBLE_HIDS_CLIENT */
 443:.\Generated_Source\PSoC4/BLE_eventHandler.c **** 
 444:.\Generated_Source\PSoC4/BLE_eventHandler.c **** #ifdef CYBLE_HRS_CLIENT
 445:.\Generated_Source\PSoC4/BLE_eventHandler.c ****     if((cyBle_eventHandlerFlag & CYBLE_CALLBACK) != 0u)
 446:.\Generated_Source\PSoC4/BLE_eventHandler.c ****     {
 447:.\Generated_Source\PSoC4/BLE_eventHandler.c ****         CyBle_HrscWriteResponseEventHandler(eventParam);
 448:.\Generated_Source\PSoC4/BLE_eventHandler.c ****     }
 449:.\Generated_Source\PSoC4/BLE_eventHandler.c **** #endif /* CYBLE_HRS_CLIENT */
 450:.\Generated_Source\PSoC4/BLE_eventHandler.c **** 
 451:.\Generated_Source\PSoC4/BLE_eventHandler.c **** #ifdef CYBLE_HTS_CLIENT
 452:.\Generated_Source\PSoC4/BLE_eventHandler.c ****     if((cyBle_eventHandlerFlag & CYBLE_CALLBACK) != 0u)
 453:.\Generated_Source\PSoC4/BLE_eventHandler.c ****     {
 454:.\Generated_Source\PSoC4/BLE_eventHandler.c ****         CyBle_HtscWriteResponseEventHandler(eventParam);
 455:.\Generated_Source\PSoC4/BLE_eventHandler.c ****     }
 456:.\Generated_Source\PSoC4/BLE_eventHandler.c **** #endif /* CYBLE_HTS_CLIENT */
 457:.\Generated_Source\PSoC4/BLE_eventHandler.c **** 
 458:.\Generated_Source\PSoC4/BLE_eventHandler.c **** #ifdef CYBLE_LLS_CLIENT
 459:.\Generated_Source\PSoC4/BLE_eventHandler.c ****     if((cyBle_eventHandlerFlag & CYBLE_CALLBACK) != 0u)
 460:.\Generated_Source\PSoC4/BLE_eventHandler.c ****     {
 461:.\Generated_Source\PSoC4/BLE_eventHandler.c ****         CyBle_LlscWriteResponseEventHandler(eventParam);
 462:.\Generated_Source\PSoC4/BLE_eventHandler.c ****     }
 463:.\Generated_Source\PSoC4/BLE_eventHandler.c **** #endif /* CYBLE_LLS_CLIENT */
 464:.\Generated_Source\PSoC4/BLE_eventHandler.c **** 
 465:.\Generated_Source\PSoC4/BLE_eventHandler.c **** #ifdef CYBLE_LNS_CLIENT
 466:.\Generated_Source\PSoC4/BLE_eventHandler.c ****     if((cyBle_eventHandlerFlag & CYBLE_CALLBACK) != 0u)
 467:.\Generated_Source\PSoC4/BLE_eventHandler.c ****     {
 468:.\Generated_Source\PSoC4/BLE_eventHandler.c ****         CyBle_LnscWriteResponseEventHandler(eventParam);
 469:.\Generated_Source\PSoC4/BLE_eventHandler.c ****     }
 470:.\Generated_Source\PSoC4/BLE_eventHandler.c **** #endif /* CYBLE_LNS_CLIENT */
 471:.\Generated_Source\PSoC4/BLE_eventHandler.c **** 
 472:.\Generated_Source\PSoC4/BLE_eventHandler.c **** #ifdef CYBLE_PASS_CLIENT
 473:.\Generated_Source\PSoC4/BLE_eventHandler.c ****     if((cyBle_eventHandlerFlag & CYBLE_CALLBACK) != 0u)
 474:.\Generated_Source\PSoC4/BLE_eventHandler.c ****     {
 475:.\Generated_Source\PSoC4/BLE_eventHandler.c ****         CyBle_PasscWriteResponseEventHandler(eventParam);
 476:.\Generated_Source\PSoC4/BLE_eventHandler.c ****     }
 477:.\Generated_Source\PSoC4/BLE_eventHandler.c **** #endif /* CYBLE_PASS_CLIENT */
 478:.\Generated_Source\PSoC4/BLE_eventHandler.c **** 
 479:.\Generated_Source\PSoC4/BLE_eventHandler.c **** #ifdef CYBLE_RSCS_CLIENT
 480:.\Generated_Source\PSoC4/BLE_eventHandler.c ****     if((cyBle_eventHandlerFlag & CYBLE_CALLBACK) != 0u)
 481:.\Generated_Source\PSoC4/BLE_eventHandler.c ****     {
 482:.\Generated_Source\PSoC4/BLE_eventHandler.c ****         CyBle_RscscWriteResponseEventHandler(eventParam);
 483:.\Generated_Source\PSoC4/BLE_eventHandler.c ****     }
 484:.\Generated_Source\PSoC4/BLE_eventHandler.c **** #endif /* CYBLE_RSCS_CLIENT */
 485:.\Generated_Source\PSoC4/BLE_eventHandler.c **** 
 486:.\Generated_Source\PSoC4/BLE_eventHandler.c **** #ifdef CYBLE_SCPS_CLIENT
 487:.\Generated_Source\PSoC4/BLE_eventHandler.c ****     if((cyBle_eventHandlerFlag & CYBLE_CALLBACK) != 0u)
 488:.\Generated_Source\PSoC4/BLE_eventHandler.c ****     {
 489:.\Generated_Source\PSoC4/BLE_eventHandler.c ****         CyBle_ScpscWriteResponseEventHandler(eventParam);
ARM GAS  C:\Users\Lonnie\AppData\Local\Temp\ccJOwa1B.s 			page 13


 490:.\Generated_Source\PSoC4/BLE_eventHandler.c ****     }
 491:.\Generated_Source\PSoC4/BLE_eventHandler.c **** #endif /* CYBLE_SCPS_CLIENT */
 492:.\Generated_Source\PSoC4/BLE_eventHandler.c **** 
 493:.\Generated_Source\PSoC4/BLE_eventHandler.c **** #ifdef CYBLE_TPS_CLIENT
 494:.\Generated_Source\PSoC4/BLE_eventHandler.c ****     if((cyBle_eventHandlerFlag & CYBLE_CALLBACK) != 0u)
 495:.\Generated_Source\PSoC4/BLE_eventHandler.c ****     {
 496:.\Generated_Source\PSoC4/BLE_eventHandler.c ****         CyBle_TpscWriteResponseEventHandler(eventParam);
 497:.\Generated_Source\PSoC4/BLE_eventHandler.c ****     }
 498:.\Generated_Source\PSoC4/BLE_eventHandler.c **** #endif /* CYBLE_TPS_CLIENT */
 499:.\Generated_Source\PSoC4/BLE_eventHandler.c **** }
 500:.\Generated_Source\PSoC4/BLE_eventHandler.c **** #endif /* (CYBLE_GATT_ROLE_CLIENT) */
 501:.\Generated_Source\PSoC4/BLE_eventHandler.c **** 
 502:.\Generated_Source\PSoC4/BLE_eventHandler.c **** 
 503:.\Generated_Source\PSoC4/BLE_eventHandler.c **** /****************************************************************************** 
 504:.\Generated_Source\PSoC4/BLE_eventHandler.c **** ##Function Name: CyBle_DisconnectEventHandler
 505:.\Generated_Source\PSoC4/BLE_eventHandler.c **** *******************************************************************************
 506:.\Generated_Source\PSoC4/BLE_eventHandler.c **** 
 507:.\Generated_Source\PSoC4/BLE_eventHandler.c **** Summary:
 508:.\Generated_Source\PSoC4/BLE_eventHandler.c ****  Handles the GATT Disconnection event from the BLE stack.
 509:.\Generated_Source\PSoC4/BLE_eventHandler.c **** 
 510:.\Generated_Source\PSoC4/BLE_eventHandler.c **** Parameters:
 511:.\Generated_Source\PSoC4/BLE_eventHandler.c ****  None
 512:.\Generated_Source\PSoC4/BLE_eventHandler.c **** 
 513:.\Generated_Source\PSoC4/BLE_eventHandler.c **** Return:
 514:.\Generated_Source\PSoC4/BLE_eventHandler.c ****  None
 515:.\Generated_Source\PSoC4/BLE_eventHandler.c **** 
 516:.\Generated_Source\PSoC4/BLE_eventHandler.c **** ******************************************************************************/
 517:.\Generated_Source\PSoC4/BLE_eventHandler.c **** static void CyBle_GattDisconnectEventHandler(void)
 518:.\Generated_Source\PSoC4/BLE_eventHandler.c **** {
 196              		.loc 1 518 0
 197              		.cfi_startproc
 198 0000 80B5     		push	{r7, lr}
 199              		.cfi_def_cfa_offset 8
 200              		.cfi_offset 7, -8
 201              		.cfi_offset 14, -4
 202 0002 00AF     		add	r7, sp, #0
 203              		.cfi_def_cfa_register 7
 519:.\Generated_Source\PSoC4/BLE_eventHandler.c ****     cyBle_connHandle.attId = 0u;
 204              		.loc 1 519 0
 205 0004 034B     		ldr	r3, .L12
 206 0006 0022     		mov	r2, #0
 207 0008 5A70     		strb	r2, [r3, #1]
 520:.\Generated_Source\PSoC4/BLE_eventHandler.c ****     cyBle_connHandle.bdHandle = 0u;
 208              		.loc 1 520 0
 209 000a 024B     		ldr	r3, .L12
 210 000c 0022     		mov	r2, #0
 211 000e 1A70     		strb	r2, [r3]
 521:.\Generated_Source\PSoC4/BLE_eventHandler.c ****     
 522:.\Generated_Source\PSoC4/BLE_eventHandler.c ****     #if (CYBLE_GATT_ROLE_CLIENT)
 523:.\Generated_Source\PSoC4/BLE_eventHandler.c ****         if(CYBLE_CLIENT_STATE_DISCOVERED == CyBle_GetClientState())
 524:.\Generated_Source\PSoC4/BLE_eventHandler.c ****         {
 525:.\Generated_Source\PSoC4/BLE_eventHandler.c ****             CyBle_SetClientState(CYBLE_CLIENT_STATE_DISCONNECTED_DISCOVERED);
 526:.\Generated_Source\PSoC4/BLE_eventHandler.c ****         }
 527:.\Generated_Source\PSoC4/BLE_eventHandler.c ****         else
 528:.\Generated_Source\PSoC4/BLE_eventHandler.c ****         {
 529:.\Generated_Source\PSoC4/BLE_eventHandler.c ****             CyBle_SetClientState(CYBLE_CLIENT_STATE_DISCONNECTED);
 530:.\Generated_Source\PSoC4/BLE_eventHandler.c ****         }
ARM GAS  C:\Users\Lonnie\AppData\Local\Temp\ccJOwa1B.s 			page 14


 531:.\Generated_Source\PSoC4/BLE_eventHandler.c ****     #endif /* CYBLE_GATT_ROLE_CLIENT */
 532:.\Generated_Source\PSoC4/BLE_eventHandler.c ****         
 533:.\Generated_Source\PSoC4/BLE_eventHandler.c ****     #ifdef CYBLE_CPS_SERVER
 534:.\Generated_Source\PSoC4/BLE_eventHandler.c ****         #if CYBLE_GAP_ROLE_BROADCASTER
 535:.\Generated_Source\PSoC4/BLE_eventHandler.c ****             CyBle_CpssDisconnectEventHandler();
 536:.\Generated_Source\PSoC4/BLE_eventHandler.c ****         #endif /* CYBLE_GAP_ROLE_BROADCASTER */
 537:.\Generated_Source\PSoC4/BLE_eventHandler.c ****     #endif /* CYBLE_CPS_SERVER */
 538:.\Generated_Source\PSoC4/BLE_eventHandler.c **** 
 539:.\Generated_Source\PSoC4/BLE_eventHandler.c ****     #ifdef CYBLE_CPS_CLIENT
 540:.\Generated_Source\PSoC4/BLE_eventHandler.c ****         CyBle_CpscDisconnectEventHandler();
 541:.\Generated_Source\PSoC4/BLE_eventHandler.c ****     #endif /* CYBLE_CPS_CLIENT */
 542:.\Generated_Source\PSoC4/BLE_eventHandler.c **** 
 543:.\Generated_Source\PSoC4/BLE_eventHandler.c ****     #ifdef CYBLE_IAS_SERVER
 544:.\Generated_Source\PSoC4/BLE_eventHandler.c ****         CyBle_IassDisconnectEventHandler();
 545:.\Generated_Source\PSoC4/BLE_eventHandler.c ****     #endif /* CYBLE_IAS_SERVER */
 546:.\Generated_Source\PSoC4/BLE_eventHandler.c ****     
 547:.\Generated_Source\PSoC4/BLE_eventHandler.c ****     #ifdef CYBLE_GLS_SERVER
 548:.\Generated_Source\PSoC4/BLE_eventHandler.c ****         CyBle_GlsInit();
 549:.\Generated_Source\PSoC4/BLE_eventHandler.c ****     #endif /* CYBLE_GLS_SERVER */
 550:.\Generated_Source\PSoC4/BLE_eventHandler.c ****     
 551:.\Generated_Source\PSoC4/BLE_eventHandler.c ****     #ifdef CYBLE_LNS_SERVER
 552:.\Generated_Source\PSoC4/BLE_eventHandler.c ****         CyBle_LnsInit();
 553:.\Generated_Source\PSoC4/BLE_eventHandler.c ****     #endif /* CYBLE_LNS_SERVER */
 554:.\Generated_Source\PSoC4/BLE_eventHandler.c **** }
 212              		.loc 1 554 0
 213 0010 BD46     		mov	sp, r7
 214              		@ sp needed
 215 0012 80BD     		pop	{r7, pc}
 216              	.L13:
 217              		.align	2
 218              	.L12:
 219 0014 00000000 		.word	cyBle_connHandle
 220              		.cfi_endproc
 221              	.LFE4:
 222              		.size	CyBle_GattDisconnectEventHandler, .-CyBle_GattDisconnectEventHandler
 223              		.section	.text.CyBle_TimeOutEventHandler,"ax",%progbits
 224              		.align	2
 225              		.code	16
 226              		.thumb_func
 227              		.type	CyBle_TimeOutEventHandler, %function
 228              	CyBle_TimeOutEventHandler:
 229              	.LFB5:
 555:.\Generated_Source\PSoC4/BLE_eventHandler.c **** 
 556:.\Generated_Source\PSoC4/BLE_eventHandler.c **** 
 557:.\Generated_Source\PSoC4/BLE_eventHandler.c **** /****************************************************************************** 
 558:.\Generated_Source\PSoC4/BLE_eventHandler.c **** ##Function Name: CyBle_TimeOutEventHandler
 559:.\Generated_Source\PSoC4/BLE_eventHandler.c **** *******************************************************************************
 560:.\Generated_Source\PSoC4/BLE_eventHandler.c **** 
 561:.\Generated_Source\PSoC4/BLE_eventHandler.c **** Summary:
 562:.\Generated_Source\PSoC4/BLE_eventHandler.c ****  Handles the CYBLE_EVT_TIMEOUT event from the BLE stack.
 563:.\Generated_Source\PSoC4/BLE_eventHandler.c **** 
 564:.\Generated_Source\PSoC4/BLE_eventHandler.c **** Parameters:
 565:.\Generated_Source\PSoC4/BLE_eventHandler.c ****  *eventParam - The pointer to a structure of type CYBLE_TO_REASON_CODE_T.
 566:.\Generated_Source\PSoC4/BLE_eventHandler.c **** 
 567:.\Generated_Source\PSoC4/BLE_eventHandler.c **** Return:
 568:.\Generated_Source\PSoC4/BLE_eventHandler.c ****  None
 569:.\Generated_Source\PSoC4/BLE_eventHandler.c **** 
ARM GAS  C:\Users\Lonnie\AppData\Local\Temp\ccJOwa1B.s 			page 15


 570:.\Generated_Source\PSoC4/BLE_eventHandler.c **** ******************************************************************************/
 571:.\Generated_Source\PSoC4/BLE_eventHandler.c **** static void CyBle_TimeOutEventHandler(const CYBLE_TO_REASON_CODE_T *eventParam)
 572:.\Generated_Source\PSoC4/BLE_eventHandler.c **** {
 230              		.loc 1 572 0
 231              		.cfi_startproc
 232 0000 80B5     		push	{r7, lr}
 233              		.cfi_def_cfa_offset 8
 234              		.cfi_offset 7, -8
 235              		.cfi_offset 14, -4
 236 0002 82B0     		sub	sp, sp, #8
 237              		.cfi_def_cfa_offset 16
 238 0004 00AF     		add	r7, sp, #0
 239              		.cfi_def_cfa_register 7
 240 0006 7860     		str	r0, [r7, #4]
 573:.\Generated_Source\PSoC4/BLE_eventHandler.c ****     if(*eventParam == CYBLE_GATT_RSP_TO)
 574:.\Generated_Source\PSoC4/BLE_eventHandler.c ****     {
 575:.\Generated_Source\PSoC4/BLE_eventHandler.c ****     #if (CYBLE_GATT_ROLE_CLIENT)
 576:.\Generated_Source\PSoC4/BLE_eventHandler.c ****         if(0u != (cyBle_eventHandlerFlag & CYBLE_AUTO_DISCOVERY))
 577:.\Generated_Source\PSoC4/BLE_eventHandler.c ****         {
 578:.\Generated_Source\PSoC4/BLE_eventHandler.c ****             switch(CyBle_GetClientState())
 579:.\Generated_Source\PSoC4/BLE_eventHandler.c ****             {
 580:.\Generated_Source\PSoC4/BLE_eventHandler.c ****                 case CYBLE_CLIENT_STATE_SRVC_DISCOVERING:
 581:.\Generated_Source\PSoC4/BLE_eventHandler.c ****                     CyBle_ApplCallback(CYBLE_EVT_GATTC_SRVC_DISCOVERY_FAILED, NULL);
 582:.\Generated_Source\PSoC4/BLE_eventHandler.c ****                     break;
 583:.\Generated_Source\PSoC4/BLE_eventHandler.c ****                 case CYBLE_CLIENT_STATE_INCL_DISCOVERING:
 584:.\Generated_Source\PSoC4/BLE_eventHandler.c ****                     CyBle_ApplCallback(CYBLE_EVT_GATTC_INCL_DISCOVERY_FAILED, NULL);
 585:.\Generated_Source\PSoC4/BLE_eventHandler.c ****                     break;
 586:.\Generated_Source\PSoC4/BLE_eventHandler.c ****                 case CYBLE_CLIENT_STATE_CHAR_DISCOVERING:
 587:.\Generated_Source\PSoC4/BLE_eventHandler.c ****                     CyBle_ApplCallback(CYBLE_EVT_GATTC_CHAR_DISCOVERY_FAILED, NULL);
 588:.\Generated_Source\PSoC4/BLE_eventHandler.c ****                     break;
 589:.\Generated_Source\PSoC4/BLE_eventHandler.c ****                 case CYBLE_CLIENT_STATE_DESCR_DISCOVERING:
 590:.\Generated_Source\PSoC4/BLE_eventHandler.c ****                     CyBle_ApplCallback(CYBLE_EVT_GATTC_DESCR_DISCOVERY_FAILED, NULL);
 591:.\Generated_Source\PSoC4/BLE_eventHandler.c ****                     break;
 592:.\Generated_Source\PSoC4/BLE_eventHandler.c ****                 default:        /* Other states should not be set in Auto discovery mode */
 593:.\Generated_Source\PSoC4/BLE_eventHandler.c ****                     break;
 594:.\Generated_Source\PSoC4/BLE_eventHandler.c ****             }
 595:.\Generated_Source\PSoC4/BLE_eventHandler.c ****             cyBle_eventHandlerFlag &= (uint8)~CYBLE_AUTO_DISCOVERY;
 596:.\Generated_Source\PSoC4/BLE_eventHandler.c ****             CyBle_SetClientState(CYBLE_CLIENT_STATE_CONNECTED);
 597:.\Generated_Source\PSoC4/BLE_eventHandler.c ****         }
 598:.\Generated_Source\PSoC4/BLE_eventHandler.c ****     #endif /* CYBLE_GATT_ROLE_CLIENT */
 599:.\Generated_Source\PSoC4/BLE_eventHandler.c ****     #ifdef CYBLE_CPS_SERVER
 600:.\Generated_Source\PSoC4/BLE_eventHandler.c ****         CyBle_CpssTimeOutEventHandler();
 601:.\Generated_Source\PSoC4/BLE_eventHandler.c ****     #endif /* CYBLE_CPS_SERVER */
 602:.\Generated_Source\PSoC4/BLE_eventHandler.c ****     }
 603:.\Generated_Source\PSoC4/BLE_eventHandler.c ****     
 604:.\Generated_Source\PSoC4/BLE_eventHandler.c ****     /* Connection procedure timeout */
 605:.\Generated_Source\PSoC4/BLE_eventHandler.c ****     if(*eventParam == CYBLE_GENERIC_TO)
 606:.\Generated_Source\PSoC4/BLE_eventHandler.c ****     {
 607:.\Generated_Source\PSoC4/BLE_eventHandler.c ****     #if(CYBLE_GAP_ROLE_CENTRAL)
 608:.\Generated_Source\PSoC4/BLE_eventHandler.c ****         if(CYBLE_STATE_CONNECTING == CyBle_GetState())
 609:.\Generated_Source\PSoC4/BLE_eventHandler.c ****         {
 610:.\Generated_Source\PSoC4/BLE_eventHandler.c ****             (void)CyBle_GapcCancelDeviceConnection();
 611:.\Generated_Source\PSoC4/BLE_eventHandler.c ****         }
 612:.\Generated_Source\PSoC4/BLE_eventHandler.c ****     #endif /* CYBLE_GAP_ROLE_CENTRAL */
 613:.\Generated_Source\PSoC4/BLE_eventHandler.c ****     }
 614:.\Generated_Source\PSoC4/BLE_eventHandler.c **** }
 241              		.loc 1 614 0
ARM GAS  C:\Users\Lonnie\AppData\Local\Temp\ccJOwa1B.s 			page 16


 242 0008 BD46     		mov	sp, r7
 243 000a 02B0     		add	sp, sp, #8
 244              		@ sp needed
 245 000c 80BD     		pop	{r7, pc}
 246              		.cfi_endproc
 247              	.LFE5:
 248              		.size	CyBle_TimeOutEventHandler, .-CyBle_TimeOutEventHandler
 249              		.section	.text.CyBle_GattConnectReqHandler,"ax",%progbits
 250              		.align	2
 251              		.code	16
 252              		.thumb_func
 253              		.type	CyBle_GattConnectReqHandler, %function
 254              	CyBle_GattConnectReqHandler:
 255              	.LFB6:
 615:.\Generated_Source\PSoC4/BLE_eventHandler.c **** 
 616:.\Generated_Source\PSoC4/BLE_eventHandler.c **** 
 617:.\Generated_Source\PSoC4/BLE_eventHandler.c **** /****************************************************************************** 
 618:.\Generated_Source\PSoC4/BLE_eventHandler.c **** ##Function Name: CyBle_GattConnectReqHandler
 619:.\Generated_Source\PSoC4/BLE_eventHandler.c **** *******************************************************************************
 620:.\Generated_Source\PSoC4/BLE_eventHandler.c **** 
 621:.\Generated_Source\PSoC4/BLE_eventHandler.c **** Summary:
 622:.\Generated_Source\PSoC4/BLE_eventHandler.c ****  Handles the GATT connect event from the BLE stack.
 623:.\Generated_Source\PSoC4/BLE_eventHandler.c **** 
 624:.\Generated_Source\PSoC4/BLE_eventHandler.c **** Parameters:
 625:.\Generated_Source\PSoC4/BLE_eventHandler.c ****  None
 626:.\Generated_Source\PSoC4/BLE_eventHandler.c **** 
 627:.\Generated_Source\PSoC4/BLE_eventHandler.c **** Return:
 628:.\Generated_Source\PSoC4/BLE_eventHandler.c ****  None
 629:.\Generated_Source\PSoC4/BLE_eventHandler.c **** 
 630:.\Generated_Source\PSoC4/BLE_eventHandler.c **** ******************************************************************************/
 631:.\Generated_Source\PSoC4/BLE_eventHandler.c **** static void CyBle_GattConnectReqHandler(void)
 632:.\Generated_Source\PSoC4/BLE_eventHandler.c **** {
 256              		.loc 1 632 0
 257              		.cfi_startproc
 258 0000 80B5     		push	{r7, lr}
 259              		.cfi_def_cfa_offset 8
 260              		.cfi_offset 7, -8
 261              		.cfi_offset 14, -4
 262 0002 00AF     		add	r7, sp, #0
 263              		.cfi_def_cfa_register 7
 633:.\Generated_Source\PSoC4/BLE_eventHandler.c ****     #ifdef CYBLE_CPS_SERVER
 634:.\Generated_Source\PSoC4/BLE_eventHandler.c ****         CyBle_CpssConnectEventHandler();
 635:.\Generated_Source\PSoC4/BLE_eventHandler.c ****     #endif /* CYBLE_CPS_SERVER */
 636:.\Generated_Source\PSoC4/BLE_eventHandler.c ****     
 637:.\Generated_Source\PSoC4/BLE_eventHandler.c ****     #ifdef CYBLE_CSCS_SERVER
 638:.\Generated_Source\PSoC4/BLE_eventHandler.c ****             CyBle_CscsInit();
 639:.\Generated_Source\PSoC4/BLE_eventHandler.c ****     #endif /* CYBLE_CSCS_SERVER */
 640:.\Generated_Source\PSoC4/BLE_eventHandler.c ****     
 641:.\Generated_Source\PSoC4/BLE_eventHandler.c ****     #ifdef CYBLE_LLS_SERVER
 642:.\Generated_Source\PSoC4/BLE_eventHandler.c ****         CyBle_LlssConnectEventHandler();
 643:.\Generated_Source\PSoC4/BLE_eventHandler.c ****     #endif /* CYBLE_LLS_SERVER */
 644:.\Generated_Source\PSoC4/BLE_eventHandler.c ****     
 645:.\Generated_Source\PSoC4/BLE_eventHandler.c ****     #ifdef CYBLE_HIDS_SERVER
 646:.\Generated_Source\PSoC4/BLE_eventHandler.c ****         CyBle_HidssOnDeviceConnected();
 647:.\Generated_Source\PSoC4/BLE_eventHandler.c ****     #endif /* CYBLE_HIDS_SERVER */
 648:.\Generated_Source\PSoC4/BLE_eventHandler.c **** 
 649:.\Generated_Source\PSoC4/BLE_eventHandler.c ****     #ifdef CYBLE_RSCS_SERVER
ARM GAS  C:\Users\Lonnie\AppData\Local\Temp\ccJOwa1B.s 			page 17


 650:.\Generated_Source\PSoC4/BLE_eventHandler.c ****             CyBle_RscsInit();
 651:.\Generated_Source\PSoC4/BLE_eventHandler.c ****     #endif /* CYBLE_RSCS_SERVER */
 652:.\Generated_Source\PSoC4/BLE_eventHandler.c **** }
 264              		.loc 1 652 0
 265 0004 BD46     		mov	sp, r7
 266              		@ sp needed
 267 0006 80BD     		pop	{r7, pc}
 268              		.cfi_endproc
 269              	.LFE6:
 270              		.size	CyBle_GattConnectReqHandler, .-CyBle_GattConnectReqHandler
 271              		.section	.text.CyBle_IsDeviceAddressValid,"ax",%progbits
 272              		.align	2
 273              		.code	16
 274              		.thumb_func
 275              		.type	CyBle_IsDeviceAddressValid, %function
 276              	CyBle_IsDeviceAddressValid:
 277              	.LFB7:
 653:.\Generated_Source\PSoC4/BLE_eventHandler.c **** 
 654:.\Generated_Source\PSoC4/BLE_eventHandler.c **** 
 655:.\Generated_Source\PSoC4/BLE_eventHandler.c **** #if (CYBLE_GATT_ROLE_SERVER || CYBLE_GATT_ROLE_CLIENT)
 656:.\Generated_Source\PSoC4/BLE_eventHandler.c **** 
 657:.\Generated_Source\PSoC4/BLE_eventHandler.c **** /****************************************************************************** 
 658:.\Generated_Source\PSoC4/BLE_eventHandler.c **** ##Function Name: CyBle_IsDeviceAddressValid
 659:.\Generated_Source\PSoC4/BLE_eventHandler.c **** *******************************************************************************
 660:.\Generated_Source\PSoC4/BLE_eventHandler.c **** 
 661:.\Generated_Source\PSoC4/BLE_eventHandler.c **** Summary:
 662:.\Generated_Source\PSoC4/BLE_eventHandler.c ****  This function verifies that BLE public address has been programmed to SFLASH 
 663:.\Generated_Source\PSoC4/BLE_eventHandler.c ****  during manufacture.
 664:.\Generated_Source\PSoC4/BLE_eventHandler.c **** 
 665:.\Generated_Source\PSoC4/BLE_eventHandler.c **** Parameters:
 666:.\Generated_Source\PSoC4/BLE_eventHandler.c ****  CYBLE_GAP_BD_ADDR_T *sflashDeviceAddress: the pointer to the BD address of 
 667:.\Generated_Source\PSoC4/BLE_eventHandler.c ****                                            type CYBLE_GAP_BD_ADDR_T. 
 668:.\Generated_Source\PSoC4/BLE_eventHandler.c **** 
 669:.\Generated_Source\PSoC4/BLE_eventHandler.c **** Return:
 670:.\Generated_Source\PSoC4/BLE_eventHandler.c ****  Non zero value when a device address differs from the default SFLASH content.
 671:.\Generated_Source\PSoC4/BLE_eventHandler.c **** 
 672:.\Generated_Source\PSoC4/BLE_eventHandler.c **** ******************************************************************************/
 673:.\Generated_Source\PSoC4/BLE_eventHandler.c **** static uint8 CyBle_IsDeviceAddressValid(const CYBLE_GAP_BD_ADDR_T *sflashDeviceAddress)
 674:.\Generated_Source\PSoC4/BLE_eventHandler.c **** {
 278              		.loc 1 674 0
 279              		.cfi_startproc
 280 0000 80B5     		push	{r7, lr}
 281              		.cfi_def_cfa_offset 8
 282              		.cfi_offset 7, -8
 283              		.cfi_offset 14, -4
 284 0002 84B0     		sub	sp, sp, #16
 285              		.cfi_def_cfa_offset 24
 286 0004 00AF     		add	r7, sp, #0
 287              		.cfi_def_cfa_register 7
 288 0006 7860     		str	r0, [r7, #4]
 675:.\Generated_Source\PSoC4/BLE_eventHandler.c ****     uint8 i;
 676:.\Generated_Source\PSoC4/BLE_eventHandler.c ****     uint8 sflashAddressValid = 0u;
 289              		.loc 1 676 0
 290 0008 0E23     		mov	r3, #14
 291 000a FB18     		add	r3, r7, r3
 292 000c 0022     		mov	r2, #0
 293 000e 1A70     		strb	r2, [r3]
ARM GAS  C:\Users\Lonnie\AppData\Local\Temp\ccJOwa1B.s 			page 18


 677:.\Generated_Source\PSoC4/BLE_eventHandler.c ****     
 678:.\Generated_Source\PSoC4/BLE_eventHandler.c ****     if(sflashDeviceAddress -> type == CYBLE_GAP_ADDR_TYPE_PUBLIC)  
 294              		.loc 1 678 0
 295 0010 7B68     		ldr	r3, [r7, #4]
 296 0012 9B79     		ldrb	r3, [r3, #6]
 297 0014 002B     		cmp	r3, #0
 298 0016 1CD1     		bne	.L17
 679:.\Generated_Source\PSoC4/BLE_eventHandler.c ****     {
 680:.\Generated_Source\PSoC4/BLE_eventHandler.c ****         for(i = 0u; i < CYBLE_GAP_BD_ADDR_SIZE; i++)
 299              		.loc 1 680 0
 300 0018 0F23     		mov	r3, #15
 301 001a FB18     		add	r3, r7, r3
 302 001c 0022     		mov	r2, #0
 303 001e 1A70     		strb	r2, [r3]
 304 0020 12E0     		b	.L18
 305              	.L20:
 681:.\Generated_Source\PSoC4/BLE_eventHandler.c ****         {
 682:.\Generated_Source\PSoC4/BLE_eventHandler.c ****             if(sflashDeviceAddress->bdAddr[i] != 0u)
 306              		.loc 1 682 0
 307 0022 0F23     		mov	r3, #15
 308 0024 FB18     		add	r3, r7, r3
 309 0026 1B78     		ldrb	r3, [r3]
 310 0028 7A68     		ldr	r2, [r7, #4]
 311 002a D35C     		ldrb	r3, [r2, r3]
 312 002c 002B     		cmp	r3, #0
 313 002e 04D0     		beq	.L19
 683:.\Generated_Source\PSoC4/BLE_eventHandler.c ****             {
 684:.\Generated_Source\PSoC4/BLE_eventHandler.c ****                 sflashAddressValid = 1u;
 314              		.loc 1 684 0
 315 0030 0E23     		mov	r3, #14
 316 0032 FB18     		add	r3, r7, r3
 317 0034 0122     		mov	r2, #1
 318 0036 1A70     		strb	r2, [r3]
 685:.\Generated_Source\PSoC4/BLE_eventHandler.c ****                 break;
 319              		.loc 1 685 0
 320 0038 0BE0     		b	.L17
 321              	.L19:
 680:.\Generated_Source\PSoC4/BLE_eventHandler.c ****         {
 322              		.loc 1 680 0 discriminator 2
 323 003a 0F23     		mov	r3, #15
 324 003c FB18     		add	r3, r7, r3
 325 003e 1A78     		ldrb	r2, [r3]
 326 0040 0F23     		mov	r3, #15
 327 0042 FB18     		add	r3, r7, r3
 328 0044 0132     		add	r2, r2, #1
 329 0046 1A70     		strb	r2, [r3]
 330              	.L18:
 680:.\Generated_Source\PSoC4/BLE_eventHandler.c ****         {
 331              		.loc 1 680 0 is_stmt 0 discriminator 1
 332 0048 0F23     		mov	r3, #15
 333 004a FB18     		add	r3, r7, r3
 334 004c 1B78     		ldrb	r3, [r3]
 335 004e 052B     		cmp	r3, #5
 336 0050 E7D9     		bls	.L20
 337              	.L17:
 686:.\Generated_Source\PSoC4/BLE_eventHandler.c ****             }
 687:.\Generated_Source\PSoC4/BLE_eventHandler.c ****         }
ARM GAS  C:\Users\Lonnie\AppData\Local\Temp\ccJOwa1B.s 			page 19


 688:.\Generated_Source\PSoC4/BLE_eventHandler.c ****     }
 689:.\Generated_Source\PSoC4/BLE_eventHandler.c ****     return (sflashAddressValid);
 338              		.loc 1 689 0 is_stmt 1
 339 0052 0E23     		mov	r3, #14
 340 0054 FB18     		add	r3, r7, r3
 341 0056 1B78     		ldrb	r3, [r3]
 690:.\Generated_Source\PSoC4/BLE_eventHandler.c **** }
 342              		.loc 1 690 0
 343 0058 181C     		mov	r0, r3
 344 005a BD46     		mov	sp, r7
 345 005c 04B0     		add	sp, sp, #16
 346              		@ sp needed
 347 005e 80BD     		pop	{r7, pc}
 348              		.cfi_endproc
 349              	.LFE7:
 350              		.size	CyBle_IsDeviceAddressValid, .-CyBle_IsDeviceAddressValid
 351              		.section	.text.CyBle_L2Cap_ConnParamUpdateRspEventHandler,"ax",%progbits
 352              		.align	2
 353              		.code	16
 354              		.thumb_func
 355              		.type	CyBle_L2Cap_ConnParamUpdateRspEventHandler, %function
 356              	CyBle_L2Cap_ConnParamUpdateRspEventHandler:
 357              	.LFB8:
 691:.\Generated_Source\PSoC4/BLE_eventHandler.c **** #endif /* (CYBLE_GATT_ROLE_SERVER || CYBLE_GATT_ROLE_CLIENT) */
 692:.\Generated_Source\PSoC4/BLE_eventHandler.c **** 
 693:.\Generated_Source\PSoC4/BLE_eventHandler.c **** 
 694:.\Generated_Source\PSoC4/BLE_eventHandler.c **** /****************************************************************************** 
 695:.\Generated_Source\PSoC4/BLE_eventHandler.c **** ##Function Name: CyBle_L2Cap_ConnParamUpdateRspHandler
 696:.\Generated_Source\PSoC4/BLE_eventHandler.c **** *******************************************************************************
 697:.\Generated_Source\PSoC4/BLE_eventHandler.c **** 
 698:.\Generated_Source\PSoC4/BLE_eventHandler.c **** Summary:
 699:.\Generated_Source\PSoC4/BLE_eventHandler.c ****  Handles the L2CAP connection parameter response event from
 700:.\Generated_Source\PSoC4/BLE_eventHandler.c ****  the BLE stack.
 701:.\Generated_Source\PSoC4/BLE_eventHandler.c **** 
 702:.\Generated_Source\PSoC4/BLE_eventHandler.c **** Parameters:
 703:.\Generated_Source\PSoC4/BLE_eventHandler.c ****  uint16 response:
 704:.\Generated_Source\PSoC4/BLE_eventHandler.c ****      * Accepted = 0x0000
 705:.\Generated_Source\PSoC4/BLE_eventHandler.c ****      * Rejected = 0x0001
 706:.\Generated_Source\PSoC4/BLE_eventHandler.c **** 
 707:.\Generated_Source\PSoC4/BLE_eventHandler.c **** Return:
 708:.\Generated_Source\PSoC4/BLE_eventHandler.c ****  None
 709:.\Generated_Source\PSoC4/BLE_eventHandler.c **** 
 710:.\Generated_Source\PSoC4/BLE_eventHandler.c **** ******************************************************************************/
 711:.\Generated_Source\PSoC4/BLE_eventHandler.c **** static void CyBle_L2Cap_ConnParamUpdateRspEventHandler(uint16 response)
 712:.\Generated_Source\PSoC4/BLE_eventHandler.c **** {
 358              		.loc 1 712 0
 359              		.cfi_startproc
 360 0000 80B5     		push	{r7, lr}
 361              		.cfi_def_cfa_offset 8
 362              		.cfi_offset 7, -8
 363              		.cfi_offset 14, -4
 364 0002 82B0     		sub	sp, sp, #8
 365              		.cfi_def_cfa_offset 16
 366 0004 00AF     		add	r7, sp, #0
 367              		.cfi_def_cfa_register 7
 368 0006 021C     		mov	r2, r0
 369 0008 BB1D     		add	r3, r7, #6
ARM GAS  C:\Users\Lonnie\AppData\Local\Temp\ccJOwa1B.s 			page 20


 370 000a 1A80     		strh	r2, [r3]
 713:.\Generated_Source\PSoC4/BLE_eventHandler.c ****     #ifdef CYBLE_CPS_SERVER
 714:.\Generated_Source\PSoC4/BLE_eventHandler.c ****         CyBle_CpssConnParamUpdateRspEventHandler(response);
 715:.\Generated_Source\PSoC4/BLE_eventHandler.c ****     #endif /* CYBLE_CPS_SERVER */
 716:.\Generated_Source\PSoC4/BLE_eventHandler.c ****     
 717:.\Generated_Source\PSoC4/BLE_eventHandler.c ****     /* Unreferenced variable warning workaround */
 718:.\Generated_Source\PSoC4/BLE_eventHandler.c ****     if(response != 0u)
 719:.\Generated_Source\PSoC4/BLE_eventHandler.c ****     {
 720:.\Generated_Source\PSoC4/BLE_eventHandler.c ****     }
 721:.\Generated_Source\PSoC4/BLE_eventHandler.c **** }
 371              		.loc 1 721 0
 372 000c BD46     		mov	sp, r7
 373 000e 02B0     		add	sp, sp, #8
 374              		@ sp needed
 375 0010 80BD     		pop	{r7, pc}
 376              		.cfi_endproc
 377              	.LFE8:
 378              		.size	CyBle_L2Cap_ConnParamUpdateRspEventHandler, .-CyBle_L2Cap_ConnParamUpdateRspEventHandler
 379 0012 C046     		.section	.text.CyBle_GapConnUpdateCompleteEventHandler,"ax",%progbits
 380              		.align	2
 381              		.code	16
 382              		.thumb_func
 383              		.type	CyBle_GapConnUpdateCompleteEventHandler, %function
 384              	CyBle_GapConnUpdateCompleteEventHandler:
 385              	.LFB9:
 722:.\Generated_Source\PSoC4/BLE_eventHandler.c **** 
 723:.\Generated_Source\PSoC4/BLE_eventHandler.c **** 
 724:.\Generated_Source\PSoC4/BLE_eventHandler.c **** /****************************************************************************** 
 725:.\Generated_Source\PSoC4/BLE_eventHandler.c **** ##Function Name: CyBle_GapConnUpdateCompleteEventHandler
 726:.\Generated_Source\PSoC4/BLE_eventHandler.c **** *******************************************************************************
 727:.\Generated_Source\PSoC4/BLE_eventHandler.c **** 
 728:.\Generated_Source\PSoC4/BLE_eventHandler.c **** Summary:
 729:.\Generated_Source\PSoC4/BLE_eventHandler.c ****  Handles the CYBLE_EVT_GAP_CONNECTION_UPDATE_COMPLETE event from
 730:.\Generated_Source\PSoC4/BLE_eventHandler.c ****  the BLE stack.
 731:.\Generated_Source\PSoC4/BLE_eventHandler.c **** 
 732:.\Generated_Source\PSoC4/BLE_eventHandler.c **** Parameters:
 733:.\Generated_Source\PSoC4/BLE_eventHandler.c ****  *eventParam: The pointer to the data structure specified by the event.
 734:.\Generated_Source\PSoC4/BLE_eventHandler.c **** 
 735:.\Generated_Source\PSoC4/BLE_eventHandler.c **** Return:
 736:.\Generated_Source\PSoC4/BLE_eventHandler.c ****  None
 737:.\Generated_Source\PSoC4/BLE_eventHandler.c **** 
 738:.\Generated_Source\PSoC4/BLE_eventHandler.c **** ******************************************************************************/
 739:.\Generated_Source\PSoC4/BLE_eventHandler.c **** static void CyBle_GapConnUpdateCompleteEventHandler(const CYBLE_GAP_CONN_PARAM_UPDATED_IN_CONTROLLE
 740:.\Generated_Source\PSoC4/BLE_eventHandler.c **** {
 386              		.loc 1 740 0
 387              		.cfi_startproc
 388 0000 80B5     		push	{r7, lr}
 389              		.cfi_def_cfa_offset 8
 390              		.cfi_offset 7, -8
 391              		.cfi_offset 14, -4
 392 0002 82B0     		sub	sp, sp, #8
 393              		.cfi_def_cfa_offset 16
 394 0004 00AF     		add	r7, sp, #0
 395              		.cfi_def_cfa_register 7
 396 0006 7860     		str	r0, [r7, #4]
 741:.\Generated_Source\PSoC4/BLE_eventHandler.c ****     #ifdef CYBLE_CPS_SERVER
 742:.\Generated_Source\PSoC4/BLE_eventHandler.c ****         CyBle_CpssConnUpdateCompleteEventHandler(eventParam);
ARM GAS  C:\Users\Lonnie\AppData\Local\Temp\ccJOwa1B.s 			page 21


 743:.\Generated_Source\PSoC4/BLE_eventHandler.c ****     #endif /* CYBLE_CPS_SERVER */
 744:.\Generated_Source\PSoC4/BLE_eventHandler.c ****     
 745:.\Generated_Source\PSoC4/BLE_eventHandler.c ****     /* Unreferenced variable warning workaround */
 746:.\Generated_Source\PSoC4/BLE_eventHandler.c ****     if(eventParam != 0u)
 747:.\Generated_Source\PSoC4/BLE_eventHandler.c ****     {
 748:.\Generated_Source\PSoC4/BLE_eventHandler.c ****     }
 749:.\Generated_Source\PSoC4/BLE_eventHandler.c **** }
 397              		.loc 1 749 0
 398 0008 BD46     		mov	sp, r7
 399 000a 02B0     		add	sp, sp, #8
 400              		@ sp needed
 401 000c 80BD     		pop	{r7, pc}
 402              		.cfi_endproc
 403              	.LFE9:
 404              		.size	CyBle_GapConnUpdateCompleteEventHandler, .-CyBle_GapConnUpdateCompleteEventHandler
 405              		.section	.text.CyBle_EventHandler,"ax",%progbits
 406              		.align	2
 407              		.global	CyBle_EventHandler
 408              		.code	16
 409              		.thumb_func
 410              		.type	CyBle_EventHandler, %function
 411              	CyBle_EventHandler:
 412              	.LFB10:
 750:.\Generated_Source\PSoC4/BLE_eventHandler.c **** 
 751:.\Generated_Source\PSoC4/BLE_eventHandler.c **** 
 752:.\Generated_Source\PSoC4/BLE_eventHandler.c **** /****************************************************************************** 
 753:.\Generated_Source\PSoC4/BLE_eventHandler.c **** ##Function Name: CyBle_EventHandler
 754:.\Generated_Source\PSoC4/BLE_eventHandler.c **** *******************************************************************************
 755:.\Generated_Source\PSoC4/BLE_eventHandler.c **** 
 756:.\Generated_Source\PSoC4/BLE_eventHandler.c **** Summary:
 757:.\Generated_Source\PSoC4/BLE_eventHandler.c ****  Handles the events from the BLE stack
 758:.\Generated_Source\PSoC4/BLE_eventHandler.c **** 
 759:.\Generated_Source\PSoC4/BLE_eventHandler.c **** Parameters:
 760:.\Generated_Source\PSoC4/BLE_eventHandler.c ****  eventCode:    the event code
 761:.\Generated_Source\PSoC4/BLE_eventHandler.c ****  *eventParam:  the event parameters
 762:.\Generated_Source\PSoC4/BLE_eventHandler.c **** 
 763:.\Generated_Source\PSoC4/BLE_eventHandler.c **** Return:
 764:.\Generated_Source\PSoC4/BLE_eventHandler.c ****  None.
 765:.\Generated_Source\PSoC4/BLE_eventHandler.c **** 
 766:.\Generated_Source\PSoC4/BLE_eventHandler.c **** ******************************************************************************/
 767:.\Generated_Source\PSoC4/BLE_eventHandler.c **** void CyBle_EventHandler(uint8 eventCode, void *eventParam)
 768:.\Generated_Source\PSoC4/BLE_eventHandler.c **** {
 413              		.loc 1 768 0
 414              		.cfi_startproc
 415 0000 80B5     		push	{r7, lr}
 416              		.cfi_def_cfa_offset 8
 417              		.cfi_offset 7, -8
 418              		.cfi_offset 14, -4
 419 0002 84B0     		sub	sp, sp, #16
 420              		.cfi_def_cfa_offset 24
 421 0004 00AF     		add	r7, sp, #0
 422              		.cfi_def_cfa_register 7
 423 0006 021C     		mov	r2, r0
 424 0008 3960     		str	r1, [r7]
 425 000a FB1D     		add	r3, r7, #7
 426 000c 1A70     		strb	r2, [r3]
 769:.\Generated_Source\PSoC4/BLE_eventHandler.c ****     cyBle_eventHandlerFlag |= CYBLE_CALLBACK;
ARM GAS  C:\Users\Lonnie\AppData\Local\Temp\ccJOwa1B.s 			page 22


 427              		.loc 1 769 0
 428 000e B14B     		ldr	r3, .L58
 429 0010 1B78     		ldrb	r3, [r3]
 430 0012 DBB2     		uxtb	r3, r3
 431 0014 0122     		mov	r2, #1
 432 0016 1343     		orr	r3, r2
 433 0018 DAB2     		uxtb	r2, r3
 434 001a AE4B     		ldr	r3, .L58
 435 001c 1A70     		strb	r2, [r3]
 770:.\Generated_Source\PSoC4/BLE_eventHandler.c **** 
 771:.\Generated_Source\PSoC4/BLE_eventHandler.c ****     /* Common Profile event handling */
 772:.\Generated_Source\PSoC4/BLE_eventHandler.c ****     switch(eventCode)
 436              		.loc 1 772 0
 437 001e FB1D     		add	r3, r7, #7
 438 0020 1B78     		ldrb	r3, [r3]
 439 0022 2A2B     		cmp	r3, #42
 440 0024 00D1     		bne	.LCB368
 441 0026 8FE0     		b	.L26	@long jump
 442              	.LCB368:
 443 0028 16DC     		bgt	.L27
 444 002a 212B     		cmp	r3, #33
 445 002c 00D1     		bne	.LCB372
 446 002e 74E0     		b	.L28	@long jump
 447              	.LCB372:
 448 0030 08DC     		bgt	.L29
 449 0032 022B     		cmp	r3, #2
 450 0034 00D1     		bne	.LCB376
 451 0036 66E0     		b	.L30	@long jump
 452              	.LCB376:
 453 0038 052B     		cmp	r3, #5
 454 003a 00D1     		bne	.LCB378
 455 003c 68E0     		b	.L31	@long jump
 456              	.LCB378:
 457 003e 012B     		cmp	r3, #1
 458 0040 27D0     		beq	.L32
 773:.\Generated_Source\PSoC4/BLE_eventHandler.c ****     {
 774:.\Generated_Source\PSoC4/BLE_eventHandler.c ****         /**********************************************************
 775:.\Generated_Source\PSoC4/BLE_eventHandler.c ****         ##General events
 776:.\Generated_Source\PSoC4/BLE_eventHandler.c ****         ***********************************************************/
 777:.\Generated_Source\PSoC4/BLE_eventHandler.c ****         case CYBLE_EVT_STACK_ON:
 778:.\Generated_Source\PSoC4/BLE_eventHandler.c ****         #if(CYBLE_MODE_PROFILE)
 779:.\Generated_Source\PSoC4/BLE_eventHandler.c ****         {
 780:.\Generated_Source\PSoC4/BLE_eventHandler.c ****             CYBLE_BLESS_PWR_IN_DB_T bleSsPowerLevel;
 781:.\Generated_Source\PSoC4/BLE_eventHandler.c ****             
 782:.\Generated_Source\PSoC4/BLE_eventHandler.c ****             /* Set Tx Power Level for advertising and connection channels */
 783:.\Generated_Source\PSoC4/BLE_eventHandler.c ****             bleSsPowerLevel.blePwrLevelInDbm = CYBLE_TX_POWER_LEVEL;
 784:.\Generated_Source\PSoC4/BLE_eventHandler.c ****             bleSsPowerLevel.bleSsChId = CYBLE_LL_ADV_CH_TYPE;
 785:.\Generated_Source\PSoC4/BLE_eventHandler.c ****             (void) CyBle_SetTxPowerLevel (&bleSsPowerLevel);
 786:.\Generated_Source\PSoC4/BLE_eventHandler.c ****             bleSsPowerLevel.bleSsChId = CYBLE_LL_CONN_CH_TYPE;
 787:.\Generated_Source\PSoC4/BLE_eventHandler.c ****             (void) CyBle_SetTxPowerLevel (&bleSsPowerLevel);
 788:.\Generated_Source\PSoC4/BLE_eventHandler.c ****         }
 789:.\Generated_Source\PSoC4/BLE_eventHandler.c ****         #endif /* CYBLE_MODE_PROFILE */
 790:.\Generated_Source\PSoC4/BLE_eventHandler.c ****         #if (CYBLE_GATT_ROLE_SERVER || CYBLE_GATT_ROLE_CLIENT)
 791:.\Generated_Source\PSoC4/BLE_eventHandler.c ****             /* Set device Address  */
 792:.\Generated_Source\PSoC4/BLE_eventHandler.c ****             if(CyBle_IsDeviceAddressValid(cyBle_sflashDeviceAddress) != 0u)
 793:.\Generated_Source\PSoC4/BLE_eventHandler.c ****             {
 794:.\Generated_Source\PSoC4/BLE_eventHandler.c ****                 (void) CyBle_SetDeviceAddress(cyBle_sflashDeviceAddress);
ARM GAS  C:\Users\Lonnie\AppData\Local\Temp\ccJOwa1B.s 			page 23


 795:.\Generated_Source\PSoC4/BLE_eventHandler.c ****             }
 796:.\Generated_Source\PSoC4/BLE_eventHandler.c ****             else
 797:.\Generated_Source\PSoC4/BLE_eventHandler.c ****             {
 798:.\Generated_Source\PSoC4/BLE_eventHandler.c ****             #if (SILICON_GENERATED_DEVICE_ADDRESS != 0u)
 799:.\Generated_Source\PSoC4/BLE_eventHandler.c ****                 cyBle_deviceAddress.bdAddr[0] = CYBLE_SFLASH_DIE_X_REG;
 800:.\Generated_Source\PSoC4/BLE_eventHandler.c ****                 cyBle_deviceAddress.bdAddr[1] = CYBLE_SFLASH_DIE_Y_REG;
 801:.\Generated_Source\PSoC4/BLE_eventHandler.c ****                 cyBle_deviceAddress.bdAddr[2] = CYBLE_SFLASH_DIE_WAFER_REG;
 802:.\Generated_Source\PSoC4/BLE_eventHandler.c ****             #endif /* SILICON_GENERATED_DEVICE_ADDRESS != 0u */
 803:.\Generated_Source\PSoC4/BLE_eventHandler.c ****                 (void) CyBle_SetDeviceAddress(&cyBle_deviceAddress);
 804:.\Generated_Source\PSoC4/BLE_eventHandler.c ****             }
 805:.\Generated_Source\PSoC4/BLE_eventHandler.c ****             /* Set device IO Capability  */
 806:.\Generated_Source\PSoC4/BLE_eventHandler.c ****             (void) CyBle_GapSetIoCap(CYBLE_IO_CAPABILITY);    
 807:.\Generated_Source\PSoC4/BLE_eventHandler.c ****         #endif /* CYBLE_GATT_ROLE_SERVER || CYBLE_GATT_ROLE_CLIENT */
 808:.\Generated_Source\PSoC4/BLE_eventHandler.c ****             CyBle_SetState(CYBLE_STATE_DISCONNECTED);
 809:.\Generated_Source\PSoC4/BLE_eventHandler.c ****             break;
 810:.\Generated_Source\PSoC4/BLE_eventHandler.c ****         case CYBLE_EVT_TIMEOUT:
 811:.\Generated_Source\PSoC4/BLE_eventHandler.c ****             CyBle_TimeOutEventHandler((CYBLE_TO_REASON_CODE_T *)eventParam);
 812:.\Generated_Source\PSoC4/BLE_eventHandler.c ****             break;
 813:.\Generated_Source\PSoC4/BLE_eventHandler.c ****     	case CYBLE_EVT_STACK_BUSY_STATUS:
 814:.\Generated_Source\PSoC4/BLE_eventHandler.c ****             cyBle_busStatus = *(uint8 *)eventParam;
 815:.\Generated_Source\PSoC4/BLE_eventHandler.c ****             break;
 816:.\Generated_Source\PSoC4/BLE_eventHandler.c **** 
 817:.\Generated_Source\PSoC4/BLE_eventHandler.c ****         /**********************************************************
 818:.\Generated_Source\PSoC4/BLE_eventHandler.c ****         ##GAP events
 819:.\Generated_Source\PSoC4/BLE_eventHandler.c ****         ***********************************************************/
 820:.\Generated_Source\PSoC4/BLE_eventHandler.c ****         case CYBLE_EVT_GAP_AUTH_REQ:
 821:.\Generated_Source\PSoC4/BLE_eventHandler.c ****         #if(CYBLE_MODE_PROFILE)
 822:.\Generated_Source\PSoC4/BLE_eventHandler.c ****             if(0u == (cyBle_eventHandlerFlag & CYBLE_DISABLE_AUTOMATIC_AUTH))
 823:.\Generated_Source\PSoC4/BLE_eventHandler.c ****             {
 824:.\Generated_Source\PSoC4/BLE_eventHandler.c ****                 /* If the responding device does not support pairing then the responding 
 825:.\Generated_Source\PSoC4/BLE_eventHandler.c ****                    device shall respond using the Pairing Failed message with the error 
 826:.\Generated_Source\PSoC4/BLE_eventHandler.c ****                    code "Pairing Not Supported" otherwise it responds with a Pairing 
 827:.\Generated_Source\PSoC4/BLE_eventHandler.c ****                    Response message.
 828:.\Generated_Source\PSoC4/BLE_eventHandler.c ****                 */
 829:.\Generated_Source\PSoC4/BLE_eventHandler.c ****                 if(cyBle_authInfo.security == (CYBLE_GAP_SEC_MODE_1 | CYBLE_GAP_SEC_LEVEL_1))
 830:.\Generated_Source\PSoC4/BLE_eventHandler.c ****                 {
 831:.\Generated_Source\PSoC4/BLE_eventHandler.c ****                     cyBle_authInfo.authErr = CYBLE_GAP_AUTH_ERROR_PAIRING_NOT_SUPPORTED;
 832:.\Generated_Source\PSoC4/BLE_eventHandler.c ****                 }    
 833:.\Generated_Source\PSoC4/BLE_eventHandler.c ****             #if(CYBLE_GAP_ROLE_PERIPHERAL)
 834:.\Generated_Source\PSoC4/BLE_eventHandler.c ****                 (void)CyBle_GappAuthReqReply(cyBle_connHandle.bdHandle, &cyBle_authInfo);
 835:.\Generated_Source\PSoC4/BLE_eventHandler.c ****             #endif /* CYBLE_GAP_ROLE_PERIPHERAL */
 836:.\Generated_Source\PSoC4/BLE_eventHandler.c ****             #if (CYBLE_GAP_ROLE_CENTRAL)
 837:.\Generated_Source\PSoC4/BLE_eventHandler.c ****                 (void)CyBle_GapAuthReq(cyBle_connHandle.bdHandle, &cyBle_authInfo);
 838:.\Generated_Source\PSoC4/BLE_eventHandler.c ****             #endif /* CYBLE_GAP_ROLE_CENTRAL */
 839:.\Generated_Source\PSoC4/BLE_eventHandler.c ****             }
 840:.\Generated_Source\PSoC4/BLE_eventHandler.c ****         #endif /* CYBLE_MODE_PROFILE */
 841:.\Generated_Source\PSoC4/BLE_eventHandler.c ****             break;
 842:.\Generated_Source\PSoC4/BLE_eventHandler.c **** 
 843:.\Generated_Source\PSoC4/BLE_eventHandler.c ****         case CYBLE_EVT_GAP_CONNECTION_UPDATE_COMPLETE:
 844:.\Generated_Source\PSoC4/BLE_eventHandler.c ****             CyBle_GapConnUpdateCompleteEventHandler((const CYBLE_GAP_CONN_PARAM_UPDATED_IN_CONTROLL
 845:.\Generated_Source\PSoC4/BLE_eventHandler.c ****             break;
 846:.\Generated_Source\PSoC4/BLE_eventHandler.c ****         case CYBLE_EVT_GAP_DEVICE_CONNECTED:
 847:.\Generated_Source\PSoC4/BLE_eventHandler.c ****             CyBle_GapConnUpdateCompleteEventHandler((const CYBLE_GAP_CONN_PARAM_UPDATED_IN_CONTROLL
 848:.\Generated_Source\PSoC4/BLE_eventHandler.c ****             #if(CYBLE_GAP_ROLE_CENTRAL)
 849:.\Generated_Source\PSoC4/BLE_eventHandler.c ****                 if(cyBle_connectingTimeout != 0u)
 850:.\Generated_Source\PSoC4/BLE_eventHandler.c ****                 {
 851:.\Generated_Source\PSoC4/BLE_eventHandler.c ****                    (void)CyBle_StopTimer();
ARM GAS  C:\Users\Lonnie\AppData\Local\Temp\ccJOwa1B.s 			page 24


 852:.\Generated_Source\PSoC4/BLE_eventHandler.c ****                 }
 853:.\Generated_Source\PSoC4/BLE_eventHandler.c ****             #endif /* CYBLE_GAP_ROLE_CENTRAL */
 854:.\Generated_Source\PSoC4/BLE_eventHandler.c ****             CyBle_SetState(CYBLE_STATE_CONNECTED);
 855:.\Generated_Source\PSoC4/BLE_eventHandler.c ****             break;
 856:.\Generated_Source\PSoC4/BLE_eventHandler.c **** 
 857:.\Generated_Source\PSoC4/BLE_eventHandler.c ****         case CYBLE_EVT_GAP_DEVICE_DISCONNECTED:
 858:.\Generated_Source\PSoC4/BLE_eventHandler.c ****             CyBle_SetState(CYBLE_STATE_DISCONNECTED);
 859:.\Generated_Source\PSoC4/BLE_eventHandler.c ****             break;
 860:.\Generated_Source\PSoC4/BLE_eventHandler.c ****             
 861:.\Generated_Source\PSoC4/BLE_eventHandler.c ****         #if(CYBLE_GAP_ROLE_PERIPHERAL || CYBLE_GAP_ROLE_BROADCASTER)
 862:.\Generated_Source\PSoC4/BLE_eventHandler.c ****         case CYBLE_EVT_GAPP_ADVERTISEMENT_START_STOP:
 863:.\Generated_Source\PSoC4/BLE_eventHandler.c ****             
 864:.\Generated_Source\PSoC4/BLE_eventHandler.c ****         #ifdef CYBLE_CPS_SERVER
 865:.\Generated_Source\PSoC4/BLE_eventHandler.c ****             #if(CYBLE_GAP_ROLE_BROADCASTER)
 866:.\Generated_Source\PSoC4/BLE_eventHandler.c ****                 CyBle_CpssAdvertisementStartStopEventHandler();
 867:.\Generated_Source\PSoC4/BLE_eventHandler.c ****             #endif /* CYBLE_GAP_ROLE_BROADCASTER */
 868:.\Generated_Source\PSoC4/BLE_eventHandler.c ****         #endif /* CYBLE_CPS_SERVER */
 869:.\Generated_Source\PSoC4/BLE_eventHandler.c ****             
 870:.\Generated_Source\PSoC4/BLE_eventHandler.c ****             if((CYBLE_STATE_CONNECTED != CyBle_GetState()) && ((cyBle_eventHandlerFlag & CYBLE_CALL
 871:.\Generated_Source\PSoC4/BLE_eventHandler.c ****             {
 872:.\Generated_Source\PSoC4/BLE_eventHandler.c ****                 /* After CyBle_GappStartAdvertisement first event indicates that advertising has be
 873:.\Generated_Source\PSoC4/BLE_eventHandler.c ****                 if(0u != (cyBle_eventHandlerFlag & CYBLE_START_FLAG))
 874:.\Generated_Source\PSoC4/BLE_eventHandler.c ****                 {
 875:.\Generated_Source\PSoC4/BLE_eventHandler.c ****                     CyBle_SetState(CYBLE_STATE_ADVERTISING);
 876:.\Generated_Source\PSoC4/BLE_eventHandler.c ****                     cyBle_eventHandlerFlag &= (uint8)~CYBLE_START_FLAG;
 877:.\Generated_Source\PSoC4/BLE_eventHandler.c ****                 }
 878:.\Generated_Source\PSoC4/BLE_eventHandler.c ****                 /* When application initiated stop advertisement */
 879:.\Generated_Source\PSoC4/BLE_eventHandler.c ****                 else if(0u != (cyBle_eventHandlerFlag & CYBLE_STOP_FLAG))
 880:.\Generated_Source\PSoC4/BLE_eventHandler.c ****                 {
 881:.\Generated_Source\PSoC4/BLE_eventHandler.c ****                     CyBle_SetState(CYBLE_STATE_DISCONNECTED);  
 882:.\Generated_Source\PSoC4/BLE_eventHandler.c ****                     cyBle_eventHandlerFlag &= (uint8)~CYBLE_STOP_FLAG;
 883:.\Generated_Source\PSoC4/BLE_eventHandler.c ****                 }
 884:.\Generated_Source\PSoC4/BLE_eventHandler.c ****                 else /* Following event indicates that advertising has been stopped */
 885:.\Generated_Source\PSoC4/BLE_eventHandler.c ****                 {
 886:.\Generated_Source\PSoC4/BLE_eventHandler.c ****                     if(CYBLE_STATE_ADVERTISING == CyBle_GetState())
 887:.\Generated_Source\PSoC4/BLE_eventHandler.c ****                     {
 888:.\Generated_Source\PSoC4/BLE_eventHandler.c ****                         CyBle_SetState(CYBLE_STATE_DISCONNECTED);
 889:.\Generated_Source\PSoC4/BLE_eventHandler.c ****                     #if (CYBLE_SLOW_ADV_ENABLED != 0u)
 890:.\Generated_Source\PSoC4/BLE_eventHandler.c ****                         if(cyBle_advertisingIntervalType == CYBLE_ADVERTISING_FAST)
 891:.\Generated_Source\PSoC4/BLE_eventHandler.c ****                         {
 892:.\Generated_Source\PSoC4/BLE_eventHandler.c ****                             /* When fast advertising time out occur: Start slow advertising */
 893:.\Generated_Source\PSoC4/BLE_eventHandler.c ****                             if(CYBLE_ERROR_OK == CyBle_GappStartAdvertisement(CYBLE_ADVERTISING_SLO
 894:.\Generated_Source\PSoC4/BLE_eventHandler.c ****                             {
 895:.\Generated_Source\PSoC4/BLE_eventHandler.c ****                                 CyBle_SetState(CYBLE_STATE_ADVERTISING);
 896:.\Generated_Source\PSoC4/BLE_eventHandler.c ****                             }
 897:.\Generated_Source\PSoC4/BLE_eventHandler.c ****                         }
 898:.\Generated_Source\PSoC4/BLE_eventHandler.c ****                     #endif /* CYBLE_SLOW_ADV_ENABLED */
 899:.\Generated_Source\PSoC4/BLE_eventHandler.c ****                     }
 900:.\Generated_Source\PSoC4/BLE_eventHandler.c ****                 }
 901:.\Generated_Source\PSoC4/BLE_eventHandler.c ****             }
 902:.\Generated_Source\PSoC4/BLE_eventHandler.c ****             break;
 903:.\Generated_Source\PSoC4/BLE_eventHandler.c ****         #endif /* CYBLE_GAP_ROLE_PERIPHERAL || CYBLE_GAP_ROLE_BROADCASTER */
 904:.\Generated_Source\PSoC4/BLE_eventHandler.c ****         
 905:.\Generated_Source\PSoC4/BLE_eventHandler.c ****         #if(CYBLE_GAP_ROLE_CENTRAL || CYBLE_GAP_ROLE_OBSERVER)    
 906:.\Generated_Source\PSoC4/BLE_eventHandler.c ****         case CYBLE_EVT_GAPC_SCAN_START_STOP:
 907:.\Generated_Source\PSoC4/BLE_eventHandler.c ****             
 908:.\Generated_Source\PSoC4/BLE_eventHandler.c ****         #ifdef CYBLE_CPS_CLIENT
ARM GAS  C:\Users\Lonnie\AppData\Local\Temp\ccJOwa1B.s 			page 25


 909:.\Generated_Source\PSoC4/BLE_eventHandler.c ****             CyBle_CpscScanStartStopEventHandler();
 910:.\Generated_Source\PSoC4/BLE_eventHandler.c ****         #endif /* CYBLE_CPS_CLIENT */
 911:.\Generated_Source\PSoC4/BLE_eventHandler.c ****             
 912:.\Generated_Source\PSoC4/BLE_eventHandler.c ****             if((CYBLE_STATE_CONNECTED != CyBle_GetState()) && ((cyBle_eventHandlerFlag & CYBLE_CALL
 913:.\Generated_Source\PSoC4/BLE_eventHandler.c ****             {
 914:.\Generated_Source\PSoC4/BLE_eventHandler.c ****                 /* After CyBle_GapcStartScan first event indicates that scanning has been started *
 915:.\Generated_Source\PSoC4/BLE_eventHandler.c ****                 if(0u != (cyBle_eventHandlerFlag & CYBLE_START_FLAG))
 916:.\Generated_Source\PSoC4/BLE_eventHandler.c ****                 {
 917:.\Generated_Source\PSoC4/BLE_eventHandler.c ****                     CyBle_SetState(CYBLE_STATE_SCANNING);
 918:.\Generated_Source\PSoC4/BLE_eventHandler.c ****                     cyBle_eventHandlerFlag &= (uint8)~CYBLE_START_FLAG;
 919:.\Generated_Source\PSoC4/BLE_eventHandler.c ****                 }
 920:.\Generated_Source\PSoC4/BLE_eventHandler.c ****                 /* When application initiated stop scanning */
 921:.\Generated_Source\PSoC4/BLE_eventHandler.c ****                 else if(0u != (cyBle_eventHandlerFlag & CYBLE_STOP_FLAG))
 922:.\Generated_Source\PSoC4/BLE_eventHandler.c ****                 {
 923:.\Generated_Source\PSoC4/BLE_eventHandler.c ****                     CyBle_SetState(CYBLE_STATE_DISCONNECTED);  
 924:.\Generated_Source\PSoC4/BLE_eventHandler.c ****                     cyBle_eventHandlerFlag &= (uint8)~CYBLE_STOP_FLAG;
 925:.\Generated_Source\PSoC4/BLE_eventHandler.c ****                 }
 926:.\Generated_Source\PSoC4/BLE_eventHandler.c ****                 else /* Following event indicates that scanning has been stopped by stack */
 927:.\Generated_Source\PSoC4/BLE_eventHandler.c ****                 {
 928:.\Generated_Source\PSoC4/BLE_eventHandler.c ****                     if(CYBLE_STATE_SCANNING == CyBle_GetState())
 929:.\Generated_Source\PSoC4/BLE_eventHandler.c ****                     {
 930:.\Generated_Source\PSoC4/BLE_eventHandler.c ****                         CyBle_SetState(CYBLE_STATE_DISCONNECTED);  
 931:.\Generated_Source\PSoC4/BLE_eventHandler.c ****                     #if (CYBLE_SLOW_SCAN_ENABLED != 0u)
 932:.\Generated_Source\PSoC4/BLE_eventHandler.c ****                         if(cyBle_scanningIntervalType == CYBLE_SCANNING_FAST)
 933:.\Generated_Source\PSoC4/BLE_eventHandler.c ****                         {
 934:.\Generated_Source\PSoC4/BLE_eventHandler.c ****                             /* When fast scanning time out occur: Start slow scanning */
 935:.\Generated_Source\PSoC4/BLE_eventHandler.c ****                             if(CYBLE_ERROR_OK == CyBle_GapcStartScan(CYBLE_SCANNING_SLOW))
 936:.\Generated_Source\PSoC4/BLE_eventHandler.c ****                             {
 937:.\Generated_Source\PSoC4/BLE_eventHandler.c ****                                 CyBle_SetState(CYBLE_STATE_SCANNING);
 938:.\Generated_Source\PSoC4/BLE_eventHandler.c ****                             }
 939:.\Generated_Source\PSoC4/BLE_eventHandler.c ****                         }
 940:.\Generated_Source\PSoC4/BLE_eventHandler.c ****                     #endif /* CYBLE_SLOW_ADV_ENABLED */
 941:.\Generated_Source\PSoC4/BLE_eventHandler.c ****                     }
 942:.\Generated_Source\PSoC4/BLE_eventHandler.c ****                 }
 943:.\Generated_Source\PSoC4/BLE_eventHandler.c ****             }
 944:.\Generated_Source\PSoC4/BLE_eventHandler.c ****             break;
 945:.\Generated_Source\PSoC4/BLE_eventHandler.c ****         #endif /* CYBLE_GAP_ROLE_CENTRAL || CYBLE_GAP_ROLE_OBSERVER */
 946:.\Generated_Source\PSoC4/BLE_eventHandler.c **** 
 947:.\Generated_Source\PSoC4/BLE_eventHandler.c ****         /**********************************************************
 948:.\Generated_Source\PSoC4/BLE_eventHandler.c ****         ##L2AP events 
 949:.\Generated_Source\PSoC4/BLE_eventHandler.c ****         ***********************************************************/
 950:.\Generated_Source\PSoC4/BLE_eventHandler.c ****         case CYBLE_EVT_L2CAP_CONN_PARAM_UPDATE_RSP:
 951:.\Generated_Source\PSoC4/BLE_eventHandler.c ****             CyBle_L2Cap_ConnParamUpdateRspEventHandler(*(uint16 *)eventParam);
 952:.\Generated_Source\PSoC4/BLE_eventHandler.c ****             break;
 953:.\Generated_Source\PSoC4/BLE_eventHandler.c ****         
 954:.\Generated_Source\PSoC4/BLE_eventHandler.c ****         /**********************************************************
 955:.\Generated_Source\PSoC4/BLE_eventHandler.c ****         ##GATT events
 956:.\Generated_Source\PSoC4/BLE_eventHandler.c ****         ***********************************************************/        
 957:.\Generated_Source\PSoC4/BLE_eventHandler.c ****         case CYBLE_EVT_GATT_CONNECT_IND:
 958:.\Generated_Source\PSoC4/BLE_eventHandler.c ****             cyBle_connHandle = *(CYBLE_CONN_HANDLE_T *)eventParam;
 959:.\Generated_Source\PSoC4/BLE_eventHandler.c ****             
 960:.\Generated_Source\PSoC4/BLE_eventHandler.c ****         #if((CYBLE_GATT_ROLE_SERVER) && (CYBLE_GATT_DB_CCCD_COUNT != 0u))
 961:.\Generated_Source\PSoC4/BLE_eventHandler.c ****             /* Init CCCD values in RAM */
 962:.\Generated_Source\PSoC4/BLE_eventHandler.c ****         	(void) memcpy (cyBle_attValuesCCCD, cyBle_attValuesCCCDFlashMemory[cyBle_connHandle.bdHand
 963:.\Generated_Source\PSoC4/BLE_eventHandler.c ****                             CYBLE_GATT_DB_CCCD_COUNT);
 964:.\Generated_Source\PSoC4/BLE_eventHandler.c ****         #endif /* CYBLE_GATT_ROLE_SERVER */
 965:.\Generated_Source\PSoC4/BLE_eventHandler.c ****         
ARM GAS  C:\Users\Lonnie\AppData\Local\Temp\ccJOwa1B.s 			page 26


 966:.\Generated_Source\PSoC4/BLE_eventHandler.c ****         #if (CYBLE_GATT_ROLE_CLIENT)
 967:.\Generated_Source\PSoC4/BLE_eventHandler.c ****             CyBle_SetClientState(CYBLE_CLIENT_STATE_CONNECTED);
 968:.\Generated_Source\PSoC4/BLE_eventHandler.c ****         #endif /* CYBLE_GATT_ROLE_CLIENT */
 969:.\Generated_Source\PSoC4/BLE_eventHandler.c ****         
 970:.\Generated_Source\PSoC4/BLE_eventHandler.c ****             CyBle_GattConnectReqHandler();
 971:.\Generated_Source\PSoC4/BLE_eventHandler.c ****             break;
 972:.\Generated_Source\PSoC4/BLE_eventHandler.c **** 
 973:.\Generated_Source\PSoC4/BLE_eventHandler.c ****         case CYBLE_EVT_GATT_DISCONNECT_IND:
 974:.\Generated_Source\PSoC4/BLE_eventHandler.c ****             CyBle_GattDisconnectEventHandler();
 975:.\Generated_Source\PSoC4/BLE_eventHandler.c ****             break;
 976:.\Generated_Source\PSoC4/BLE_eventHandler.c **** 
 977:.\Generated_Source\PSoC4/BLE_eventHandler.c ****     #if((CYBLE_GATT_ROLE_SERVER) || (CYBLE_GATT_ROLE_CLIENT))
 978:.\Generated_Source\PSoC4/BLE_eventHandler.c ****         case CYBLE_EVT_GATTS_XCNHG_MTU_REQ:
 979:.\Generated_Source\PSoC4/BLE_eventHandler.c ****         {
 980:.\Generated_Source\PSoC4/BLE_eventHandler.c ****             uint16 cyBle_mtuSize;
 981:.\Generated_Source\PSoC4/BLE_eventHandler.c ****             if(CYBLE_GATT_MTU > ((CYBLE_GATT_XCHG_MTU_PARAM_T *)eventParam)->mtu)
 982:.\Generated_Source\PSoC4/BLE_eventHandler.c ****             {
 983:.\Generated_Source\PSoC4/BLE_eventHandler.c ****                 cyBle_mtuSize = ((CYBLE_GATT_XCHG_MTU_PARAM_T *)eventParam)->mtu;
 984:.\Generated_Source\PSoC4/BLE_eventHandler.c ****             }
 985:.\Generated_Source\PSoC4/BLE_eventHandler.c ****             else
 986:.\Generated_Source\PSoC4/BLE_eventHandler.c ****             {
 987:.\Generated_Source\PSoC4/BLE_eventHandler.c ****                 cyBle_mtuSize = CYBLE_GATT_MTU;
 988:.\Generated_Source\PSoC4/BLE_eventHandler.c ****             }
 989:.\Generated_Source\PSoC4/BLE_eventHandler.c ****             (void)CyBle_GattsExchangeMtuRsp(((CYBLE_GATT_XCHG_MTU_PARAM_T *)eventParam)->connHandle
 990:.\Generated_Source\PSoC4/BLE_eventHandler.c ****              }
 991:.\Generated_Source\PSoC4/BLE_eventHandler.c ****             break;
 992:.\Generated_Source\PSoC4/BLE_eventHandler.c ****     #endif /* (CYBLE_GATT_ROLE_SERVER) || (CYBLE_GATT_ROLE_CLIENT) */
 993:.\Generated_Source\PSoC4/BLE_eventHandler.c ****     
 994:.\Generated_Source\PSoC4/BLE_eventHandler.c ****     #if (CYBLE_GATT_ROLE_CLIENT)
 995:.\Generated_Source\PSoC4/BLE_eventHandler.c ****         case CYBLE_EVT_GAPC_SCAN_PROGRESS_RESULT:
 996:.\Generated_Source\PSoC4/BLE_eventHandler.c ****         #ifdef CYBLE_CPS_CLIENT
 997:.\Generated_Source\PSoC4/BLE_eventHandler.c ****                 CyBle_CpscScanProcessEventHandler((CYBLE_GAPC_ADV_REPORT_T *)eventParam);
 998:.\Generated_Source\PSoC4/BLE_eventHandler.c ****         #endif /* defined(CYBLE_CPS_CLIENT) */
 999:.\Generated_Source\PSoC4/BLE_eventHandler.c ****             break;
1000:.\Generated_Source\PSoC4/BLE_eventHandler.c ****     #endif /* (CYBLE_GATT_ROLE_CLIENT) */
1001:.\Generated_Source\PSoC4/BLE_eventHandler.c **** 
1002:.\Generated_Source\PSoC4/BLE_eventHandler.c ****     #if(CYBLE_GATT_ROLE_SERVER)
1003:.\Generated_Source\PSoC4/BLE_eventHandler.c ****         case CYBLE_EVT_GATTS_WRITE_REQ:
1004:.\Generated_Source\PSoC4/BLE_eventHandler.c ****             CyBle_WriteReqHandler((CYBLE_GATTS_WRITE_REQ_PARAM_T *)eventParam);
1005:.\Generated_Source\PSoC4/BLE_eventHandler.c ****             break;
1006:.\Generated_Source\PSoC4/BLE_eventHandler.c **** 
1007:.\Generated_Source\PSoC4/BLE_eventHandler.c ****         case CYBLE_EVT_GATTS_WRITE_CMD_REQ:
1008:.\Generated_Source\PSoC4/BLE_eventHandler.c ****         #if defined(CYBLE_IAS_SERVER)
1009:.\Generated_Source\PSoC4/BLE_eventHandler.c ****             if((cyBle_eventHandlerFlag & CYBLE_CALLBACK) != 0u)
1010:.\Generated_Source\PSoC4/BLE_eventHandler.c ****             {
1011:.\Generated_Source\PSoC4/BLE_eventHandler.c ****                 (void)CyBle_IassWriteCmdEventHandler((CYBLE_GATTS_WRITE_REQ_PARAM_T *)eventParam);
1012:.\Generated_Source\PSoC4/BLE_eventHandler.c ****             }
1013:.\Generated_Source\PSoC4/BLE_eventHandler.c ****         #endif /* defined(CYBLE_IAS_SERVER) */
1014:.\Generated_Source\PSoC4/BLE_eventHandler.c ****         #if defined(CYBLE_HIDS_SERVER)
1015:.\Generated_Source\PSoC4/BLE_eventHandler.c ****             if((cyBle_eventHandlerFlag & CYBLE_CALLBACK) != 0u)
1016:.\Generated_Source\PSoC4/BLE_eventHandler.c ****             {
1017:.\Generated_Source\PSoC4/BLE_eventHandler.c ****                 (void)CyBle_HidssWriteEventHandler((CYBLE_GATTS_WRITE_REQ_PARAM_T *)eventParam);
1018:.\Generated_Source\PSoC4/BLE_eventHandler.c ****             }
1019:.\Generated_Source\PSoC4/BLE_eventHandler.c ****         #endif /* defined(CYBLE_HIDS_SERVER) */
1020:.\Generated_Source\PSoC4/BLE_eventHandler.c ****         #if defined(CYBLE_PASS_SERVER)
1021:.\Generated_Source\PSoC4/BLE_eventHandler.c ****             if((cyBle_eventHandlerFlag & CYBLE_CALLBACK) != 0u)
1022:.\Generated_Source\PSoC4/BLE_eventHandler.c ****             {
ARM GAS  C:\Users\Lonnie\AppData\Local\Temp\ccJOwa1B.s 			page 27


1023:.\Generated_Source\PSoC4/BLE_eventHandler.c ****                 (void)CyBle_PasssWriteCmdEventHandler((CYBLE_GATTS_WRITE_REQ_PARAM_T *)eventParam);
1024:.\Generated_Source\PSoC4/BLE_eventHandler.c ****             }
1025:.\Generated_Source\PSoC4/BLE_eventHandler.c ****         #endif /* defined(CYBLE_PASS_SERVER) */
1026:.\Generated_Source\PSoC4/BLE_eventHandler.c ****         #if defined(CYBLE_RTUS_SERVER)
1027:.\Generated_Source\PSoC4/BLE_eventHandler.c ****             if((cyBle_eventHandlerFlag & CYBLE_CALLBACK) != 0u)
1028:.\Generated_Source\PSoC4/BLE_eventHandler.c ****             {
1029:.\Generated_Source\PSoC4/BLE_eventHandler.c ****                 (void)CyBle_RtussWriteCmdEventHandler((CYBLE_GATTS_WRITE_REQ_PARAM_T *)eventParam);
1030:.\Generated_Source\PSoC4/BLE_eventHandler.c ****             }
1031:.\Generated_Source\PSoC4/BLE_eventHandler.c ****         #endif /* defined(CYBLE_RTUS_SERVER) */
1032:.\Generated_Source\PSoC4/BLE_eventHandler.c ****         #if defined(CYBLE_SCPS_SERVER)
1033:.\Generated_Source\PSoC4/BLE_eventHandler.c ****             if((cyBle_eventHandlerFlag & CYBLE_CALLBACK) != 0u)
1034:.\Generated_Source\PSoC4/BLE_eventHandler.c ****             {
1035:.\Generated_Source\PSoC4/BLE_eventHandler.c ****                 (void)CyBle_ScpssWriteEventHandler((CYBLE_GATTS_WRITE_REQ_PARAM_T *)eventParam);
1036:.\Generated_Source\PSoC4/BLE_eventHandler.c ****             }
1037:.\Generated_Source\PSoC4/BLE_eventHandler.c ****         #endif /* defined(CYBLE_SCPS_SERVER) */
1038:.\Generated_Source\PSoC4/BLE_eventHandler.c ****             break;
1039:.\Generated_Source\PSoC4/BLE_eventHandler.c ****             
1040:.\Generated_Source\PSoC4/BLE_eventHandler.c ****         case CYBLE_EVT_GATTS_HANDLE_VALUE_CNF:
1041:.\Generated_Source\PSoC4/BLE_eventHandler.c ****             CyBle_ValueConfirmation((CYBLE_CONN_HANDLE_T *)eventParam);
1042:.\Generated_Source\PSoC4/BLE_eventHandler.c ****             break;
1043:.\Generated_Source\PSoC4/BLE_eventHandler.c ****     #endif /* CYBLE_GATT_ROLE_SERVER */
1044:.\Generated_Source\PSoC4/BLE_eventHandler.c **** 
1045:.\Generated_Source\PSoC4/BLE_eventHandler.c ****     #if (CYBLE_GATT_ROLE_CLIENT)
1046:.\Generated_Source\PSoC4/BLE_eventHandler.c ****         case CYBLE_EVT_GATTC_READ_BY_GROUP_TYPE_RSP:
1047:.\Generated_Source\PSoC4/BLE_eventHandler.c ****             CyBle_ReadByGroupEventHandler((CYBLE_GATTC_READ_BY_GRP_RSP_PARAM_T *)eventParam);
1048:.\Generated_Source\PSoC4/BLE_eventHandler.c ****             break;
1049:.\Generated_Source\PSoC4/BLE_eventHandler.c **** 
1050:.\Generated_Source\PSoC4/BLE_eventHandler.c ****         case CYBLE_EVT_GATTC_READ_BY_TYPE_RSP:
1051:.\Generated_Source\PSoC4/BLE_eventHandler.c ****             CyBle_ReadByTypeEventHandler((CYBLE_GATTC_READ_BY_TYPE_RSP_PARAM_T *)eventParam);
1052:.\Generated_Source\PSoC4/BLE_eventHandler.c ****             break;
1053:.\Generated_Source\PSoC4/BLE_eventHandler.c **** 
1054:.\Generated_Source\PSoC4/BLE_eventHandler.c ****         case CYBLE_EVT_GATTC_FIND_INFO_RSP:
1055:.\Generated_Source\PSoC4/BLE_eventHandler.c ****             CyBle_FindInfoEventHandler((CYBLE_GATTC_FIND_INFO_RSP_PARAM_T *)eventParam);
1056:.\Generated_Source\PSoC4/BLE_eventHandler.c ****             break;
1057:.\Generated_Source\PSoC4/BLE_eventHandler.c **** 
1058:.\Generated_Source\PSoC4/BLE_eventHandler.c ****         case CYBLE_EVT_GATTC_ERROR_RSP:
1059:.\Generated_Source\PSoC4/BLE_eventHandler.c ****             CyBle_ErrorResponseEventHandler((CYBLE_GATTC_ERR_RSP_PARAM_T *)eventParam);
1060:.\Generated_Source\PSoC4/BLE_eventHandler.c ****             break;
1061:.\Generated_Source\PSoC4/BLE_eventHandler.c **** 
1062:.\Generated_Source\PSoC4/BLE_eventHandler.c ****         case CYBLE_EVT_GATTC_HANDLE_VALUE_NTF:
1063:.\Generated_Source\PSoC4/BLE_eventHandler.c ****         #ifdef CYBLE_ANS_CLIENT
1064:.\Generated_Source\PSoC4/BLE_eventHandler.c ****             CyBle_AnscNotificationEventHandler((CYBLE_GATTC_HANDLE_VALUE_NTF_PARAM_T *)eventParam);
1065:.\Generated_Source\PSoC4/BLE_eventHandler.c ****         #endif /* defined(CYBLE_ANS_CLIENT) */
1066:.\Generated_Source\PSoC4/BLE_eventHandler.c ****         #ifdef CYBLE_BAS_CLIENT
1067:.\Generated_Source\PSoC4/BLE_eventHandler.c ****             if((cyBle_eventHandlerFlag & CYBLE_CALLBACK) != 0u)
1068:.\Generated_Source\PSoC4/BLE_eventHandler.c ****             {
1069:.\Generated_Source\PSoC4/BLE_eventHandler.c ****                 CyBle_BascNotificationEventHandler((CYBLE_GATTC_HANDLE_VALUE_NTF_PARAM_T *)eventPar
1070:.\Generated_Source\PSoC4/BLE_eventHandler.c ****             }
1071:.\Generated_Source\PSoC4/BLE_eventHandler.c ****         #endif /* defined(CYBLE_BAS_CLIENT) */
1072:.\Generated_Source\PSoC4/BLE_eventHandler.c ****         #ifdef CYBLE_BLS_CLIENT
1073:.\Generated_Source\PSoC4/BLE_eventHandler.c ****             if((cyBle_eventHandlerFlag & CYBLE_CALLBACK) != 0u)
1074:.\Generated_Source\PSoC4/BLE_eventHandler.c ****             {
1075:.\Generated_Source\PSoC4/BLE_eventHandler.c ****                 CyBle_BlscNotificationEventHandler((CYBLE_GATTC_HANDLE_VALUE_NTF_PARAM_T *)eventPar
1076:.\Generated_Source\PSoC4/BLE_eventHandler.c ****             }
1077:.\Generated_Source\PSoC4/BLE_eventHandler.c ****         #endif /* defined(CYBLE_BLS_CLIENT) */
1078:.\Generated_Source\PSoC4/BLE_eventHandler.c ****         #ifdef CYBLE_CPS_CLIENT
1079:.\Generated_Source\PSoC4/BLE_eventHandler.c ****             if((cyBle_eventHandlerFlag & CYBLE_CALLBACK) != 0u)
ARM GAS  C:\Users\Lonnie\AppData\Local\Temp\ccJOwa1B.s 			page 28


1080:.\Generated_Source\PSoC4/BLE_eventHandler.c ****             {
1081:.\Generated_Source\PSoC4/BLE_eventHandler.c ****                 CyBle_CpscNotificationEventHandler((CYBLE_GATTC_HANDLE_VALUE_NTF_PARAM_T *)eventPar
1082:.\Generated_Source\PSoC4/BLE_eventHandler.c ****             }
1083:.\Generated_Source\PSoC4/BLE_eventHandler.c ****         #endif /* defined(CYBLE_CPS_CLIENT) */
1084:.\Generated_Source\PSoC4/BLE_eventHandler.c ****         #ifdef CYBLE_CSCS_CLIENT
1085:.\Generated_Source\PSoC4/BLE_eventHandler.c ****             if((cyBle_eventHandlerFlag & CYBLE_CALLBACK) != 0u)
1086:.\Generated_Source\PSoC4/BLE_eventHandler.c ****             {
1087:.\Generated_Source\PSoC4/BLE_eventHandler.c ****                 CyBle_CscscNotificationEventHandler((CYBLE_GATTC_HANDLE_VALUE_NTF_PARAM_T *)eventPa
1088:.\Generated_Source\PSoC4/BLE_eventHandler.c ****             }
1089:.\Generated_Source\PSoC4/BLE_eventHandler.c ****         #endif /* defined(CYBLE_CSCS_CLIENT) */
1090:.\Generated_Source\PSoC4/BLE_eventHandler.c ****         #ifdef CYBLE_CTS_CLIENT
1091:.\Generated_Source\PSoC4/BLE_eventHandler.c ****             if((cyBle_eventHandlerFlag & CYBLE_CALLBACK) != 0u)
1092:.\Generated_Source\PSoC4/BLE_eventHandler.c ****             {
1093:.\Generated_Source\PSoC4/BLE_eventHandler.c ****                 CyBle_CtscNotificationEventHandler((CYBLE_GATTC_HANDLE_VALUE_NTF_PARAM_T *)eventPar
1094:.\Generated_Source\PSoC4/BLE_eventHandler.c ****             }
1095:.\Generated_Source\PSoC4/BLE_eventHandler.c ****         #endif /* defined(CYBLE_CTS_CLIENT) */
1096:.\Generated_Source\PSoC4/BLE_eventHandler.c ****         #ifdef CYBLE_GLS_CLIENT
1097:.\Generated_Source\PSoC4/BLE_eventHandler.c ****             if((cyBle_eventHandlerFlag & CYBLE_CALLBACK) != 0u)
1098:.\Generated_Source\PSoC4/BLE_eventHandler.c ****             {
1099:.\Generated_Source\PSoC4/BLE_eventHandler.c ****                 CyBle_GlscNotificationEventHandler((CYBLE_GATTC_HANDLE_VALUE_NTF_PARAM_T *)eventPar
1100:.\Generated_Source\PSoC4/BLE_eventHandler.c ****             }
1101:.\Generated_Source\PSoC4/BLE_eventHandler.c ****         #endif /* defined(CYBLE_GLS_CLIENT) */
1102:.\Generated_Source\PSoC4/BLE_eventHandler.c ****         #ifdef CYBLE_HIDS_CLIENT
1103:.\Generated_Source\PSoC4/BLE_eventHandler.c ****             if((cyBle_eventHandlerFlag & CYBLE_CALLBACK) != 0u)
1104:.\Generated_Source\PSoC4/BLE_eventHandler.c ****             {
1105:.\Generated_Source\PSoC4/BLE_eventHandler.c ****                 CyBle_HidscNotificationEventHandler((CYBLE_GATTC_HANDLE_VALUE_NTF_PARAM_T *)eventPa
1106:.\Generated_Source\PSoC4/BLE_eventHandler.c ****             }
1107:.\Generated_Source\PSoC4/BLE_eventHandler.c ****         #endif /* defined(CYBLE_HIDS_CLIENT) */
1108:.\Generated_Source\PSoC4/BLE_eventHandler.c ****         #ifdef CYBLE_HRS_CLIENT
1109:.\Generated_Source\PSoC4/BLE_eventHandler.c ****             if((cyBle_eventHandlerFlag & CYBLE_CALLBACK) != 0u)
1110:.\Generated_Source\PSoC4/BLE_eventHandler.c ****             {
1111:.\Generated_Source\PSoC4/BLE_eventHandler.c ****                 CyBle_HrscNotificationEventHandler((CYBLE_GATTC_HANDLE_VALUE_NTF_PARAM_T *)eventPar
1112:.\Generated_Source\PSoC4/BLE_eventHandler.c ****             }
1113:.\Generated_Source\PSoC4/BLE_eventHandler.c ****         #endif /* defined(CYBLE_HRS_CLIENT) */
1114:.\Generated_Source\PSoC4/BLE_eventHandler.c ****         #ifdef CYBLE_HTS_CLIENT
1115:.\Generated_Source\PSoC4/BLE_eventHandler.c ****             if((cyBle_eventHandlerFlag & CYBLE_CALLBACK) != 0u)
1116:.\Generated_Source\PSoC4/BLE_eventHandler.c ****             {
1117:.\Generated_Source\PSoC4/BLE_eventHandler.c ****                 CyBle_HtscNotificationEventHandler((CYBLE_GATTC_HANDLE_VALUE_NTF_PARAM_T *)eventPar
1118:.\Generated_Source\PSoC4/BLE_eventHandler.c ****             }
1119:.\Generated_Source\PSoC4/BLE_eventHandler.c ****         #endif /* defined(CYBLE_HTS_CLIENT) */
1120:.\Generated_Source\PSoC4/BLE_eventHandler.c ****         #ifdef CYBLE_LNS_CLIENT
1121:.\Generated_Source\PSoC4/BLE_eventHandler.c ****             if((cyBle_eventHandlerFlag & CYBLE_CALLBACK) != 0u)
1122:.\Generated_Source\PSoC4/BLE_eventHandler.c ****             {
1123:.\Generated_Source\PSoC4/BLE_eventHandler.c ****                 CyBle_LnscNotificationEventHandler((CYBLE_GATTC_HANDLE_VALUE_NTF_PARAM_T *)eventPar
1124:.\Generated_Source\PSoC4/BLE_eventHandler.c ****             }
1125:.\Generated_Source\PSoC4/BLE_eventHandler.c ****         #endif /* defined(CYBLE_LNS_CLIENT) */
1126:.\Generated_Source\PSoC4/BLE_eventHandler.c ****         #ifdef CYBLE_PASS_CLIENT
1127:.\Generated_Source\PSoC4/BLE_eventHandler.c ****             if((cyBle_eventHandlerFlag & CYBLE_CALLBACK) != 0u)
1128:.\Generated_Source\PSoC4/BLE_eventHandler.c ****             {
1129:.\Generated_Source\PSoC4/BLE_eventHandler.c ****                 CyBle_PasscNotificationEventHandler((CYBLE_GATTC_HANDLE_VALUE_NTF_PARAM_T *)eventPa
1130:.\Generated_Source\PSoC4/BLE_eventHandler.c ****             }
1131:.\Generated_Source\PSoC4/BLE_eventHandler.c ****         #endif /* defined(CYBLE_PASS_CLIENT) */
1132:.\Generated_Source\PSoC4/BLE_eventHandler.c ****         #ifdef CYBLE_RSCS_CLIENT
1133:.\Generated_Source\PSoC4/BLE_eventHandler.c ****             if((cyBle_eventHandlerFlag & CYBLE_CALLBACK) != 0u)
1134:.\Generated_Source\PSoC4/BLE_eventHandler.c ****             {
1135:.\Generated_Source\PSoC4/BLE_eventHandler.c ****                 CyBle_RscscNotificationEventHandler((CYBLE_GATTC_HANDLE_VALUE_NTF_PARAM_T *)eventPa
1136:.\Generated_Source\PSoC4/BLE_eventHandler.c ****             }
ARM GAS  C:\Users\Lonnie\AppData\Local\Temp\ccJOwa1B.s 			page 29


1137:.\Generated_Source\PSoC4/BLE_eventHandler.c ****         #endif /* defined(CYBLE_RSCS_CLIENT) */
1138:.\Generated_Source\PSoC4/BLE_eventHandler.c ****         #ifdef CYBLE_SCPS_CLIENT
1139:.\Generated_Source\PSoC4/BLE_eventHandler.c ****             if((cyBle_eventHandlerFlag & CYBLE_CALLBACK) != 0u)
1140:.\Generated_Source\PSoC4/BLE_eventHandler.c ****             {
1141:.\Generated_Source\PSoC4/BLE_eventHandler.c ****                 CyBle_ScpscNotificationEventHandler((CYBLE_GATTC_HANDLE_VALUE_NTF_PARAM_T *)eventPa
1142:.\Generated_Source\PSoC4/BLE_eventHandler.c ****             }
1143:.\Generated_Source\PSoC4/BLE_eventHandler.c ****         #endif /* defined(CYBLE_SCPS_CLIENT) */
1144:.\Generated_Source\PSoC4/BLE_eventHandler.c ****         #ifdef CYBLE_TPS_CLIENT
1145:.\Generated_Source\PSoC4/BLE_eventHandler.c ****             if((cyBle_eventHandlerFlag & CYBLE_CALLBACK) != 0u)
1146:.\Generated_Source\PSoC4/BLE_eventHandler.c ****             {
1147:.\Generated_Source\PSoC4/BLE_eventHandler.c ****                 CyBle_TpscNotificationEventHandler((CYBLE_GATTC_HANDLE_VALUE_NTF_PARAM_T *)eventPar
1148:.\Generated_Source\PSoC4/BLE_eventHandler.c ****             }
1149:.\Generated_Source\PSoC4/BLE_eventHandler.c ****         #endif /* defined(CYBLE_TPS_CLIENT) */
1150:.\Generated_Source\PSoC4/BLE_eventHandler.c ****             break;
1151:.\Generated_Source\PSoC4/BLE_eventHandler.c **** 
1152:.\Generated_Source\PSoC4/BLE_eventHandler.c ****         case CYBLE_EVT_GATTC_HANDLE_VALUE_IND:
1153:.\Generated_Source\PSoC4/BLE_eventHandler.c ****             CyBle_GattcIndicationEventHandler((CYBLE_GATTC_HANDLE_VALUE_IND_PARAM_T *)eventParam);
1154:.\Generated_Source\PSoC4/BLE_eventHandler.c ****         #ifdef CYBLE_BLS_CLIENT
1155:.\Generated_Source\PSoC4/BLE_eventHandler.c ****             if((cyBle_eventHandlerFlag & CYBLE_CALLBACK) != 0u)
1156:.\Generated_Source\PSoC4/BLE_eventHandler.c ****             {
1157:.\Generated_Source\PSoC4/BLE_eventHandler.c ****                 CyBle_BlscIndicationEventHandler((CYBLE_GATTC_HANDLE_VALUE_IND_PARAM_T *)eventParam
1158:.\Generated_Source\PSoC4/BLE_eventHandler.c ****             }
1159:.\Generated_Source\PSoC4/BLE_eventHandler.c ****         #endif /* defined(CYBLE_BLS_CLIENT) */
1160:.\Generated_Source\PSoC4/BLE_eventHandler.c ****         #ifdef CYBLE_CPS_CLIENT
1161:.\Generated_Source\PSoC4/BLE_eventHandler.c ****             if((cyBle_eventHandlerFlag & CYBLE_CALLBACK) != 0u)
1162:.\Generated_Source\PSoC4/BLE_eventHandler.c ****             {
1163:.\Generated_Source\PSoC4/BLE_eventHandler.c ****                 CyBle_CpscIndicationEventHandler((CYBLE_GATTC_HANDLE_VALUE_IND_PARAM_T *)eventParam
1164:.\Generated_Source\PSoC4/BLE_eventHandler.c ****             }
1165:.\Generated_Source\PSoC4/BLE_eventHandler.c ****         #endif /* defined(CYBLE_CPS_CLIENT) */
1166:.\Generated_Source\PSoC4/BLE_eventHandler.c ****         #ifdef CYBLE_CSCS_CLIENT
1167:.\Generated_Source\PSoC4/BLE_eventHandler.c ****             if((cyBle_eventHandlerFlag & CYBLE_CALLBACK) != 0u)
1168:.\Generated_Source\PSoC4/BLE_eventHandler.c ****             {
1169:.\Generated_Source\PSoC4/BLE_eventHandler.c ****                 CyBle_CscscIndicationEventHandler((CYBLE_GATTC_HANDLE_VALUE_IND_PARAM_T *)eventPara
1170:.\Generated_Source\PSoC4/BLE_eventHandler.c ****             }
1171:.\Generated_Source\PSoC4/BLE_eventHandler.c ****         #endif /* defined(CYBLE_CSCS_CLIENT) */
1172:.\Generated_Source\PSoC4/BLE_eventHandler.c ****         #ifdef CYBLE_GLS_CLIENT
1173:.\Generated_Source\PSoC4/BLE_eventHandler.c ****             if((cyBle_eventHandlerFlag & CYBLE_CALLBACK) != 0u)
1174:.\Generated_Source\PSoC4/BLE_eventHandler.c ****             {
1175:.\Generated_Source\PSoC4/BLE_eventHandler.c ****                 CyBle_GlscIndicationEventHandler((CYBLE_GATTC_HANDLE_VALUE_IND_PARAM_T *)eventParam
1176:.\Generated_Source\PSoC4/BLE_eventHandler.c ****             }
1177:.\Generated_Source\PSoC4/BLE_eventHandler.c ****         #endif /* defined(CYBLE_GLS_CLIENT) */
1178:.\Generated_Source\PSoC4/BLE_eventHandler.c ****         #ifdef CYBLE_HTS_CLIENT
1179:.\Generated_Source\PSoC4/BLE_eventHandler.c ****             if((cyBle_eventHandlerFlag & CYBLE_CALLBACK) != 0u)
1180:.\Generated_Source\PSoC4/BLE_eventHandler.c ****             {
1181:.\Generated_Source\PSoC4/BLE_eventHandler.c ****                 CyBle_HtscIndicationEventHandler((CYBLE_GATTC_HANDLE_VALUE_IND_PARAM_T *)eventParam
1182:.\Generated_Source\PSoC4/BLE_eventHandler.c ****             }
1183:.\Generated_Source\PSoC4/BLE_eventHandler.c ****         #endif /* defined(CYBLE_HTS_CLIENT) */
1184:.\Generated_Source\PSoC4/BLE_eventHandler.c ****         #ifdef CYBLE_LNS_CLIENT
1185:.\Generated_Source\PSoC4/BLE_eventHandler.c ****             if((cyBle_eventHandlerFlag & CYBLE_CALLBACK) != 0u)
1186:.\Generated_Source\PSoC4/BLE_eventHandler.c ****             {
1187:.\Generated_Source\PSoC4/BLE_eventHandler.c ****                 CyBle_LnscIndicationEventHandler((CYBLE_GATTC_HANDLE_VALUE_IND_PARAM_T *)eventParam
1188:.\Generated_Source\PSoC4/BLE_eventHandler.c ****             }
1189:.\Generated_Source\PSoC4/BLE_eventHandler.c ****         #endif /* defined(CYBLE_LNS_CLIENT) */
1190:.\Generated_Source\PSoC4/BLE_eventHandler.c ****         #ifdef CYBLE_RSCS_CLIENT
1191:.\Generated_Source\PSoC4/BLE_eventHandler.c ****             if((cyBle_eventHandlerFlag & CYBLE_CALLBACK) != 0u)
1192:.\Generated_Source\PSoC4/BLE_eventHandler.c ****             {
1193:.\Generated_Source\PSoC4/BLE_eventHandler.c ****                 CyBle_RscscIndicationEventHandler((CYBLE_GATTC_HANDLE_VALUE_IND_PARAM_T *)eventPara
ARM GAS  C:\Users\Lonnie\AppData\Local\Temp\ccJOwa1B.s 			page 30


1194:.\Generated_Source\PSoC4/BLE_eventHandler.c ****             }
1195:.\Generated_Source\PSoC4/BLE_eventHandler.c ****         #endif /* defined(CYBLE_RSCS_CLIENT) */
1196:.\Generated_Source\PSoC4/BLE_eventHandler.c ****             /* Respond with a Handle Value Confirmation when request handled */
1197:.\Generated_Source\PSoC4/BLE_eventHandler.c ****             if((cyBle_eventHandlerFlag & CYBLE_CALLBACK) == 0u)
1198:.\Generated_Source\PSoC4/BLE_eventHandler.c ****             {
1199:.\Generated_Source\PSoC4/BLE_eventHandler.c ****                 (void)CyBle_GattcConfirmation(((CYBLE_GATTC_HANDLE_VALUE_IND_PARAM_T *)eventParam)-
1200:.\Generated_Source\PSoC4/BLE_eventHandler.c ****             }
1201:.\Generated_Source\PSoC4/BLE_eventHandler.c ****             break;
1202:.\Generated_Source\PSoC4/BLE_eventHandler.c ****         
1203:.\Generated_Source\PSoC4/BLE_eventHandler.c ****         case CYBLE_EVT_GATTC_READ_RSP:
1204:.\Generated_Source\PSoC4/BLE_eventHandler.c ****             #ifdef CYBLE_ANS_CLIENT
1205:.\Generated_Source\PSoC4/BLE_eventHandler.c ****                 CyBle_AnscReadResponseEventHandler((CYBLE_GATTC_READ_RSP_PARAM_T *)eventParam);
1206:.\Generated_Source\PSoC4/BLE_eventHandler.c ****             #endif /* CYBLE_ANS_CLIENT */
1207:.\Generated_Source\PSoC4/BLE_eventHandler.c ****             #ifdef CYBLE_BAS_CLIENT
1208:.\Generated_Source\PSoC4/BLE_eventHandler.c ****                 if((cyBle_eventHandlerFlag & CYBLE_CALLBACK) != 0u)
1209:.\Generated_Source\PSoC4/BLE_eventHandler.c ****                 {
1210:.\Generated_Source\PSoC4/BLE_eventHandler.c ****                     CyBle_BascReadResponseEventHandler((CYBLE_GATTC_READ_RSP_PARAM_T *)eventParam);
1211:.\Generated_Source\PSoC4/BLE_eventHandler.c ****                 }
1212:.\Generated_Source\PSoC4/BLE_eventHandler.c ****             #endif /* CYBLE_BAS_CLIENT */
1213:.\Generated_Source\PSoC4/BLE_eventHandler.c ****             #ifdef CYBLE_BLS_CLIENT
1214:.\Generated_Source\PSoC4/BLE_eventHandler.c ****                 if((cyBle_eventHandlerFlag & CYBLE_CALLBACK) != 0u)
1215:.\Generated_Source\PSoC4/BLE_eventHandler.c ****                 {
1216:.\Generated_Source\PSoC4/BLE_eventHandler.c ****                     CyBle_BlscReadResponseEventHandler((CYBLE_GATTC_READ_RSP_PARAM_T *)eventParam);
1217:.\Generated_Source\PSoC4/BLE_eventHandler.c ****                 }
1218:.\Generated_Source\PSoC4/BLE_eventHandler.c ****             #endif /* CYBLE_BLS_CLIENT */
1219:.\Generated_Source\PSoC4/BLE_eventHandler.c ****             #ifdef CYBLE_CPS_CLIENT
1220:.\Generated_Source\PSoC4/BLE_eventHandler.c ****                 if((cyBle_eventHandlerFlag & CYBLE_CALLBACK) != 0u)
1221:.\Generated_Source\PSoC4/BLE_eventHandler.c ****                 {
1222:.\Generated_Source\PSoC4/BLE_eventHandler.c ****                     CyBle_CpscReadResponseEventHandler((CYBLE_GATTC_READ_RSP_PARAM_T *)eventParam);
1223:.\Generated_Source\PSoC4/BLE_eventHandler.c ****                 }
1224:.\Generated_Source\PSoC4/BLE_eventHandler.c ****             #endif /* CYBLE_CPS_CLIENT */
1225:.\Generated_Source\PSoC4/BLE_eventHandler.c ****             #ifdef CYBLE_CSCS_CLIENT
1226:.\Generated_Source\PSoC4/BLE_eventHandler.c ****                 if((cyBle_eventHandlerFlag & CYBLE_CALLBACK) != 0u)
1227:.\Generated_Source\PSoC4/BLE_eventHandler.c ****                 {
1228:.\Generated_Source\PSoC4/BLE_eventHandler.c ****                     CyBle_CscscReadResponseEventHandler((CYBLE_GATTC_READ_RSP_PARAM_T *)eventParam)
1229:.\Generated_Source\PSoC4/BLE_eventHandler.c ****                 }
1230:.\Generated_Source\PSoC4/BLE_eventHandler.c ****             #endif /* CYBLE_CSCS_CLIENT */
1231:.\Generated_Source\PSoC4/BLE_eventHandler.c ****             #ifdef CYBLE_CTS_CLIENT
1232:.\Generated_Source\PSoC4/BLE_eventHandler.c ****                 if((cyBle_eventHandlerFlag & CYBLE_CALLBACK) != 0u)
1233:.\Generated_Source\PSoC4/BLE_eventHandler.c ****                 {
1234:.\Generated_Source\PSoC4/BLE_eventHandler.c ****                     CyBle_CtscReadResponseEventHandler((CYBLE_GATTC_READ_RSP_PARAM_T *)eventParam);
1235:.\Generated_Source\PSoC4/BLE_eventHandler.c ****                 }
1236:.\Generated_Source\PSoC4/BLE_eventHandler.c ****             #endif /* CYBLE_BAS_CLIENT */
1237:.\Generated_Source\PSoC4/BLE_eventHandler.c ****             #ifdef CYBLE_DIS_CLIENT
1238:.\Generated_Source\PSoC4/BLE_eventHandler.c ****                 if((cyBle_eventHandlerFlag & CYBLE_CALLBACK) != 0u)
1239:.\Generated_Source\PSoC4/BLE_eventHandler.c ****                 {
1240:.\Generated_Source\PSoC4/BLE_eventHandler.c ****                     CyBle_DiscReadResponseEventHandler((CYBLE_GATTC_READ_RSP_PARAM_T *)eventParam);
1241:.\Generated_Source\PSoC4/BLE_eventHandler.c ****                 }
1242:.\Generated_Source\PSoC4/BLE_eventHandler.c ****             #endif /* CYBLE_DIS_CLIENT */
1243:.\Generated_Source\PSoC4/BLE_eventHandler.c ****             #ifdef CYBLE_GLS_CLIENT
1244:.\Generated_Source\PSoC4/BLE_eventHandler.c ****                 if((cyBle_eventHandlerFlag & CYBLE_CALLBACK) != 0u)
1245:.\Generated_Source\PSoC4/BLE_eventHandler.c ****                 {
1246:.\Generated_Source\PSoC4/BLE_eventHandler.c ****                     CyBle_GlscReadResponseEventHandler((CYBLE_GATTC_READ_RSP_PARAM_T *)eventParam);
1247:.\Generated_Source\PSoC4/BLE_eventHandler.c ****                 }
1248:.\Generated_Source\PSoC4/BLE_eventHandler.c ****             #endif /* CYBLE_GLS_CLIENT */
1249:.\Generated_Source\PSoC4/BLE_eventHandler.c ****             #ifdef CYBLE_HIDS_CLIENT
1250:.\Generated_Source\PSoC4/BLE_eventHandler.c ****                 if((cyBle_eventHandlerFlag & CYBLE_CALLBACK) != 0u)
ARM GAS  C:\Users\Lonnie\AppData\Local\Temp\ccJOwa1B.s 			page 31


1251:.\Generated_Source\PSoC4/BLE_eventHandler.c ****                 {
1252:.\Generated_Source\PSoC4/BLE_eventHandler.c ****                     CyBle_HidscReadResponseEventHandler((CYBLE_GATTC_READ_RSP_PARAM_T *)eventParam)
1253:.\Generated_Source\PSoC4/BLE_eventHandler.c ****                 }
1254:.\Generated_Source\PSoC4/BLE_eventHandler.c ****             #endif /* CYBLE_HIDS_CLIENT */
1255:.\Generated_Source\PSoC4/BLE_eventHandler.c ****             #ifdef CYBLE_HRS_CLIENT
1256:.\Generated_Source\PSoC4/BLE_eventHandler.c ****                 if((cyBle_eventHandlerFlag & CYBLE_CALLBACK) != 0u)
1257:.\Generated_Source\PSoC4/BLE_eventHandler.c ****                 {
1258:.\Generated_Source\PSoC4/BLE_eventHandler.c ****                     CyBle_HrscReadResponseEventHandler((CYBLE_GATTC_READ_RSP_PARAM_T *)eventParam);
1259:.\Generated_Source\PSoC4/BLE_eventHandler.c ****                 }
1260:.\Generated_Source\PSoC4/BLE_eventHandler.c ****             #endif /* CYBLE_HRS_CLIENT */
1261:.\Generated_Source\PSoC4/BLE_eventHandler.c ****             #ifdef CYBLE_HTS_CLIENT
1262:.\Generated_Source\PSoC4/BLE_eventHandler.c ****                 if((cyBle_eventHandlerFlag & CYBLE_CALLBACK) != 0u)
1263:.\Generated_Source\PSoC4/BLE_eventHandler.c ****                 {
1264:.\Generated_Source\PSoC4/BLE_eventHandler.c ****                     CyBle_HtscReadResponseEventHandler((CYBLE_GATTC_READ_RSP_PARAM_T *)eventParam);
1265:.\Generated_Source\PSoC4/BLE_eventHandler.c ****                 }
1266:.\Generated_Source\PSoC4/BLE_eventHandler.c ****             #endif /* CYBLE_HTS_CLIENT */
1267:.\Generated_Source\PSoC4/BLE_eventHandler.c ****             #ifdef CYBLE_LLS_CLIENT
1268:.\Generated_Source\PSoC4/BLE_eventHandler.c ****                 if((cyBle_eventHandlerFlag & CYBLE_CALLBACK) != 0u)
1269:.\Generated_Source\PSoC4/BLE_eventHandler.c ****                 {
1270:.\Generated_Source\PSoC4/BLE_eventHandler.c ****                     CyBle_LlscReadResponseEventHandler((CYBLE_GATTC_READ_RSP_PARAM_T *)eventParam);
1271:.\Generated_Source\PSoC4/BLE_eventHandler.c ****                 }
1272:.\Generated_Source\PSoC4/BLE_eventHandler.c ****             #endif /* CYBLE_LLS_CLIENT */
1273:.\Generated_Source\PSoC4/BLE_eventHandler.c ****             #ifdef CYBLE_LNS_CLIENT
1274:.\Generated_Source\PSoC4/BLE_eventHandler.c ****                 if((cyBle_eventHandlerFlag & CYBLE_CALLBACK) != 0u)
1275:.\Generated_Source\PSoC4/BLE_eventHandler.c ****                 {
1276:.\Generated_Source\PSoC4/BLE_eventHandler.c ****                     CyBle_LnscReadResponseEventHandler((CYBLE_GATTC_READ_RSP_PARAM_T *)eventParam);
1277:.\Generated_Source\PSoC4/BLE_eventHandler.c ****                 }
1278:.\Generated_Source\PSoC4/BLE_eventHandler.c ****             #endif /* CYBLE_LNS_CLIENT */
1279:.\Generated_Source\PSoC4/BLE_eventHandler.c ****             #ifdef CYBLE_NDCS_CLIENT
1280:.\Generated_Source\PSoC4/BLE_eventHandler.c ****                 if((cyBle_eventHandlerFlag & CYBLE_CALLBACK) != 0u)
1281:.\Generated_Source\PSoC4/BLE_eventHandler.c ****                 {
1282:.\Generated_Source\PSoC4/BLE_eventHandler.c ****                     CyBle_NdcscReadResponseEventHandler((CYBLE_GATTC_READ_RSP_PARAM_T *)eventParam)
1283:.\Generated_Source\PSoC4/BLE_eventHandler.c ****                 }
1284:.\Generated_Source\PSoC4/BLE_eventHandler.c ****             #endif /* CYBLE_NDCS_CLIENT */
1285:.\Generated_Source\PSoC4/BLE_eventHandler.c ****             #ifdef CYBLE_PASS_CLIENT
1286:.\Generated_Source\PSoC4/BLE_eventHandler.c ****                 if((cyBle_eventHandlerFlag & CYBLE_CALLBACK) != 0u)
1287:.\Generated_Source\PSoC4/BLE_eventHandler.c ****                 {
1288:.\Generated_Source\PSoC4/BLE_eventHandler.c ****                     CyBle_PasscReadResponseEventHandler((CYBLE_GATTC_READ_RSP_PARAM_T *)eventParam)
1289:.\Generated_Source\PSoC4/BLE_eventHandler.c ****                 }
1290:.\Generated_Source\PSoC4/BLE_eventHandler.c ****             #endif /* CYBLE_PASS_CLIENT */
1291:.\Generated_Source\PSoC4/BLE_eventHandler.c ****             #ifdef CYBLE_RSCS_CLIENT
1292:.\Generated_Source\PSoC4/BLE_eventHandler.c ****                 if((cyBle_eventHandlerFlag & CYBLE_CALLBACK) != 0u)
1293:.\Generated_Source\PSoC4/BLE_eventHandler.c ****                 {
1294:.\Generated_Source\PSoC4/BLE_eventHandler.c ****                     CyBle_RscscReadResponseEventHandler((CYBLE_GATTC_READ_RSP_PARAM_T *)eventParam)
1295:.\Generated_Source\PSoC4/BLE_eventHandler.c ****                 }
1296:.\Generated_Source\PSoC4/BLE_eventHandler.c ****             #endif /* CYBLE_RSCS_CLIENT */
1297:.\Generated_Source\PSoC4/BLE_eventHandler.c ****             #ifdef CYBLE_RTUS_CLIENT
1298:.\Generated_Source\PSoC4/BLE_eventHandler.c ****                 if((cyBle_eventHandlerFlag & CYBLE_CALLBACK) != 0u)
1299:.\Generated_Source\PSoC4/BLE_eventHandler.c ****                 {
1300:.\Generated_Source\PSoC4/BLE_eventHandler.c ****                     CyBle_RtuscReadResponseEventHandler((CYBLE_GATTC_READ_RSP_PARAM_T *)eventParam)
1301:.\Generated_Source\PSoC4/BLE_eventHandler.c ****                 }
1302:.\Generated_Source\PSoC4/BLE_eventHandler.c ****             #endif /* CYBLE_RTUS_CLIENT */
1303:.\Generated_Source\PSoC4/BLE_eventHandler.c ****             #ifdef CYBLE_SCPS_CLIENT
1304:.\Generated_Source\PSoC4/BLE_eventHandler.c ****                 if((cyBle_eventHandlerFlag & CYBLE_CALLBACK) != 0u)
1305:.\Generated_Source\PSoC4/BLE_eventHandler.c ****                 {
1306:.\Generated_Source\PSoC4/BLE_eventHandler.c ****                     CyBle_ScpscReadResponseEventHandler((CYBLE_GATTC_READ_RSP_PARAM_T *)eventParam)
1307:.\Generated_Source\PSoC4/BLE_eventHandler.c ****                 }
ARM GAS  C:\Users\Lonnie\AppData\Local\Temp\ccJOwa1B.s 			page 32


1308:.\Generated_Source\PSoC4/BLE_eventHandler.c ****             #endif /* CYBLE_SCPS_CLIENT */
1309:.\Generated_Source\PSoC4/BLE_eventHandler.c ****             #ifdef CYBLE_TPS_CLIENT
1310:.\Generated_Source\PSoC4/BLE_eventHandler.c ****                 if((cyBle_eventHandlerFlag & CYBLE_CALLBACK) != 0u)
1311:.\Generated_Source\PSoC4/BLE_eventHandler.c ****                 {
1312:.\Generated_Source\PSoC4/BLE_eventHandler.c ****                     CyBle_TpscReadResponseEventHandler((CYBLE_GATTC_READ_RSP_PARAM_T *)eventParam);
1313:.\Generated_Source\PSoC4/BLE_eventHandler.c ****                 }
1314:.\Generated_Source\PSoC4/BLE_eventHandler.c ****             #endif /* CYBLE_TPS_CLIENT */
1315:.\Generated_Source\PSoC4/BLE_eventHandler.c ****             break;
1316:.\Generated_Source\PSoC4/BLE_eventHandler.c **** 
1317:.\Generated_Source\PSoC4/BLE_eventHandler.c ****         case CYBLE_EVT_GATTC_WRITE_RSP:
1318:.\Generated_Source\PSoC4/BLE_eventHandler.c ****             CyBle_GattcWriteResponseEventHandler((CYBLE_CONN_HANDLE_T *)eventParam);
1319:.\Generated_Source\PSoC4/BLE_eventHandler.c ****             break;
1320:.\Generated_Source\PSoC4/BLE_eventHandler.c ****             
1321:.\Generated_Source\PSoC4/BLE_eventHandler.c ****     #endif /* CYBLE_GATT_ROLE_CLIENT */
1322:.\Generated_Source\PSoC4/BLE_eventHandler.c **** 
1323:.\Generated_Source\PSoC4/BLE_eventHandler.c ****     #if((CYBLE_GAP_ROLE_PERIPHERAL || CYBLE_GAP_ROLE_CENTRAL) && (CYBLE_BONDING_REQUIREMENT == CYBL
1324:.\Generated_Source\PSoC4/BLE_eventHandler.c **** 
1325:.\Generated_Source\PSoC4/BLE_eventHandler.c ****         case CYBLE_EVT_PENDING_FLASH_WRITE:
1326:.\Generated_Source\PSoC4/BLE_eventHandler.c ****             cyBle_pendingFlashWrite |= CYBLE_PENDING_STACK_FLASH_WRITE_BIT;
1327:.\Generated_Source\PSoC4/BLE_eventHandler.c ****             break;
1328:.\Generated_Source\PSoC4/BLE_eventHandler.c ****         
1329:.\Generated_Source\PSoC4/BLE_eventHandler.c ****     #endif  /* (CYBLE_BONDING_REQUIREMENT == CYBLE_BONDING_YES) */
1330:.\Generated_Source\PSoC4/BLE_eventHandler.c ****         default:
1331:.\Generated_Source\PSoC4/BLE_eventHandler.c ****             break;
 459              		.loc 1 1331 0
 460 0042 2CE1     		b	.L48
 461              	.L29:
 772:.\Generated_Source\PSoC4/BLE_eventHandler.c ****     {
 462              		.loc 1 772 0
 463 0044 272B     		cmp	r3, #39
 464 0046 00D1     		bne	.LCB386
 465 0048 83E0     		b	.L33	@long jump
 466              	.LCB386:
 467 004a 282B     		cmp	r3, #40
 468 004c 00D1     		bne	.LCB388
 469 004e 88E0     		b	.L34	@long jump
 470              	.LCB388:
 471 0050 262B     		cmp	r3, #38
 472 0052 00D1     		bne	.LCB390
 473 0054 89E0     		b	.L35	@long jump
 474              	.LCB390:
 475              		.loc 1 1331 0
 476 0056 22E1     		b	.L48
 477              	.L27:
 772:.\Generated_Source\PSoC4/BLE_eventHandler.c ****     {
 478              		.loc 1 772 0
 479 0058 4C2B     		cmp	r3, #76
 480 005a 00D1     		bne	.LCB396
 481 005c 0CE1     		b	.L36	@long jump
 482              	.LCB396:
 483 005e 09DC     		bgt	.L37
 484 0060 422B     		cmp	r3, #66
 485 0062 00D1     		bne	.LCB400
 486 0064 E8E0     		b	.L38	@long jump
 487              	.LCB400:
 488 0066 432B     		cmp	r3, #67
 489 0068 00D1     		bne	.LCB402
ARM GAS  C:\Users\Lonnie\AppData\Local\Temp\ccJOwa1B.s 			page 33


 490 006a E8E0     		b	.L39	@long jump
 491              	.LCB402:
 492 006c 412B     		cmp	r3, #65
 493 006e 00D1     		bne	.LCB404
 494 0070 C7E0     		b	.L40	@long jump
 495              	.LCB404:
 496              		.loc 1 1331 0
 497 0072 14E1     		b	.L48
 498              	.L37:
 772:.\Generated_Source\PSoC4/BLE_eventHandler.c ****     {
 499              		.loc 1 772 0
 500 0074 542B     		cmp	r3, #84
 501 0076 00D1     		bne	.LCB410
 502 0078 03E1     		b	.L41	@long jump
 503              	.LCB410:
 504 007a 03DC     		bgt	.L42
 505 007c 4E2B     		cmp	r3, #78
 506 007e 00D1     		bne	.LCB414
 507 0080 0CE1     		b	.L57	@long jump
 508              	.LCB414:
 509              		.loc 1 1331 0
 510 0082 0CE1     		b	.L48
 511              	.L42:
 772:.\Generated_Source\PSoC4/BLE_eventHandler.c ****     {
 512              		.loc 1 772 0
 513 0084 712B     		cmp	r3, #113
 514 0086 00D1     		bne	.LCB420
 515 0088 B5E0     		b	.L44	@long jump
 516              	.LCB420:
 517 008a FA2B     		cmp	r3, #250
 518 008c 00D1     		bne	.LCB422
 519 008e FDE0     		b	.L45	@long jump
 520              	.LCB422:
 521              		.loc 1 1331 0
 522 0090 05E1     		b	.L48
 523              	.L32:
 524              	.LBB3:
 783:.\Generated_Source\PSoC4/BLE_eventHandler.c ****             bleSsPowerLevel.bleSsChId = CYBLE_LL_ADV_CH_TYPE;
 525              		.loc 1 783 0
 526 0092 0C23     		mov	r3, #12
 527 0094 FB18     		add	r3, r7, r3
 528 0096 0822     		mov	r2, #8
 529 0098 1A70     		strb	r2, [r3]
 784:.\Generated_Source\PSoC4/BLE_eventHandler.c ****             (void) CyBle_SetTxPowerLevel (&bleSsPowerLevel);
 530              		.loc 1 784 0
 531 009a 0C23     		mov	r3, #12
 532 009c FB18     		add	r3, r7, r3
 533 009e 0022     		mov	r2, #0
 534 00a0 5A70     		strb	r2, [r3, #1]
 785:.\Generated_Source\PSoC4/BLE_eventHandler.c ****             bleSsPowerLevel.bleSsChId = CYBLE_LL_CONN_CH_TYPE;
 535              		.loc 1 785 0
 536 00a2 0C23     		mov	r3, #12
 537 00a4 FB18     		add	r3, r7, r3
 538 00a6 181C     		mov	r0, r3
 539 00a8 FFF7FEFF 		bl	CyBle_SetTxPowerLevel
 786:.\Generated_Source\PSoC4/BLE_eventHandler.c ****             (void) CyBle_SetTxPowerLevel (&bleSsPowerLevel);
 540              		.loc 1 786 0
ARM GAS  C:\Users\Lonnie\AppData\Local\Temp\ccJOwa1B.s 			page 34


 541 00ac 0C23     		mov	r3, #12
 542 00ae FB18     		add	r3, r7, r3
 543 00b0 0122     		mov	r2, #1
 544 00b2 5A70     		strb	r2, [r3, #1]
 787:.\Generated_Source\PSoC4/BLE_eventHandler.c ****         }
 545              		.loc 1 787 0
 546 00b4 0C23     		mov	r3, #12
 547 00b6 FB18     		add	r3, r7, r3
 548 00b8 181C     		mov	r0, r3
 549 00ba FFF7FEFF 		bl	CyBle_SetTxPowerLevel
 550              	.LBE3:
 792:.\Generated_Source\PSoC4/BLE_eventHandler.c ****             {
 551              		.loc 1 792 0
 552 00be 864B     		ldr	r3, .L58+4
 553 00c0 1B68     		ldr	r3, [r3]
 554 00c2 181C     		mov	r0, r3
 555 00c4 FFF7FEFF 		bl	CyBle_IsDeviceAddressValid
 556 00c8 031E     		sub	r3, r0, #0
 557 00ca 05D0     		beq	.L46
 794:.\Generated_Source\PSoC4/BLE_eventHandler.c ****             }
 558              		.loc 1 794 0
 559 00cc 824B     		ldr	r3, .L58+4
 560 00ce 1B68     		ldr	r3, [r3]
 561 00d0 181C     		mov	r0, r3
 562 00d2 FFF7FEFF 		bl	CyBle_SetDeviceAddress
 563 00d6 0FE0     		b	.L47
 564              	.L46:
 799:.\Generated_Source\PSoC4/BLE_eventHandler.c ****                 cyBle_deviceAddress.bdAddr[1] = CYBLE_SFLASH_DIE_Y_REG;
 565              		.loc 1 799 0
 566 00d8 804B     		ldr	r3, .L58+8
 567 00da 1A78     		ldrb	r2, [r3]
 568 00dc 804B     		ldr	r3, .L58+12
 569 00de 1A70     		strb	r2, [r3]
 800:.\Generated_Source\PSoC4/BLE_eventHandler.c ****                 cyBle_deviceAddress.bdAddr[2] = CYBLE_SFLASH_DIE_WAFER_REG;
 570              		.loc 1 800 0
 571 00e0 804B     		ldr	r3, .L58+16
 572 00e2 1A78     		ldrb	r2, [r3]
 573 00e4 7E4B     		ldr	r3, .L58+12
 574 00e6 5A70     		strb	r2, [r3, #1]
 801:.\Generated_Source\PSoC4/BLE_eventHandler.c ****             #endif /* SILICON_GENERATED_DEVICE_ADDRESS != 0u */
 575              		.loc 1 801 0
 576 00e8 7F4B     		ldr	r3, .L58+20
 577 00ea 1A78     		ldrb	r2, [r3]
 578 00ec 7C4B     		ldr	r3, .L58+12
 579 00ee 9A70     		strb	r2, [r3, #2]
 803:.\Generated_Source\PSoC4/BLE_eventHandler.c ****             }
 580              		.loc 1 803 0
 581 00f0 7B4B     		ldr	r3, .L58+12
 582 00f2 181C     		mov	r0, r3
 583 00f4 FFF7FEFF 		bl	CyBle_SetDeviceAddress
 584              	.L47:
 806:.\Generated_Source\PSoC4/BLE_eventHandler.c ****         #endif /* CYBLE_GATT_ROLE_SERVER || CYBLE_GATT_ROLE_CLIENT */
 585              		.loc 1 806 0
 586 00f8 0020     		mov	r0, #0
 587 00fa FFF7FEFF 		bl	CyBle_GapSetIoCap
 808:.\Generated_Source\PSoC4/BLE_eventHandler.c ****             break;
 588              		.loc 1 808 0
ARM GAS  C:\Users\Lonnie\AppData\Local\Temp\ccJOwa1B.s 			page 35


 589 00fe 7B4B     		ldr	r3, .L58+24
 590 0100 0422     		mov	r2, #4
 591 0102 1A70     		strb	r2, [r3]
 809:.\Generated_Source\PSoC4/BLE_eventHandler.c ****         case CYBLE_EVT_TIMEOUT:
 592              		.loc 1 809 0
 593 0104 CBE0     		b	.L48
 594              	.L30:
 811:.\Generated_Source\PSoC4/BLE_eventHandler.c ****             break;
 595              		.loc 1 811 0
 596 0106 3B68     		ldr	r3, [r7]
 597 0108 181C     		mov	r0, r3
 598 010a FFF7FEFF 		bl	CyBle_TimeOutEventHandler
 812:.\Generated_Source\PSoC4/BLE_eventHandler.c ****     	case CYBLE_EVT_STACK_BUSY_STATUS:
 599              		.loc 1 812 0
 600 010e C6E0     		b	.L48
 601              	.L31:
 814:.\Generated_Source\PSoC4/BLE_eventHandler.c ****             break;
 602              		.loc 1 814 0
 603 0110 3B68     		ldr	r3, [r7]
 604 0112 1A78     		ldrb	r2, [r3]
 605 0114 764B     		ldr	r3, .L58+28
 606 0116 1A70     		strb	r2, [r3]
 815:.\Generated_Source\PSoC4/BLE_eventHandler.c **** 
 607              		.loc 1 815 0
 608 0118 C1E0     		b	.L48
 609              	.L28:
 822:.\Generated_Source\PSoC4/BLE_eventHandler.c ****             {
 610              		.loc 1 822 0
 611 011a 6E4B     		ldr	r3, .L58
 612 011c 1B78     		ldrb	r3, [r3]
 613 011e DBB2     		uxtb	r3, r3
 614 0120 1A1C     		mov	r2, r3
 615 0122 2023     		mov	r3, #32
 616 0124 1340     		and	r3, r2
 617 0126 0ED1     		bne	.L49
 829:.\Generated_Source\PSoC4/BLE_eventHandler.c ****                 {
 618              		.loc 1 829 0
 619 0128 724B     		ldr	r3, .L58+32
 620 012a 1B78     		ldrb	r3, [r3]
 621 012c 102B     		cmp	r3, #16
 622 012e 02D1     		bne	.L50
 831:.\Generated_Source\PSoC4/BLE_eventHandler.c ****                 }    
 623              		.loc 1 831 0
 624 0130 704B     		ldr	r3, .L58+32
 625 0132 0522     		mov	r2, #5
 626 0134 DA70     		strb	r2, [r3, #3]
 627              	.L50:
 834:.\Generated_Source\PSoC4/BLE_eventHandler.c ****             #endif /* CYBLE_GAP_ROLE_PERIPHERAL */
 628              		.loc 1 834 0
 629 0136 704B     		ldr	r3, .L58+36
 630 0138 1A78     		ldrb	r2, [r3]
 631 013a 6E4B     		ldr	r3, .L58+32
 632 013c 101C     		mov	r0, r2
 633 013e 191C     		mov	r1, r3
 634 0140 FFF7FEFF 		bl	CyBle_GappAuthReqReply
 841:.\Generated_Source\PSoC4/BLE_eventHandler.c **** 
 635              		.loc 1 841 0
ARM GAS  C:\Users\Lonnie\AppData\Local\Temp\ccJOwa1B.s 			page 36


 636 0144 ABE0     		b	.L48
 637              	.L49:
 638 0146 AAE0     		b	.L48
 639              	.L26:
 844:.\Generated_Source\PSoC4/BLE_eventHandler.c ****             break;
 640              		.loc 1 844 0
 641 0148 3B68     		ldr	r3, [r7]
 642 014a 181C     		mov	r0, r3
 643 014c FFF7FEFF 		bl	CyBle_GapConnUpdateCompleteEventHandler
 845:.\Generated_Source\PSoC4/BLE_eventHandler.c ****         case CYBLE_EVT_GAP_DEVICE_CONNECTED:
 644              		.loc 1 845 0
 645 0150 A5E0     		b	.L48
 646              	.L33:
 847:.\Generated_Source\PSoC4/BLE_eventHandler.c ****             #if(CYBLE_GAP_ROLE_CENTRAL)
 647              		.loc 1 847 0
 648 0152 3B68     		ldr	r3, [r7]
 649 0154 181C     		mov	r0, r3
 650 0156 FFF7FEFF 		bl	CyBle_GapConnUpdateCompleteEventHandler
 854:.\Generated_Source\PSoC4/BLE_eventHandler.c ****             break;
 651              		.loc 1 854 0
 652 015a 644B     		ldr	r3, .L58+24
 653 015c 0222     		mov	r2, #2
 654 015e 1A70     		strb	r2, [r3]
 855:.\Generated_Source\PSoC4/BLE_eventHandler.c **** 
 655              		.loc 1 855 0
 656 0160 9DE0     		b	.L48
 657              	.L34:
 858:.\Generated_Source\PSoC4/BLE_eventHandler.c ****             break;
 658              		.loc 1 858 0
 659 0162 624B     		ldr	r3, .L58+24
 660 0164 0422     		mov	r2, #4
 661 0166 1A70     		strb	r2, [r3]
 859:.\Generated_Source\PSoC4/BLE_eventHandler.c ****             
 662              		.loc 1 859 0
 663 0168 99E0     		b	.L48
 664              	.L35:
 870:.\Generated_Source\PSoC4/BLE_eventHandler.c ****             {
 665              		.loc 1 870 0
 666 016a 604B     		ldr	r3, .L58+24
 667 016c 1B78     		ldrb	r3, [r3]
 668 016e 022B     		cmp	r3, #2
 669 0170 40D0     		beq	.L51
 870:.\Generated_Source\PSoC4/BLE_eventHandler.c ****             {
 670              		.loc 1 870 0 is_stmt 0 discriminator 1
 671 0172 584B     		ldr	r3, .L58
 672 0174 1B78     		ldrb	r3, [r3]
 673 0176 DBB2     		uxtb	r3, r3
 674 0178 1A1C     		mov	r2, r3
 675 017a 0123     		mov	r3, #1
 676 017c 1340     		and	r3, r2
 677 017e 39D0     		beq	.L51
 873:.\Generated_Source\PSoC4/BLE_eventHandler.c ****                 {
 678              		.loc 1 873 0 is_stmt 1
 679 0180 544B     		ldr	r3, .L58
 680 0182 1B78     		ldrb	r3, [r3]
 681 0184 DBB2     		uxtb	r3, r3
 682 0186 1A1C     		mov	r2, r3
ARM GAS  C:\Users\Lonnie\AppData\Local\Temp\ccJOwa1B.s 			page 37


 683 0188 0423     		mov	r3, #4
 684 018a 1340     		and	r3, r2
 685 018c 0BD0     		beq	.L52
 875:.\Generated_Source\PSoC4/BLE_eventHandler.c ****                     cyBle_eventHandlerFlag &= (uint8)~CYBLE_START_FLAG;
 686              		.loc 1 875 0
 687 018e 574B     		ldr	r3, .L58+24
 688 0190 0322     		mov	r2, #3
 689 0192 1A70     		strb	r2, [r3]
 876:.\Generated_Source\PSoC4/BLE_eventHandler.c ****                 }
 690              		.loc 1 876 0
 691 0194 4F4B     		ldr	r3, .L58
 692 0196 1B78     		ldrb	r3, [r3]
 693 0198 DBB2     		uxtb	r3, r3
 694 019a 0422     		mov	r2, #4
 695 019c 9343     		bic	r3, r2
 696 019e DAB2     		uxtb	r2, r3
 697 01a0 4C4B     		ldr	r3, .L58
 698 01a2 1A70     		strb	r2, [r3]
 699 01a4 26E0     		b	.L51
 700              	.L52:
 879:.\Generated_Source\PSoC4/BLE_eventHandler.c ****                 {
 701              		.loc 1 879 0
 702 01a6 4B4B     		ldr	r3, .L58
 703 01a8 1B78     		ldrb	r3, [r3]
 704 01aa DBB2     		uxtb	r3, r3
 705 01ac 1A1C     		mov	r2, r3
 706 01ae 0823     		mov	r3, #8
 707 01b0 1340     		and	r3, r2
 708 01b2 0BD0     		beq	.L53
 881:.\Generated_Source\PSoC4/BLE_eventHandler.c ****                     cyBle_eventHandlerFlag &= (uint8)~CYBLE_STOP_FLAG;
 709              		.loc 1 881 0
 710 01b4 4D4B     		ldr	r3, .L58+24
 711 01b6 0422     		mov	r2, #4
 712 01b8 1A70     		strb	r2, [r3]
 882:.\Generated_Source\PSoC4/BLE_eventHandler.c ****                 }
 713              		.loc 1 882 0
 714 01ba 464B     		ldr	r3, .L58
 715 01bc 1B78     		ldrb	r3, [r3]
 716 01be DBB2     		uxtb	r3, r3
 717 01c0 0822     		mov	r2, #8
 718 01c2 9343     		bic	r3, r2
 719 01c4 DAB2     		uxtb	r2, r3
 720 01c6 434B     		ldr	r3, .L58
 721 01c8 1A70     		strb	r2, [r3]
 722 01ca 13E0     		b	.L51
 723              	.L53:
 886:.\Generated_Source\PSoC4/BLE_eventHandler.c ****                     {
 724              		.loc 1 886 0
 725 01cc 474B     		ldr	r3, .L58+24
 726 01ce 1B78     		ldrb	r3, [r3]
 727 01d0 032B     		cmp	r3, #3
 728 01d2 0FD1     		bne	.L51
 888:.\Generated_Source\PSoC4/BLE_eventHandler.c ****                     #if (CYBLE_SLOW_ADV_ENABLED != 0u)
 729              		.loc 1 888 0
 730 01d4 454B     		ldr	r3, .L58+24
 731 01d6 0422     		mov	r2, #4
 732 01d8 1A70     		strb	r2, [r3]
ARM GAS  C:\Users\Lonnie\AppData\Local\Temp\ccJOwa1B.s 			page 38


 890:.\Generated_Source\PSoC4/BLE_eventHandler.c ****                         {
 733              		.loc 1 890 0
 734 01da 484B     		ldr	r3, .L58+40
 735 01dc 1B78     		ldrb	r3, [r3]
 736 01de 002B     		cmp	r3, #0
 737 01e0 08D1     		bne	.L51
 893:.\Generated_Source\PSoC4/BLE_eventHandler.c ****                             {
 738              		.loc 1 893 0
 739 01e2 0120     		mov	r0, #1
 740 01e4 FFF7FEFF 		bl	CyBle_GappStartAdvertisement
 741 01e8 031E     		sub	r3, r0, #0
 742 01ea 03D1     		bne	.L51
 895:.\Generated_Source\PSoC4/BLE_eventHandler.c ****                             }
 743              		.loc 1 895 0
 744 01ec 3F4B     		ldr	r3, .L58+24
 745 01ee 0322     		mov	r2, #3
 746 01f0 1A70     		strb	r2, [r3]
 902:.\Generated_Source\PSoC4/BLE_eventHandler.c ****         #endif /* CYBLE_GAP_ROLE_PERIPHERAL || CYBLE_GAP_ROLE_BROADCASTER */
 747              		.loc 1 902 0
 748 01f2 54E0     		b	.L48
 749              	.L51:
 750 01f4 53E0     		b	.L48
 751              	.L44:
 951:.\Generated_Source\PSoC4/BLE_eventHandler.c ****             break;
 752              		.loc 1 951 0
 753 01f6 3B68     		ldr	r3, [r7]
 754 01f8 1B88     		ldrh	r3, [r3]
 755 01fa 181C     		mov	r0, r3
 756 01fc FFF7FEFF 		bl	CyBle_L2Cap_ConnParamUpdateRspEventHandler
 952:.\Generated_Source\PSoC4/BLE_eventHandler.c ****         
 757              		.loc 1 952 0
 758 0200 4DE0     		b	.L48
 759              	.L40:
 958:.\Generated_Source\PSoC4/BLE_eventHandler.c ****             
 760              		.loc 1 958 0
 761 0202 3D4A     		ldr	r2, .L58+36
 762 0204 3B68     		ldr	r3, [r7]
 763 0206 111C     		mov	r1, r2
 764 0208 1A1C     		mov	r2, r3
 765 020a 0223     		mov	r3, #2
 766 020c 081C     		mov	r0, r1
 767 020e 111C     		mov	r1, r2
 768 0210 1A1C     		mov	r2, r3
 769 0212 FFF7FEFF 		bl	memcpy
 962:.\Generated_Source\PSoC4/BLE_eventHandler.c ****                             CYBLE_GATT_DB_CCCD_COUNT);
 770              		.loc 1 962 0
 771 0216 384B     		ldr	r3, .L58+36
 772 0218 1B78     		ldrb	r3, [r3]
 773 021a DA00     		lsl	r2, r3, #3
 774 021c 384B     		ldr	r3, .L58+44
 775 021e D318     		add	r3, r2, r3
 776 0220 384A     		ldr	r2, .L58+48
 777 0222 111C     		mov	r1, r2
 778 0224 1A1C     		mov	r2, r3
 779 0226 0823     		mov	r3, #8
 780 0228 081C     		mov	r0, r1
 781 022a 111C     		mov	r1, r2
ARM GAS  C:\Users\Lonnie\AppData\Local\Temp\ccJOwa1B.s 			page 39


 782 022c 1A1C     		mov	r2, r3
 783 022e FFF7FEFF 		bl	memcpy
 970:.\Generated_Source\PSoC4/BLE_eventHandler.c ****             break;
 784              		.loc 1 970 0
 785 0232 FFF7FEFF 		bl	CyBle_GattConnectReqHandler
 971:.\Generated_Source\PSoC4/BLE_eventHandler.c **** 
 786              		.loc 1 971 0
 787 0236 32E0     		b	.L48
 788              	.L38:
 974:.\Generated_Source\PSoC4/BLE_eventHandler.c ****             break;
 789              		.loc 1 974 0
 790 0238 FFF7FEFF 		bl	CyBle_GattDisconnectEventHandler
 975:.\Generated_Source\PSoC4/BLE_eventHandler.c **** 
 791              		.loc 1 975 0
 792 023c 2FE0     		b	.L48
 793              	.L39:
 794              	.LBB4:
 981:.\Generated_Source\PSoC4/BLE_eventHandler.c ****             {
 795              		.loc 1 981 0
 796 023e 3B68     		ldr	r3, [r7]
 797 0240 5B88     		ldrh	r3, [r3, #2]
 798 0242 162B     		cmp	r3, #22
 799 0244 05D8     		bhi	.L54
 983:.\Generated_Source\PSoC4/BLE_eventHandler.c ****             }
 800              		.loc 1 983 0
 801 0246 0E23     		mov	r3, #14
 802 0248 FB18     		add	r3, r7, r3
 803 024a 3A68     		ldr	r2, [r7]
 804 024c 5288     		ldrh	r2, [r2, #2]
 805 024e 1A80     		strh	r2, [r3]
 806 0250 03E0     		b	.L55
 807              	.L54:
 987:.\Generated_Source\PSoC4/BLE_eventHandler.c ****             }
 808              		.loc 1 987 0
 809 0252 0E23     		mov	r3, #14
 810 0254 FB18     		add	r3, r7, r3
 811 0256 1722     		mov	r2, #23
 812 0258 1A80     		strh	r2, [r3]
 813              	.L55:
 989:.\Generated_Source\PSoC4/BLE_eventHandler.c ****              }
 814              		.loc 1 989 0
 815 025a 3B68     		ldr	r3, [r7]
 816 025c 0E22     		mov	r2, #14
 817 025e BA18     		add	r2, r7, r2
 818 0260 1188     		ldrh	r1, [r2]
 819 0262 1A88     		ldrh	r2, [r3]
 820 0264 0023     		mov	r3, #0
 821 0266 1204     		lsl	r2, r2, #16
 822 0268 120C     		lsr	r2, r2, #16
 823 026a 1B0C     		lsr	r3, r3, #16
 824 026c 1B04     		lsl	r3, r3, #16
 825 026e 1343     		orr	r3, r2
 826 0270 181C     		mov	r0, r3
 827 0272 FFF7FEFF 		bl	CyBle_GattsExchangeMtuRsp
 828              	.LBE4:
 991:.\Generated_Source\PSoC4/BLE_eventHandler.c ****     #endif /* (CYBLE_GATT_ROLE_SERVER) || (CYBLE_GATT_ROLE_CLIENT) */
 829              		.loc 1 991 0
ARM GAS  C:\Users\Lonnie\AppData\Local\Temp\ccJOwa1B.s 			page 40


 830 0276 12E0     		b	.L48
 831              	.L36:
1004:.\Generated_Source\PSoC4/BLE_eventHandler.c ****             break;
 832              		.loc 1 1004 0
 833 0278 3B68     		ldr	r3, [r7]
 834 027a 181C     		mov	r0, r3
 835 027c FFF7FEFF 		bl	CyBle_WriteReqHandler
1005:.\Generated_Source\PSoC4/BLE_eventHandler.c **** 
 836              		.loc 1 1005 0
 837 0280 0DE0     		b	.L48
 838              	.L41:
1041:.\Generated_Source\PSoC4/BLE_eventHandler.c ****             break;
 839              		.loc 1 1041 0
 840 0282 3B68     		ldr	r3, [r7]
 841 0284 181C     		mov	r0, r3
 842 0286 FFF7FEFF 		bl	CyBle_ValueConfirmation
1042:.\Generated_Source\PSoC4/BLE_eventHandler.c ****     #endif /* CYBLE_GATT_ROLE_SERVER */
 843              		.loc 1 1042 0
 844 028a 08E0     		b	.L48
 845              	.L45:
1326:.\Generated_Source\PSoC4/BLE_eventHandler.c ****             break;
 846              		.loc 1 1326 0
 847 028c 1E4B     		ldr	r3, .L58+52
 848 028e 1B78     		ldrb	r3, [r3]
 849 0290 0122     		mov	r2, #1
 850 0292 1343     		orr	r3, r2
 851 0294 DAB2     		uxtb	r2, r3
 852 0296 1C4B     		ldr	r3, .L58+52
 853 0298 1A70     		strb	r2, [r3]
1327:.\Generated_Source\PSoC4/BLE_eventHandler.c ****         
 854              		.loc 1 1327 0
 855 029a 00E0     		b	.L48
 856              	.L57:
1038:.\Generated_Source\PSoC4/BLE_eventHandler.c ****             
 857              		.loc 1 1038 0
 858 029c C046     		mov	r8, r8
 859              	.L48:
1332:.\Generated_Source\PSoC4/BLE_eventHandler.c ****     }
1333:.\Generated_Source\PSoC4/BLE_eventHandler.c **** 
1334:.\Generated_Source\PSoC4/BLE_eventHandler.c ****     if(0u != (cyBle_eventHandlerFlag & (CYBLE_CALLBACK | CYBLE_ENABLE_ALL_EVENTS))) 
 860              		.loc 1 1334 0
 861 029e 0D4B     		ldr	r3, .L58
 862 02a0 1B78     		ldrb	r3, [r3]
 863 02a2 DBB2     		uxtb	r3, r3
 864 02a4 1A1C     		mov	r2, r3
 865 02a6 1123     		mov	r3, #17
 866 02a8 1340     		and	r3, r2
 867 02aa 0FD0     		beq	.L24
1335:.\Generated_Source\PSoC4/BLE_eventHandler.c ****     {
1336:.\Generated_Source\PSoC4/BLE_eventHandler.c ****         cyBle_eventHandlerFlag &= (uint8)~CYBLE_CALLBACK;
 868              		.loc 1 1336 0
 869 02ac 094B     		ldr	r3, .L58
 870 02ae 1B78     		ldrb	r3, [r3]
 871 02b0 DBB2     		uxtb	r3, r3
 872 02b2 0122     		mov	r2, #1
 873 02b4 9343     		bic	r3, r2
 874 02b6 DAB2     		uxtb	r2, r3
ARM GAS  C:\Users\Lonnie\AppData\Local\Temp\ccJOwa1B.s 			page 41


 875 02b8 064B     		ldr	r3, .L58
 876 02ba 1A70     		strb	r2, [r3]
1337:.\Generated_Source\PSoC4/BLE_eventHandler.c ****         CyBle_ApplCallback((uint32)eventCode, eventParam);
 877              		.loc 1 1337 0
 878 02bc 134B     		ldr	r3, .L58+56
 879 02be 1B68     		ldr	r3, [r3]
 880 02c0 FA1D     		add	r2, r7, #7
 881 02c2 1178     		ldrb	r1, [r2]
 882 02c4 3A68     		ldr	r2, [r7]
 883 02c6 081C     		mov	r0, r1
 884 02c8 111C     		mov	r1, r2
 885 02ca 9847     		blx	r3
 886              	.L24:
1338:.\Generated_Source\PSoC4/BLE_eventHandler.c ****     }
1339:.\Generated_Source\PSoC4/BLE_eventHandler.c **** 
1340:.\Generated_Source\PSoC4/BLE_eventHandler.c **** }
 887              		.loc 1 1340 0
 888 02cc BD46     		mov	sp, r7
 889 02ce 04B0     		add	sp, sp, #16
 890              		@ sp needed
 891 02d0 80BD     		pop	{r7, pc}
 892              	.L59:
 893 02d2 C046     		.align	2
 894              	.L58:
 895 02d4 00000000 		.word	cyBle_eventHandlerFlag
 896 02d8 00000000 		.word	cyBle_sflashDeviceAddress
 897 02dc 7CF1FF0F 		.word	268431740
 898 02e0 00000000 		.word	cyBle_deviceAddress
 899 02e4 7DF1FF0F 		.word	268431741
 900 02e8 7BF1FF0F 		.word	268431739
 901 02ec 00000000 		.word	cyBle_state
 902 02f0 00000000 		.word	cyBle_busStatus
 903 02f4 00000000 		.word	cyBle_authInfo
 904 02f8 00000000 		.word	cyBle_connHandle
 905 02fc 00000000 		.word	cyBle_advertisingIntervalType
 906 0300 00000000 		.word	cyBle_attValuesCCCDFlashMemory
 907 0304 00000000 		.word	cyBle_attValuesCCCD
 908 0308 00000000 		.word	cyBle_pendingFlashWrite
 909 030c 00000000 		.word	CyBle_ApplCallback
 910              		.cfi_endproc
 911              	.LFE10:
 912              		.size	CyBle_EventHandler, .-CyBle_EventHandler
 913              		.text
 914              	.Letext0:
 915              		.file 2 ".\\Generated_Source\\PSoC4\\cytypes.h"
 916              		.file 3 ".\\Generated_Source\\PSoC4\\BLE_Stack.h"
 917              		.file 4 ".\\Generated_Source\\PSoC4\\BLE_StackHostMain.h"
 918              		.file 5 ".\\Generated_Source\\PSoC4\\BLE_StackGap.h"
 919              		.file 6 ".\\Generated_Source\\PSoC4\\BLE_StackGatt.h"
 920              		.file 7 ".\\Generated_Source\\PSoC4\\BLE_StackGattServer.h"
 921              		.file 8 ".\\Generated_Source\\PSoC4\\BLE.h"
 922              		.file 9 ".\\Generated_Source\\PSoC4\\BLE_dis.h"
 923              		.file 10 ".\\Generated_Source\\PSoC4\\BLE_hts.h"
 924              		.file 11 ".\\Generated_Source\\PSoC4\\BLE_eventHandler.h"
 925              		.file 12 ".\\Generated_Source\\PSoC4\\BLE_gatt.h"
 926              		.section	.debug_info,"",%progbits
 927              	.Ldebug_info0:
ARM GAS  C:\Users\Lonnie\AppData\Local\Temp\ccJOwa1B.s 			page 42


 928 0000 910B0000 		.4byte	0xb91
 929 0004 0400     		.2byte	0x4
 930 0006 00000000 		.4byte	.Ldebug_abbrev0
 931 000a 04       		.byte	0x4
 932 000b 01       		.uleb128 0x1
 933 000c 01170000 		.4byte	.LASF285
 934 0010 01       		.byte	0x1
 935 0011 68050000 		.4byte	.LASF286
 936 0015 65100000 		.4byte	.LASF287
 937 0019 00000000 		.4byte	.Ldebug_ranges0+0
 938 001d 00000000 		.4byte	0
 939 0021 00000000 		.4byte	.Ldebug_line0
 940 0025 02       		.uleb128 0x2
 941 0026 01       		.byte	0x1
 942 0027 06       		.byte	0x6
 943 0028 62060000 		.4byte	.LASF0
 944 002c 02       		.uleb128 0x2
 945 002d 01       		.byte	0x1
 946 002e 08       		.byte	0x8
 947 002f 77070000 		.4byte	.LASF1
 948 0033 02       		.uleb128 0x2
 949 0034 02       		.byte	0x2
 950 0035 05       		.byte	0x5
 951 0036 1A190000 		.4byte	.LASF2
 952 003a 02       		.uleb128 0x2
 953 003b 02       		.byte	0x2
 954 003c 07       		.byte	0x7
 955 003d 981C0000 		.4byte	.LASF3
 956 0041 02       		.uleb128 0x2
 957 0042 04       		.byte	0x4
 958 0043 05       		.byte	0x5
 959 0044 69040000 		.4byte	.LASF4
 960 0048 02       		.uleb128 0x2
 961 0049 04       		.byte	0x4
 962 004a 07       		.byte	0x7
 963 004b 9F0C0000 		.4byte	.LASF5
 964 004f 02       		.uleb128 0x2
 965 0050 08       		.byte	0x8
 966 0051 05       		.byte	0x5
 967 0052 DE0E0000 		.4byte	.LASF6
 968 0056 02       		.uleb128 0x2
 969 0057 08       		.byte	0x8
 970 0058 07       		.byte	0x7
 971 0059 91150000 		.4byte	.LASF7
 972 005d 03       		.uleb128 0x3
 973 005e 04       		.byte	0x4
 974 005f 05       		.byte	0x5
 975 0060 696E7400 		.ascii	"int\000"
 976 0064 02       		.uleb128 0x2
 977 0065 04       		.byte	0x4
 978 0066 07       		.byte	0x7
 979 0067 85110000 		.4byte	.LASF8
 980 006b 04       		.uleb128 0x4
 981 006c BC180000 		.4byte	.LASF9
 982 0070 02       		.byte	0x2
 983 0071 A1       		.byte	0xa1
 984 0072 2C000000 		.4byte	0x2c
ARM GAS  C:\Users\Lonnie\AppData\Local\Temp\ccJOwa1B.s 			page 43


 985 0076 04       		.uleb128 0x4
 986 0077 1A1E0000 		.4byte	.LASF10
 987 007b 02       		.byte	0x2
 988 007c A2       		.byte	0xa2
 989 007d 3A000000 		.4byte	0x3a
 990 0081 04       		.uleb128 0x4
 991 0082 E2000000 		.4byte	.LASF11
 992 0086 02       		.byte	0x2
 993 0087 A3       		.byte	0xa3
 994 0088 48000000 		.4byte	0x48
 995 008c 02       		.uleb128 0x2
 996 008d 04       		.byte	0x4
 997 008e 04       		.byte	0x4
 998 008f F8100000 		.4byte	.LASF12
 999 0093 02       		.uleb128 0x2
 1000 0094 08       		.byte	0x8
 1001 0095 04       		.byte	0x4
 1002 0096 9D0F0000 		.4byte	.LASF13
 1003 009a 02       		.uleb128 0x2
 1004 009b 01       		.byte	0x1
 1005 009c 08       		.byte	0x8
 1006 009d 81080000 		.4byte	.LASF14
 1007 00a1 05       		.uleb128 0x5
 1008 00a2 6B000000 		.4byte	0x6b
 1009 00a6 02       		.uleb128 0x2
 1010 00a7 04       		.byte	0x4
 1011 00a8 07       		.byte	0x7
 1012 00a9 15000000 		.4byte	.LASF15
 1013 00ad 06       		.uleb128 0x6
 1014 00ae 04       		.byte	0x4
 1015 00af 07       		.uleb128 0x7
 1016 00b0 01       		.byte	0x1
 1017 00b1 03       		.byte	0x3
 1018 00b2 52       		.byte	0x52
 1019 00b3 1F020000 		.4byte	0x21f
 1020 00b7 08       		.uleb128 0x8
 1021 00b8 09090000 		.4byte	.LASF16
 1022 00bc 00       		.sleb128 0
 1023 00bd 08       		.uleb128 0x8
 1024 00be EC040000 		.4byte	.LASF17
 1025 00c2 01       		.sleb128 1
 1026 00c3 08       		.uleb128 0x8
 1027 00c4 C6150000 		.4byte	.LASF18
 1028 00c8 02       		.sleb128 2
 1029 00c9 08       		.uleb128 0x8
 1030 00ca A3060000 		.4byte	.LASF19
 1031 00ce 03       		.sleb128 3
 1032 00cf 08       		.uleb128 0x8
 1033 00d0 601D0000 		.4byte	.LASF20
 1034 00d4 04       		.sleb128 4
 1035 00d5 08       		.uleb128 0x8
 1036 00d6 651B0000 		.4byte	.LASF21
 1037 00da 05       		.sleb128 5
 1038 00db 08       		.uleb128 0x8
 1039 00dc 251A0000 		.4byte	.LASF22
 1040 00e0 20       		.sleb128 32
 1041 00e1 08       		.uleb128 0x8
ARM GAS  C:\Users\Lonnie\AppData\Local\Temp\ccJOwa1B.s 			page 44


 1042 00e2 48030000 		.4byte	.LASF23
 1043 00e6 21       		.sleb128 33
 1044 00e7 08       		.uleb128 0x8
 1045 00e8 520E0000 		.4byte	.LASF24
 1046 00ec 22       		.sleb128 34
 1047 00ed 08       		.uleb128 0x8
 1048 00ee 5A130000 		.4byte	.LASF25
 1049 00f2 23       		.sleb128 35
 1050 00f3 08       		.uleb128 0x8
 1051 00f4 FD0B0000 		.4byte	.LASF26
 1052 00f8 24       		.sleb128 36
 1053 00f9 08       		.uleb128 0x8
 1054 00fa 190C0000 		.4byte	.LASF27
 1055 00fe 25       		.sleb128 37
 1056 00ff 08       		.uleb128 0x8
 1057 0100 94180000 		.4byte	.LASF28
 1058 0104 26       		.sleb128 38
 1059 0105 08       		.uleb128 0x8
 1060 0106 64000000 		.4byte	.LASF29
 1061 010a 27       		.sleb128 39
 1062 010b 08       		.uleb128 0x8
 1063 010c D71D0000 		.4byte	.LASF30
 1064 0110 28       		.sleb128 40
 1065 0111 08       		.uleb128 0x8
 1066 0112 B3140000 		.4byte	.LASF31
 1067 0116 29       		.sleb128 41
 1068 0117 08       		.uleb128 0x8
 1069 0118 BA0D0000 		.4byte	.LASF32
 1070 011c 2A       		.sleb128 42
 1071 011d 08       		.uleb128 0x8
 1072 011e E7120000 		.4byte	.LASF33
 1073 0122 2B       		.sleb128 43
 1074 0123 08       		.uleb128 0x8
 1075 0124 AB1B0000 		.4byte	.LASF34
 1076 0128 2C       		.sleb128 44
 1077 0129 08       		.uleb128 0x8
 1078 012a 9F190000 		.4byte	.LASF35
 1079 012e C000     		.sleb128 64
 1080 0130 08       		.uleb128 0x8
 1081 0131 A4000000 		.4byte	.LASF36
 1082 0135 C100     		.sleb128 65
 1083 0137 08       		.uleb128 0x8
 1084 0138 751D0000 		.4byte	.LASF37
 1085 013c C200     		.sleb128 66
 1086 013e 08       		.uleb128 0x8
 1087 013f E5140000 		.4byte	.LASF38
 1088 0143 C300     		.sleb128 67
 1089 0145 08       		.uleb128 0x8
 1090 0146 85070000 		.4byte	.LASF39
 1091 014a C400     		.sleb128 68
 1092 014c 08       		.uleb128 0x8
 1093 014d 24070000 		.4byte	.LASF40
 1094 0151 C500     		.sleb128 69
 1095 0153 08       		.uleb128 0x8
 1096 0154 34180000 		.4byte	.LASF41
 1097 0158 C600     		.sleb128 70
 1098 015a 08       		.uleb128 0x8
ARM GAS  C:\Users\Lonnie\AppData\Local\Temp\ccJOwa1B.s 			page 45


 1099 015b 16180000 		.4byte	.LASF42
 1100 015f C700     		.sleb128 71
 1101 0161 08       		.uleb128 0x8
 1102 0162 5A080000 		.4byte	.LASF43
 1103 0166 C800     		.sleb128 72
 1104 0168 08       		.uleb128 0x8
 1105 0169 CF130000 		.4byte	.LASF44
 1106 016d C900     		.sleb128 73
 1107 016f 08       		.uleb128 0x8
 1108 0170 74090000 		.4byte	.LASF45
 1109 0174 CA00     		.sleb128 74
 1110 0176 08       		.uleb128 0x8
 1111 0177 B6080000 		.4byte	.LASF46
 1112 017b CB00     		.sleb128 75
 1113 017d 08       		.uleb128 0x8
 1114 017e 40130000 		.4byte	.LASF47
 1115 0182 CC00     		.sleb128 76
 1116 0184 08       		.uleb128 0x8
 1117 0185 61180000 		.4byte	.LASF48
 1118 0189 CD00     		.sleb128 77
 1119 018b 08       		.uleb128 0x8
 1120 018c 4B040000 		.4byte	.LASF49
 1121 0190 CE00     		.sleb128 78
 1122 0192 08       		.uleb128 0x8
 1123 0193 92110000 		.4byte	.LASF50
 1124 0197 CF00     		.sleb128 79
 1125 0199 08       		.uleb128 0x8
 1126 019a 061A0000 		.4byte	.LASF51
 1127 019e D000     		.sleb128 80
 1128 01a0 08       		.uleb128 0x8
 1129 01a1 A9090000 		.4byte	.LASF52
 1130 01a5 D100     		.sleb128 81
 1131 01a7 08       		.uleb128 0x8
 1132 01a8 27030000 		.4byte	.LASF53
 1133 01ac D200     		.sleb128 82
 1134 01ae 08       		.uleb128 0x8
 1135 01af 231B0000 		.4byte	.LASF54
 1136 01b3 D300     		.sleb128 83
 1137 01b5 08       		.uleb128 0x8
 1138 01b6 F91D0000 		.4byte	.LASF55
 1139 01ba D400     		.sleb128 84
 1140 01bc 08       		.uleb128 0x8
 1141 01bd FC010000 		.4byte	.LASF56
 1142 01c1 D500     		.sleb128 85
 1143 01c3 08       		.uleb128 0x8
 1144 01c4 191C0000 		.4byte	.LASF57
 1145 01c8 F000     		.sleb128 112
 1146 01ca 08       		.uleb128 0x8
 1147 01cb B00B0000 		.4byte	.LASF58
 1148 01cf F100     		.sleb128 113
 1149 01d1 08       		.uleb128 0x8
 1150 01d2 E0050000 		.4byte	.LASF59
 1151 01d6 F200     		.sleb128 114
 1152 01d8 08       		.uleb128 0x8
 1153 01d9 E8190000 		.4byte	.LASF60
 1154 01dd F300     		.sleb128 115
 1155 01df 08       		.uleb128 0x8
ARM GAS  C:\Users\Lonnie\AppData\Local\Temp\ccJOwa1B.s 			page 46


 1156 01e0 22140000 		.4byte	.LASF61
 1157 01e4 F400     		.sleb128 116
 1158 01e6 08       		.uleb128 0x8
 1159 01e7 310E0000 		.4byte	.LASF62
 1160 01eb F500     		.sleb128 117
 1161 01ed 08       		.uleb128 0x8
 1162 01ee 39080000 		.4byte	.LASF63
 1163 01f2 F600     		.sleb128 118
 1164 01f4 08       		.uleb128 0x8
 1165 01f5 4C160000 		.4byte	.LASF64
 1166 01f9 F700     		.sleb128 119
 1167 01fb 08       		.uleb128 0x8
 1168 01fc 20020000 		.4byte	.LASF65
 1169 0200 F800     		.sleb128 120
 1170 0202 08       		.uleb128 0x8
 1171 0203 BF070000 		.4byte	.LASF66
 1172 0207 F900     		.sleb128 121
 1173 0209 08       		.uleb128 0x8
 1174 020a B31D0000 		.4byte	.LASF67
 1175 020e FA00     		.sleb128 122
 1176 0210 08       		.uleb128 0x8
 1177 0211 DC0F0000 		.4byte	.LASF68
 1178 0215 FA01     		.sleb128 250
 1179 0217 08       		.uleb128 0x8
 1180 0218 D9120000 		.4byte	.LASF69
 1181 021c FF01     		.sleb128 255
 1182 021e 00       		.byte	0
 1183 021f 09       		.uleb128 0x9
 1184 0220 02       		.byte	0x2
 1185 0221 03       		.byte	0x3
 1186 0222 8401     		.2byte	0x184
 1187 0224 F1020000 		.4byte	0x2f1
 1188 0228 08       		.uleb128 0x8
 1189 0229 CF060000 		.4byte	.LASF70
 1190 022d 00       		.sleb128 0
 1191 022e 08       		.uleb128 0x8
 1192 022f A10A0000 		.4byte	.LASF71
 1193 0233 01       		.sleb128 1
 1194 0234 08       		.uleb128 0x8
 1195 0235 421D0000 		.4byte	.LASF72
 1196 0239 02       		.sleb128 2
 1197 023a 08       		.uleb128 0x8
 1198 023b FD0A0000 		.4byte	.LASF73
 1199 023f 03       		.sleb128 3
 1200 0240 08       		.uleb128 0x8
 1201 0241 650C0000 		.4byte	.LASF74
 1202 0245 04       		.sleb128 4
 1203 0246 08       		.uleb128 0x8
 1204 0247 7F0F0000 		.4byte	.LASF75
 1205 024b 05       		.sleb128 5
 1206 024c 08       		.uleb128 0x8
 1207 024d C91A0000 		.4byte	.LASF76
 1208 0251 06       		.sleb128 6
 1209 0252 08       		.uleb128 0x8
 1210 0253 57090000 		.4byte	.LASF77
 1211 0257 07       		.sleb128 7
 1212 0258 08       		.uleb128 0x8
ARM GAS  C:\Users\Lonnie\AppData\Local\Temp\ccJOwa1B.s 			page 47


 1213 0259 C2100000 		.4byte	.LASF78
 1214 025d 08       		.sleb128 8
 1215 025e 08       		.uleb128 0x8
 1216 025f 491A0000 		.4byte	.LASF79
 1217 0263 09       		.sleb128 9
 1218 0264 08       		.uleb128 0x8
 1219 0265 211E0000 		.4byte	.LASF80
 1220 0269 0A       		.sleb128 10
 1221 026a 08       		.uleb128 0x8
 1222 026b 73030000 		.4byte	.LASF81
 1223 026f 0B       		.sleb128 11
 1224 0270 08       		.uleb128 0x8
 1225 0271 4E1B0000 		.4byte	.LASF82
 1226 0275 0C       		.sleb128 12
 1227 0276 08       		.uleb128 0x8
 1228 0277 74120000 		.4byte	.LASF83
 1229 027b 0D       		.sleb128 13
 1230 027c 08       		.uleb128 0x8
 1231 027d 5E0D0000 		.4byte	.LASF84
 1232 0281 0E       		.sleb128 14
 1233 0282 08       		.uleb128 0x8
 1234 0283 5A0F0000 		.4byte	.LASF85
 1235 0287 0F       		.sleb128 15
 1236 0288 08       		.uleb128 0x8
 1237 0289 B2010000 		.4byte	.LASF86
 1238 028d 10       		.sleb128 16
 1239 028e 08       		.uleb128 0x8
 1240 028f 9E100000 		.4byte	.LASF87
 1241 0293 11       		.sleb128 17
 1242 0294 08       		.uleb128 0x8
 1243 0295 E2070000 		.4byte	.LASF88
 1244 0299 12       		.sleb128 18
 1245 029a 08       		.uleb128 0x8
 1246 029b FF040000 		.4byte	.LASF89
 1247 029f 13       		.sleb128 19
 1248 02a0 08       		.uleb128 0x8
 1249 02a1 3A060000 		.4byte	.LASF90
 1250 02a5 14       		.sleb128 20
 1251 02a6 08       		.uleb128 0x8
 1252 02a7 A40F0000 		.4byte	.LASF91
 1253 02ab 27       		.sleb128 39
 1254 02ac 08       		.uleb128 0x8
 1255 02ad FE100000 		.4byte	.LASF92
 1256 02b1 28       		.sleb128 40
 1257 02b2 08       		.uleb128 0x8
 1258 02b3 E0010000 		.4byte	.LASF93
 1259 02b7 29       		.sleb128 41
 1260 02b8 08       		.uleb128 0x8
 1261 02b9 A00B0000 		.4byte	.LASF94
 1262 02bd FF01     		.sleb128 255
 1263 02bf 08       		.uleb128 0x8
 1264 02c0 330C0000 		.4byte	.LASF95
 1265 02c4 8002     		.sleb128 256
 1266 02c6 08       		.uleb128 0x8
 1267 02c7 471C0000 		.4byte	.LASF96
 1268 02cb 8102     		.sleb128 257
 1269 02cd 08       		.uleb128 0x8
ARM GAS  C:\Users\Lonnie\AppData\Local\Temp\ccJOwa1B.s 			page 48


 1270 02ce E70A0000 		.4byte	.LASF97
 1271 02d2 8202     		.sleb128 258
 1272 02d4 08       		.uleb128 0x8
 1273 02d5 99130000 		.4byte	.LASF98
 1274 02d9 8302     		.sleb128 259
 1275 02db 08       		.uleb128 0x8
 1276 02dc 80130000 		.4byte	.LASF99
 1277 02e0 8402     		.sleb128 260
 1278 02e2 08       		.uleb128 0x8
 1279 02e3 94050000 		.4byte	.LASF100
 1280 02e7 8502     		.sleb128 261
 1281 02e9 08       		.uleb128 0x8
 1282 02ea 06160000 		.4byte	.LASF101
 1283 02ee 8602     		.sleb128 262
 1284 02f0 00       		.byte	0
 1285 02f1 09       		.uleb128 0x9
 1286 02f2 01       		.byte	0x1
 1287 02f3 03       		.byte	0x3
 1288 02f4 1202     		.2byte	0x212
 1289 02f6 31030000 		.4byte	0x331
 1290 02fa 08       		.uleb128 0x8
 1291 02fb 6E060000 		.4byte	.LASF102
 1292 02ff 01       		.sleb128 1
 1293 0300 08       		.uleb128 0x8
 1294 0301 16040000 		.4byte	.LASF103
 1295 0305 02       		.sleb128 2
 1296 0306 08       		.uleb128 0x8
 1297 0307 7E140000 		.4byte	.LASF104
 1298 030b 03       		.sleb128 3
 1299 030c 08       		.uleb128 0x8
 1300 030d B0030000 		.4byte	.LASF105
 1301 0311 04       		.sleb128 4
 1302 0312 08       		.uleb128 0x8
 1303 0313 86080000 		.4byte	.LASF106
 1304 0317 05       		.sleb128 5
 1305 0318 08       		.uleb128 0x8
 1306 0319 CC0C0000 		.4byte	.LASF107
 1307 031d 06       		.sleb128 6
 1308 031e 08       		.uleb128 0x8
 1309 031f 880C0000 		.4byte	.LASF108
 1310 0323 07       		.sleb128 7
 1311 0324 08       		.uleb128 0x8
 1312 0325 E31A0000 		.4byte	.LASF109
 1313 0329 08       		.sleb128 8
 1314 032a 08       		.uleb128 0x8
 1315 032b 23100000 		.4byte	.LASF110
 1316 032f 09       		.sleb128 9
 1317 0330 00       		.byte	0
 1318 0331 0A       		.uleb128 0xa
 1319 0332 760E0000 		.4byte	.LASF111
 1320 0336 03       		.byte	0x3
 1321 0337 1C02     		.2byte	0x21c
 1322 0339 F1020000 		.4byte	0x2f1
 1323 033d 09       		.uleb128 0x9
 1324 033e 01       		.byte	0x1
 1325 033f 03       		.byte	0x3
 1326 0340 2002     		.2byte	0x220
ARM GAS  C:\Users\Lonnie\AppData\Local\Temp\ccJOwa1B.s 			page 49


 1327 0342 59030000 		.4byte	0x359
 1328 0346 08       		.uleb128 0x8
 1329 0347 FA1A0000 		.4byte	.LASF112
 1330 034b 00       		.sleb128 0
 1331 034c 08       		.uleb128 0x8
 1332 034d 10120000 		.4byte	.LASF113
 1333 0351 01       		.sleb128 1
 1334 0352 08       		.uleb128 0x8
 1335 0353 041C0000 		.4byte	.LASF114
 1336 0357 02       		.sleb128 2
 1337 0358 00       		.byte	0
 1338 0359 0A       		.uleb128 0xa
 1339 035a DE060000 		.4byte	.LASF115
 1340 035e 03       		.byte	0x3
 1341 035f 2702     		.2byte	0x227
 1342 0361 3D030000 		.4byte	0x33d
 1343 0365 0B       		.uleb128 0xb
 1344 0366 02       		.byte	0x2
 1345 0367 03       		.byte	0x3
 1346 0368 2A02     		.2byte	0x22a
 1347 036a 89030000 		.4byte	0x389
 1348 036e 0C       		.uleb128 0xc
 1349 036f E9000000 		.4byte	.LASF116
 1350 0373 03       		.byte	0x3
 1351 0374 2D02     		.2byte	0x22d
 1352 0376 31030000 		.4byte	0x331
 1353 037a 00       		.byte	0
 1354 037b 0C       		.uleb128 0xc
 1355 037c D6050000 		.4byte	.LASF117
 1356 0380 03       		.byte	0x3
 1357 0381 2F02     		.2byte	0x22f
 1358 0383 59030000 		.4byte	0x359
 1359 0387 01       		.byte	0x1
 1360 0388 00       		.byte	0
 1361 0389 0A       		.uleb128 0xa
 1362 038a EC1B0000 		.4byte	.LASF118
 1363 038e 03       		.byte	0x3
 1364 038f 3002     		.2byte	0x230
 1365 0391 65030000 		.4byte	0x365
 1366 0395 0B       		.uleb128 0xb
 1367 0396 07       		.byte	0x7
 1368 0397 03       		.byte	0x3
 1369 0398 6202     		.2byte	0x262
 1370 039a B9030000 		.4byte	0x3b9
 1371 039e 0C       		.uleb128 0xc
 1372 039f 7C1A0000 		.4byte	.LASF119
 1373 03a3 03       		.byte	0x3
 1374 03a4 6402     		.2byte	0x264
 1375 03a6 B9030000 		.4byte	0x3b9
 1376 03aa 00       		.byte	0
 1377 03ab 0C       		.uleb128 0xc
 1378 03ac 73020000 		.4byte	.LASF120
 1379 03b0 03       		.byte	0x3
 1380 03b1 6502     		.2byte	0x265
 1381 03b3 6B000000 		.4byte	0x6b
 1382 03b7 06       		.byte	0x6
 1383 03b8 00       		.byte	0
ARM GAS  C:\Users\Lonnie\AppData\Local\Temp\ccJOwa1B.s 			page 50


 1384 03b9 0D       		.uleb128 0xd
 1385 03ba 6B000000 		.4byte	0x6b
 1386 03be C9030000 		.4byte	0x3c9
 1387 03c2 0E       		.uleb128 0xe
 1388 03c3 A6000000 		.4byte	0xa6
 1389 03c7 05       		.byte	0x5
 1390 03c8 00       		.byte	0
 1391 03c9 0A       		.uleb128 0xa
 1392 03ca D4160000 		.4byte	.LASF121
 1393 03ce 03       		.byte	0x3
 1394 03cf 6602     		.2byte	0x266
 1395 03d1 95030000 		.4byte	0x395
 1396 03d5 07       		.uleb128 0x7
 1397 03d6 01       		.byte	0x1
 1398 03d7 04       		.byte	0x4
 1399 03d8 44       		.byte	0x44
 1400 03d9 F6030000 		.4byte	0x3f6
 1401 03dd 08       		.uleb128 0x8
 1402 03de 54120000 		.4byte	.LASF122
 1403 03e2 01       		.sleb128 1
 1404 03e3 08       		.uleb128 0x8
 1405 03e4 C2160000 		.4byte	.LASF123
 1406 03e8 02       		.sleb128 2
 1407 03e9 08       		.uleb128 0x8
 1408 03ea A11D0000 		.4byte	.LASF124
 1409 03ee 03       		.sleb128 3
 1410 03ef 08       		.uleb128 0x8
 1411 03f0 ED170000 		.4byte	.LASF125
 1412 03f4 04       		.sleb128 4
 1413 03f5 00       		.byte	0
 1414 03f6 04       		.uleb128 0x4
 1415 03f7 78020000 		.4byte	.LASF126
 1416 03fb 04       		.byte	0x4
 1417 03fc 51       		.byte	0x51
 1418 03fd D5030000 		.4byte	0x3d5
 1419 0401 07       		.uleb128 0x7
 1420 0402 01       		.byte	0x1
 1421 0403 05       		.byte	0x5
 1422 0404 B1       		.byte	0xb1
 1423 0405 22040000 		.4byte	0x422
 1424 0409 08       		.uleb128 0x8
 1425 040a 88040000 		.4byte	.LASF127
 1426 040e 00       		.sleb128 0
 1427 040f 08       		.uleb128 0x8
 1428 0410 9E040000 		.4byte	.LASF128
 1429 0414 01       		.sleb128 1
 1430 0415 08       		.uleb128 0x8
 1431 0416 B4040000 		.4byte	.LASF129
 1432 041a 02       		.sleb128 2
 1433 041b 08       		.uleb128 0x8
 1434 041c 200A0000 		.4byte	.LASF130
 1435 0420 0F       		.sleb128 15
 1436 0421 00       		.byte	0
 1437 0422 07       		.uleb128 0x7
 1438 0423 01       		.byte	0x1
 1439 0424 05       		.byte	0x5
 1440 0425 CB       		.byte	0xcb
ARM GAS  C:\Users\Lonnie\AppData\Local\Temp\ccJOwa1B.s 			page 51


 1441 0426 49040000 		.4byte	0x449
 1442 042a 08       		.uleb128 0x8
 1443 042b 93030000 		.4byte	.LASF131
 1444 042f 00       		.sleb128 0
 1445 0430 08       		.uleb128 0x8
 1446 0431 8D1B0000 		.4byte	.LASF132
 1447 0435 01       		.sleb128 1
 1448 0436 08       		.uleb128 0x8
 1449 0437 EB080000 		.4byte	.LASF133
 1450 043b 02       		.sleb128 2
 1451 043c 08       		.uleb128 0x8
 1452 043d 83000000 		.4byte	.LASF134
 1453 0441 03       		.sleb128 3
 1454 0442 08       		.uleb128 0x8
 1455 0443 B9190000 		.4byte	.LASF135
 1456 0447 04       		.sleb128 4
 1457 0448 00       		.byte	0
 1458 0449 07       		.uleb128 0x7
 1459 044a 01       		.byte	0x1
 1460 044b 05       		.byte	0x5
 1461 044c E1       		.byte	0xe1
 1462 044d A0040000 		.4byte	0x4a0
 1463 0451 08       		.uleb128 0x8
 1464 0452 99140000 		.4byte	.LASF136
 1465 0456 00       		.sleb128 0
 1466 0457 08       		.uleb128 0x8
 1467 0458 EC030000 		.4byte	.LASF137
 1468 045c 01       		.sleb128 1
 1469 045d 08       		.uleb128 0x8
 1470 045e 1C150000 		.4byte	.LASF138
 1471 0462 02       		.sleb128 2
 1472 0463 08       		.uleb128 0x8
 1473 0464 120D0000 		.4byte	.LASF139
 1474 0468 03       		.sleb128 3
 1475 0469 08       		.uleb128 0x8
 1476 046a 0F1D0000 		.4byte	.LASF140
 1477 046e 04       		.sleb128 4
 1478 046f 08       		.uleb128 0x8
 1479 0470 C2170000 		.4byte	.LASF141
 1480 0474 05       		.sleb128 5
 1481 0475 08       		.uleb128 0x8
 1482 0476 A80E0000 		.4byte	.LASF142
 1483 047a 06       		.sleb128 6
 1484 047b 08       		.uleb128 0x8
 1485 047c E70C0000 		.4byte	.LASF143
 1486 0480 07       		.sleb128 7
 1487 0481 08       		.uleb128 0x8
 1488 0482 BB020000 		.4byte	.LASF144
 1489 0486 08       		.sleb128 8
 1490 0487 08       		.uleb128 0x8
 1491 0488 0A0E0000 		.4byte	.LASF145
 1492 048c 09       		.sleb128 9
 1493 048d 08       		.uleb128 0x8
 1494 048e 11080000 		.4byte	.LASF146
 1495 0492 0A       		.sleb128 10
 1496 0493 08       		.uleb128 0x8
 1497 0494 8F020000 		.4byte	.LASF147
ARM GAS  C:\Users\Lonnie\AppData\Local\Temp\ccJOwa1B.s 			page 52


 1498 0498 15       		.sleb128 21
 1499 0499 08       		.uleb128 0x8
 1500 049a D60B0000 		.4byte	.LASF148
 1501 049e 18       		.sleb128 24
 1502 049f 00       		.byte	0
 1503 04a0 0A       		.uleb128 0xa
 1504 04a1 21130000 		.4byte	.LASF149
 1505 04a5 05       		.byte	0x5
 1506 04a6 0D01     		.2byte	0x10d
 1507 04a8 49040000 		.4byte	0x449
 1508 04ac 0B       		.uleb128 0xb
 1509 04ad 04       		.byte	0x4
 1510 04ae 05       		.byte	0x5
 1511 04af 2601     		.2byte	0x126
 1512 04b1 EA040000 		.4byte	0x4ea
 1513 04b5 0C       		.uleb128 0xc
 1514 04b6 D1180000 		.4byte	.LASF150
 1515 04ba 05       		.byte	0x5
 1516 04bb 2F01     		.2byte	0x12f
 1517 04bd 6B000000 		.4byte	0x6b
 1518 04c1 00       		.byte	0
 1519 04c2 0C       		.uleb128 0xc
 1520 04c3 5F110000 		.4byte	.LASF151
 1521 04c7 05       		.byte	0x5
 1522 04c8 3501     		.2byte	0x135
 1523 04ca 6B000000 		.4byte	0x6b
 1524 04ce 01       		.byte	0x1
 1525 04cf 0C       		.uleb128 0xc
 1526 04d0 1E000000 		.4byte	.LASF152
 1527 04d4 05       		.byte	0x5
 1528 04d5 3B01     		.2byte	0x13b
 1529 04d7 6B000000 		.4byte	0x6b
 1530 04db 02       		.byte	0x2
 1531 04dc 0C       		.uleb128 0xc
 1532 04dd 24190000 		.4byte	.LASF153
 1533 04e1 05       		.byte	0x5
 1534 04e2 3F01     		.2byte	0x13f
 1535 04e4 A0040000 		.4byte	0x4a0
 1536 04e8 03       		.byte	0x3
 1537 04e9 00       		.byte	0
 1538 04ea 0A       		.uleb128 0xa
 1539 04eb D5080000 		.4byte	.LASF154
 1540 04ef 05       		.byte	0x5
 1541 04f0 4101     		.2byte	0x141
 1542 04f2 AC040000 		.4byte	0x4ac
 1543 04f6 0F       		.uleb128 0xf
 1544 04f7 04       		.byte	0x4
 1545 04f8 6B000000 		.4byte	0x6b
 1546 04fc 0B       		.uleb128 0xb
 1547 04fd 08       		.byte	0x8
 1548 04fe 05       		.byte	0x5
 1549 04ff AD02     		.2byte	0x2ad
 1550 0501 3A050000 		.4byte	0x53a
 1551 0505 0C       		.uleb128 0xc
 1552 0506 C50C0000 		.4byte	.LASF155
 1553 050a 05       		.byte	0x5
 1554 050b B102     		.2byte	0x2b1
ARM GAS  C:\Users\Lonnie\AppData\Local\Temp\ccJOwa1B.s 			page 53


 1555 050d 6B000000 		.4byte	0x6b
 1556 0511 00       		.byte	0
 1557 0512 0C       		.uleb128 0xc
 1558 0513 8F1C0000 		.4byte	.LASF156
 1559 0517 05       		.byte	0x5
 1560 0518 B702     		.2byte	0x2b7
 1561 051a 76000000 		.4byte	0x76
 1562 051e 02       		.byte	0x2
 1563 051f 0C       		.uleb128 0xc
 1564 0520 811B0000 		.4byte	.LASF157
 1565 0524 05       		.byte	0x5
 1566 0525 BC02     		.2byte	0x2bc
 1567 0527 76000000 		.4byte	0x76
 1568 052b 04       		.byte	0x4
 1569 052c 0C       		.uleb128 0xc
 1570 052d 931D0000 		.4byte	.LASF158
 1571 0531 05       		.byte	0x5
 1572 0532 C202     		.2byte	0x2c2
 1573 0534 76000000 		.4byte	0x76
 1574 0538 06       		.byte	0x6
 1575 0539 00       		.byte	0
 1576 053a 0A       		.uleb128 0xa
 1577 053b 64150000 		.4byte	.LASF159
 1578 053f 05       		.byte	0x5
 1579 0540 C402     		.2byte	0x2c4
 1580 0542 FC040000 		.4byte	0x4fc
 1581 0546 07       		.uleb128 0x7
 1582 0547 01       		.byte	0x1
 1583 0548 06       		.byte	0x6
 1584 0549 48       		.byte	0x48
 1585 054a 00060000 		.4byte	0x600
 1586 054e 08       		.uleb128 0x8
 1587 054f 8C0A0000 		.4byte	.LASF160
 1588 0553 01       		.sleb128 1
 1589 0554 08       		.uleb128 0x8
 1590 0555 3E090000 		.4byte	.LASF161
 1591 0559 02       		.sleb128 2
 1592 055a 08       		.uleb128 0x8
 1593 055b 32040000 		.4byte	.LASF162
 1594 055f 03       		.sleb128 3
 1595 0560 08       		.uleb128 0x8
 1596 0561 8A060000 		.4byte	.LASF163
 1597 0565 04       		.sleb128 4
 1598 0566 08       		.uleb128 0x8
 1599 0567 03150000 		.4byte	.LASF164
 1600 056b 05       		.sleb128 5
 1601 056c 08       		.uleb128 0x8
 1602 056d 5C140000 		.4byte	.LASF165
 1603 0571 06       		.sleb128 6
 1604 0572 08       		.uleb128 0x8
 1605 0573 CA040000 		.4byte	.LASF166
 1606 0577 07       		.sleb128 7
 1607 0578 08       		.uleb128 0x8
 1608 0579 06140000 		.4byte	.LASF167
 1609 057d 08       		.sleb128 8
 1610 057e 08       		.uleb128 0x8
 1611 057f E3020000 		.4byte	.LASF168
ARM GAS  C:\Users\Lonnie\AppData\Local\Temp\ccJOwa1B.s 			page 54


 1612 0583 09       		.sleb128 9
 1613 0584 08       		.uleb128 0x8
 1614 0585 B10C0000 		.4byte	.LASF169
 1615 0589 0A       		.sleb128 10
 1616 058a 08       		.uleb128 0x8
 1617 058b B51A0000 		.4byte	.LASF170
 1618 058f 0B       		.sleb128 11
 1619 0590 08       		.uleb128 0x8
 1620 0591 E8160000 		.4byte	.LASF171
 1621 0595 0C       		.sleb128 12
 1622 0596 08       		.uleb128 0x8
 1623 0597 FC050000 		.4byte	.LASF172
 1624 059b 0D       		.sleb128 13
 1625 059c 08       		.uleb128 0x8
 1626 059d B2130000 		.4byte	.LASF173
 1627 05a1 0E       		.sleb128 14
 1628 05a2 08       		.uleb128 0x8
 1629 05a3 56020000 		.4byte	.LASF174
 1630 05a7 0F       		.sleb128 15
 1631 05a8 08       		.uleb128 0x8
 1632 05a9 F21C0000 		.4byte	.LASF175
 1633 05ad 10       		.sleb128 16
 1634 05ae 08       		.uleb128 0x8
 1635 05af 480C0000 		.4byte	.LASF176
 1636 05b3 11       		.sleb128 17
 1637 05b4 08       		.uleb128 0x8
 1638 05b5 05190000 		.4byte	.LASF177
 1639 05b9 12       		.sleb128 18
 1640 05ba 08       		.uleb128 0x8
 1641 05bb A1080000 		.4byte	.LASF178
 1642 05bf 13       		.sleb128 19
 1643 05c0 08       		.uleb128 0x8
 1644 05c1 CD000000 		.4byte	.LASF179
 1645 05c5 D200     		.sleb128 82
 1646 05c7 08       		.uleb128 0x8
 1647 05c8 6F010000 		.4byte	.LASF180
 1648 05cc 16       		.sleb128 22
 1649 05cd 08       		.uleb128 0x8
 1650 05ce 99120000 		.4byte	.LASF181
 1651 05d2 17       		.sleb128 23
 1652 05d3 08       		.uleb128 0x8
 1653 05d4 CF1B0000 		.4byte	.LASF182
 1654 05d8 18       		.sleb128 24
 1655 05d9 08       		.uleb128 0x8
 1656 05da 830B0000 		.4byte	.LASF183
 1657 05de 19       		.sleb128 25
 1658 05df 08       		.uleb128 0x8
 1659 05e0 420D0000 		.4byte	.LASF184
 1660 05e4 1B       		.sleb128 27
 1661 05e5 08       		.uleb128 0x8
 1662 05e6 A3070000 		.4byte	.LASF185
 1663 05ea 1D       		.sleb128 29
 1664 05eb 08       		.uleb128 0x8
 1665 05ec 27000000 		.4byte	.LASF186
 1666 05f0 1E       		.sleb128 30
 1667 05f1 08       		.uleb128 0x8
 1668 05f2 3C0B0000 		.4byte	.LASF187
ARM GAS  C:\Users\Lonnie\AppData\Local\Temp\ccJOwa1B.s 			page 55


 1669 05f6 D201     		.sleb128 210
 1670 05f8 08       		.uleb128 0x8
 1671 05f9 EB150000 		.4byte	.LASF188
 1672 05fd FF01     		.sleb128 255
 1673 05ff 00       		.byte	0
 1674 0600 07       		.uleb128 0x7
 1675 0601 01       		.byte	0x1
 1676 0602 06       		.byte	0x6
 1677 0603 A4       		.byte	0xa4
 1678 0604 AD060000 		.4byte	0x6ad
 1679 0608 08       		.uleb128 0x8
 1680 0609 6B160000 		.4byte	.LASF189
 1681 060d 00       		.sleb128 0
 1682 060e 08       		.uleb128 0x8
 1683 060f A8150000 		.4byte	.LASF190
 1684 0613 01       		.sleb128 1
 1685 0614 08       		.uleb128 0x8
 1686 0615 19010000 		.4byte	.LASF191
 1687 0619 02       		.sleb128 2
 1688 061a 08       		.uleb128 0x8
 1689 061b 5C1C0000 		.4byte	.LASF192
 1690 061f 03       		.sleb128 3
 1691 0620 08       		.uleb128 0x8
 1692 0621 4D050000 		.4byte	.LASF193
 1693 0625 04       		.sleb128 4
 1694 0626 08       		.uleb128 0x8
 1695 0627 B1110000 		.4byte	.LASF194
 1696 062b 05       		.sleb128 5
 1697 062c 08       		.uleb128 0x8
 1698 062d 63190000 		.4byte	.LASF195
 1699 0631 06       		.sleb128 6
 1700 0632 08       		.uleb128 0x8
 1701 0633 E8130000 		.4byte	.LASF196
 1702 0637 07       		.sleb128 7
 1703 0638 08       		.uleb128 0x8
 1704 0639 2A110000 		.4byte	.LASF197
 1705 063d 08       		.sleb128 8
 1706 063e 08       		.uleb128 0x8
 1707 063f 320F0000 		.4byte	.LASF198
 1708 0643 09       		.sleb128 9
 1709 0644 08       		.uleb128 0x8
 1710 0645 B6120000 		.4byte	.LASF199
 1711 0649 0A       		.sleb128 10
 1712 064a 08       		.uleb128 0x8
 1713 064b FE090000 		.4byte	.LASF200
 1714 064f 0B       		.sleb128 11
 1715 0650 08       		.uleb128 0x8
 1716 0651 FA0F0000 		.4byte	.LASF201
 1717 0655 0C       		.sleb128 12
 1718 0656 08       		.uleb128 0x8
 1719 0657 15060000 		.4byte	.LASF202
 1720 065b 0D       		.sleb128 13
 1721 065c 08       		.uleb128 0x8
 1722 065d 20090000 		.4byte	.LASF203
 1723 0661 0E       		.sleb128 14
 1724 0662 08       		.uleb128 0x8
 1725 0663 AB1C0000 		.4byte	.LASF204
ARM GAS  C:\Users\Lonnie\AppData\Local\Temp\ccJOwa1B.s 			page 56


 1726 0667 0F       		.sleb128 15
 1727 0668 08       		.uleb128 0x8
 1728 0669 8C010000 		.4byte	.LASF205
 1729 066d 10       		.sleb128 16
 1730 066e 08       		.uleb128 0x8
 1731 066f 3B010000 		.4byte	.LASF206
 1732 0673 11       		.sleb128 17
 1733 0674 08       		.uleb128 0x8
 1734 0675 C8090000 		.4byte	.LASF207
 1735 0679 8001     		.sleb128 128
 1736 067b 08       		.uleb128 0x8
 1737 067c 2C190000 		.4byte	.LASF208
 1738 0680 8001     		.sleb128 128
 1739 0682 08       		.uleb128 0x8
 1740 0683 26120000 		.4byte	.LASF209
 1741 0687 8001     		.sleb128 128
 1742 0689 08       		.uleb128 0x8
 1743 068a 580B0000 		.4byte	.LASF210
 1744 068e 8101     		.sleb128 129
 1745 0690 08       		.uleb128 0x8
 1746 0691 831A0000 		.4byte	.LASF211
 1747 0695 A001     		.sleb128 160
 1748 0697 08       		.uleb128 0x8
 1749 0698 FA060000 		.4byte	.LASF212
 1750 069c FD01     		.sleb128 253
 1751 069e 08       		.uleb128 0x8
 1752 069f 38100000 		.4byte	.LASF213
 1753 06a3 FE01     		.sleb128 254
 1754 06a5 08       		.uleb128 0x8
 1755 06a6 40140000 		.4byte	.LASF214
 1756 06aa FF01     		.sleb128 255
 1757 06ac 00       		.byte	0
 1758 06ad 0A       		.uleb128 0xa
 1759 06ae AC160000 		.4byte	.LASF215
 1760 06b2 06       		.byte	0x6
 1761 06b3 2801     		.2byte	0x128
 1762 06b5 00060000 		.4byte	0x600
 1763 06b9 0A       		.uleb128 0xa
 1764 06ba 20160000 		.4byte	.LASF216
 1765 06be 06       		.byte	0x6
 1766 06bf 4A01     		.2byte	0x14a
 1767 06c1 76000000 		.4byte	0x76
 1768 06c5 0B       		.uleb128 0xb
 1769 06c6 02       		.byte	0x2
 1770 06c7 06       		.byte	0x6
 1771 06c8 4D01     		.2byte	0x14d
 1772 06ca E9060000 		.4byte	0x6e9
 1773 06ce 0C       		.uleb128 0xc
 1774 06cf E3030000 		.4byte	.LASF217
 1775 06d3 06       		.byte	0x6
 1776 06d4 5001     		.2byte	0x150
 1777 06d6 6B000000 		.4byte	0x6b
 1778 06da 00       		.byte	0
 1779 06db 0C       		.uleb128 0xc
 1780 06dc 3C1D0000 		.4byte	.LASF218
 1781 06e0 06       		.byte	0x6
 1782 06e1 5301     		.2byte	0x153
ARM GAS  C:\Users\Lonnie\AppData\Local\Temp\ccJOwa1B.s 			page 57


 1783 06e3 6B000000 		.4byte	0x6b
 1784 06e7 01       		.byte	0x1
 1785 06e8 00       		.byte	0
 1786 06e9 0A       		.uleb128 0xa
 1787 06ea 5F030000 		.4byte	.LASF219
 1788 06ee 06       		.byte	0x6
 1789 06ef 5501     		.2byte	0x155
 1790 06f1 C5060000 		.4byte	0x6c5
 1791 06f5 0B       		.uleb128 0xb
 1792 06f6 08       		.byte	0x8
 1793 06f7 06       		.byte	0x6
 1794 06f8 6A01     		.2byte	0x16a
 1795 06fa 26070000 		.4byte	0x726
 1796 06fe 10       		.uleb128 0x10
 1797 06ff 76616C00 		.ascii	"val\000"
 1798 0703 06       		.byte	0x6
 1799 0704 6D01     		.2byte	0x16d
 1800 0706 F6040000 		.4byte	0x4f6
 1801 070a 00       		.byte	0
 1802 070b 10       		.uleb128 0x10
 1803 070c 6C656E00 		.ascii	"len\000"
 1804 0710 06       		.byte	0x6
 1805 0711 7001     		.2byte	0x170
 1806 0713 76000000 		.4byte	0x76
 1807 0717 04       		.byte	0x4
 1808 0718 0C       		.uleb128 0xc
 1809 0719 E81C0000 		.4byte	.LASF220
 1810 071d 06       		.byte	0x6
 1811 071e 7401     		.2byte	0x174
 1812 0720 76000000 		.4byte	0x76
 1813 0724 06       		.byte	0x6
 1814 0725 00       		.byte	0
 1815 0726 0A       		.uleb128 0xa
 1816 0727 43020000 		.4byte	.LASF221
 1817 072b 06       		.byte	0x6
 1818 072c 7601     		.2byte	0x176
 1819 072e F5060000 		.4byte	0x6f5
 1820 0732 0B       		.uleb128 0xb
 1821 0733 0C       		.byte	0xc
 1822 0734 06       		.byte	0x6
 1823 0735 7901     		.2byte	0x179
 1824 0737 56070000 		.4byte	0x756
 1825 073b 0C       		.uleb128 0xc
 1826 073c 7F160000 		.4byte	.LASF222
 1827 0740 06       		.byte	0x6
 1828 0741 7C01     		.2byte	0x17c
 1829 0743 26070000 		.4byte	0x726
 1830 0747 00       		.byte	0
 1831 0748 0C       		.uleb128 0xc
 1832 0749 54110000 		.4byte	.LASF223
 1833 074d 06       		.byte	0x6
 1834 074e 7F01     		.2byte	0x17f
 1835 0750 B9060000 		.4byte	0x6b9
 1836 0754 08       		.byte	0x8
 1837 0755 00       		.byte	0
 1838 0756 0A       		.uleb128 0xa
 1839 0757 B7050000 		.4byte	.LASF224
ARM GAS  C:\Users\Lonnie\AppData\Local\Temp\ccJOwa1B.s 			page 58


 1840 075b 06       		.byte	0x6
 1841 075c 8101     		.2byte	0x181
 1842 075e 32070000 		.4byte	0x732
 1843 0762 0B       		.uleb128 0xb
 1844 0763 04       		.byte	0x4
 1845 0764 06       		.byte	0x6
 1846 0765 8F01     		.2byte	0x18f
 1847 0767 86070000 		.4byte	0x786
 1848 076b 0C       		.uleb128 0xc
 1849 076c 9D170000 		.4byte	.LASF225
 1850 0770 06       		.byte	0x6
 1851 0771 9201     		.2byte	0x192
 1852 0773 E9060000 		.4byte	0x6e9
 1853 0777 00       		.byte	0
 1854 0778 10       		.uleb128 0x10
 1855 0779 6D747500 		.ascii	"mtu\000"
 1856 077d 06       		.byte	0x6
 1857 077e 9501     		.2byte	0x195
 1858 0780 76000000 		.4byte	0x76
 1859 0784 02       		.byte	0x2
 1860 0785 00       		.byte	0
 1861 0786 0A       		.uleb128 0xa
 1862 0787 DC110000 		.4byte	.LASF226
 1863 078b 06       		.byte	0x6
 1864 078c 9701     		.2byte	0x197
 1865 078e 62070000 		.4byte	0x762
 1866 0792 11       		.uleb128 0x11
 1867 0793 04       		.byte	0x4
 1868 0794 07       		.byte	0x7
 1869 0795 33       		.byte	0x33
 1870 0796 BF070000 		.4byte	0x7bf
 1871 079a 12       		.uleb128 0x12
 1872 079b 54110000 		.4byte	.LASF223
 1873 079f 07       		.byte	0x7
 1874 07a0 36       		.byte	0x36
 1875 07a1 B9060000 		.4byte	0x6b9
 1876 07a5 00       		.byte	0
 1877 07a6 12       		.uleb128 0x12
 1878 07a7 23110000 		.4byte	.LASF227
 1879 07ab 07       		.byte	0x7
 1880 07ac 3C       		.byte	0x3c
 1881 07ad 6B000000 		.4byte	0x6b
 1882 07b1 02       		.byte	0x2
 1883 07b2 12       		.uleb128 0x12
 1884 07b3 07080000 		.4byte	.LASF228
 1885 07b7 07       		.byte	0x7
 1886 07b8 3F       		.byte	0x3f
 1887 07b9 AD060000 		.4byte	0x6ad
 1888 07bd 03       		.byte	0x3
 1889 07be 00       		.byte	0
 1890 07bf 04       		.uleb128 0x4
 1891 07c0 5F070000 		.4byte	.LASF229
 1892 07c4 07       		.byte	0x7
 1893 07c5 41       		.byte	0x41
 1894 07c6 92070000 		.4byte	0x792
 1895 07ca 11       		.uleb128 0x11
 1896 07cb 10       		.byte	0x10
ARM GAS  C:\Users\Lonnie\AppData\Local\Temp\ccJOwa1B.s 			page 59


 1897 07cc 07       		.byte	0x7
 1898 07cd 52       		.byte	0x52
 1899 07ce EB070000 		.4byte	0x7eb
 1900 07d2 12       		.uleb128 0x12
 1901 07d3 9D170000 		.4byte	.LASF225
 1902 07d7 07       		.byte	0x7
 1903 07d8 55       		.byte	0x55
 1904 07d9 E9060000 		.4byte	0x6e9
 1905 07dd 00       		.byte	0
 1906 07de 12       		.uleb128 0x12
 1907 07df 8F170000 		.4byte	.LASF230
 1908 07e3 07       		.byte	0x7
 1909 07e4 58       		.byte	0x58
 1910 07e5 56070000 		.4byte	0x756
 1911 07e9 04       		.byte	0x4
 1912 07ea 00       		.byte	0
 1913 07eb 04       		.uleb128 0x4
 1914 07ec 67110000 		.4byte	.LASF231
 1915 07f0 07       		.byte	0x7
 1916 07f1 5A       		.byte	0x5a
 1917 07f2 CA070000 		.4byte	0x7ca
 1918 07f6 04       		.uleb128 0x4
 1919 07f7 FF020000 		.4byte	.LASF232
 1920 07fb 08       		.byte	0x8
 1921 07fc F9       		.byte	0xf9
 1922 07fd 01080000 		.4byte	0x801
 1923 0801 0F       		.uleb128 0xf
 1924 0802 04       		.byte	0x4
 1925 0803 07080000 		.4byte	0x807
 1926 0807 13       		.uleb128 0x13
 1927 0808 17080000 		.4byte	0x817
 1928 080c 14       		.uleb128 0x14
 1929 080d 81000000 		.4byte	0x81
 1930 0811 14       		.uleb128 0x14
 1931 0812 AD000000 		.4byte	0xad
 1932 0816 00       		.byte	0
 1933 0817 07       		.uleb128 0x7
 1934 0818 01       		.byte	0x1
 1935 0819 09       		.byte	0x9
 1936 081a 1D       		.byte	0x1d
 1937 081b 5C080000 		.4byte	0x85c
 1938 081f 08       		.uleb128 0x8
 1939 0820 48150000 		.4byte	.LASF233
 1940 0824 00       		.sleb128 0
 1941 0825 08       		.uleb128 0x8
 1942 0826 500A0000 		.4byte	.LASF234
 1943 082a 01       		.sleb128 1
 1944 082b 08       		.uleb128 0x8
 1945 082c 870D0000 		.4byte	.LASF235
 1946 0830 02       		.sleb128 2
 1947 0831 08       		.uleb128 0x8
 1948 0832 22050000 		.4byte	.LASF236
 1949 0836 03       		.sleb128 3
 1950 0837 08       		.uleb128 0x8
 1951 0838 10030000 		.4byte	.LASF237
 1952 083c 04       		.sleb128 4
 1953 083d 08       		.uleb128 0x8
ARM GAS  C:\Users\Lonnie\AppData\Local\Temp\ccJOwa1B.s 			page 60


 1954 083e 390A0000 		.4byte	.LASF238
 1955 0842 05       		.sleb128 5
 1956 0843 08       		.uleb128 0x8
 1957 0844 780A0000 		.4byte	.LASF239
 1958 0848 06       		.sleb128 6
 1959 0849 08       		.uleb128 0x8
 1960 084a F8110000 		.4byte	.LASF240
 1961 084e 07       		.sleb128 7
 1962 084f 08       		.uleb128 0x8
 1963 0850 0D0F0000 		.4byte	.LASF241
 1964 0854 08       		.sleb128 8
 1965 0855 08       		.uleb128 0x8
 1966 0856 00000000 		.4byte	.LASF242
 1967 085a 09       		.sleb128 9
 1968 085b 00       		.byte	0
 1969 085c 07       		.uleb128 0x7
 1970 085d 01       		.byte	0x1
 1971 085e 0A       		.byte	0xa
 1972 085f 1C       		.byte	0x1c
 1973 0860 83080000 		.4byte	0x883
 1974 0864 08       		.uleb128 0x8
 1975 0865 88190000 		.4byte	.LASF243
 1976 0869 00       		.sleb128 0
 1977 086a 08       		.uleb128 0x8
 1978 086b 85160000 		.4byte	.LASF244
 1979 086f 01       		.sleb128 1
 1980 0870 08       		.uleb128 0x8
 1981 0871 72040000 		.4byte	.LASF245
 1982 0875 02       		.sleb128 2
 1983 0876 08       		.uleb128 0x8
 1984 0877 9F0D0000 		.4byte	.LASF246
 1985 087b 03       		.sleb128 3
 1986 087c 08       		.uleb128 0x8
 1987 087d D0140000 		.4byte	.LASF247
 1988 0881 04       		.sleb128 4
 1989 0882 00       		.byte	0
 1990 0883 07       		.uleb128 0x7
 1991 0884 01       		.byte	0x1
 1992 0885 0A       		.byte	0xa
 1993 0886 27       		.byte	0x27
 1994 0887 9E080000 		.4byte	0x89e
 1995 088b 08       		.uleb128 0x8
 1996 088c 60010000 		.4byte	.LASF248
 1997 0890 00       		.sleb128 0
 1998 0891 08       		.uleb128 0x8
 1999 0892 BF000000 		.4byte	.LASF249
 2000 0896 01       		.sleb128 1
 2001 0897 08       		.uleb128 0x8
 2002 0898 C60F0000 		.4byte	.LASF250
 2003 089c 02       		.sleb128 2
 2004 089d 00       		.byte	0
 2005 089e 09       		.uleb128 0x9
 2006 089f 01       		.byte	0x1
 2007 08a0 0B       		.byte	0xb
 2008 08a1 F004     		.2byte	0x4f0
 2009 08a3 C6080000 		.4byte	0x8c6
 2010 08a7 08       		.uleb128 0x8
ARM GAS  C:\Users\Lonnie\AppData\Local\Temp\ccJOwa1B.s 			page 61


 2011 08a8 4B070000 		.4byte	.LASF251
 2012 08ac 00       		.sleb128 0
 2013 08ad 08       		.uleb128 0x8
 2014 08ae E30D0000 		.4byte	.LASF252
 2015 08b2 01       		.sleb128 1
 2016 08b3 08       		.uleb128 0x8
 2017 08b4 D21C0000 		.4byte	.LASF253
 2018 08b8 02       		.sleb128 2
 2019 08b9 08       		.uleb128 0x8
 2020 08ba CB030000 		.4byte	.LASF254
 2021 08be 03       		.sleb128 3
 2022 08bf 08       		.uleb128 0x8
 2023 08c0 7B180000 		.4byte	.LASF255
 2024 08c4 04       		.sleb128 4
 2025 08c5 00       		.byte	0
 2026 08c6 0A       		.uleb128 0xa
 2027 08c7 DA190000 		.4byte	.LASF256
 2028 08cb 0B       		.byte	0xb
 2029 08cc FE04     		.2byte	0x4fe
 2030 08ce 9E080000 		.4byte	0x89e
 2031 08d2 15       		.uleb128 0x15
 2032 08d3 43000000 		.4byte	.LASF259
 2033 08d7 01       		.byte	0x1
 2034 08d8 B2       		.byte	0xb2
 2035 08d9 00000000 		.4byte	.LFB2
 2036 08dd 98000000 		.4byte	.LFE2-.LFB2
 2037 08e1 01       		.uleb128 0x1
 2038 08e2 9C       		.byte	0x9c
 2039 08e3 1D090000 		.4byte	0x91d
 2040 08e7 16       		.uleb128 0x16
 2041 08e8 59000000 		.4byte	.LASF261
 2042 08ec 01       		.byte	0x1
 2043 08ed B2       		.byte	0xb2
 2044 08ee 1D090000 		.4byte	0x91d
 2045 08f2 02       		.uleb128 0x2
 2046 08f3 91       		.byte	0x91
 2047 08f4 64       		.sleb128 -28
 2048 08f5 17       		.uleb128 0x17
 2049 08f6 3F1C0000 		.4byte	.LASF257
 2050 08fa 01       		.byte	0x1
 2051 08fb B4       		.byte	0xb4
 2052 08fc AD060000 		.4byte	0x6ad
 2053 0900 02       		.uleb128 0x2
 2054 0901 91       		.byte	0x91
 2055 0902 6F       		.sleb128 -17
 2056 0903 18       		.uleb128 0x18
 2057 0904 58000000 		.4byte	.LBB2
 2058 0908 2C000000 		.4byte	.LBE2-.LBB2
 2059 090c 19       		.uleb128 0x19
 2060 090d 6A120000 		.4byte	.LASF258
 2061 0911 01       		.byte	0x1
 2062 0912 1D01     		.2byte	0x11d
 2063 0914 BF070000 		.4byte	0x7bf
 2064 0918 02       		.uleb128 0x2
 2065 0919 91       		.byte	0x91
 2066 091a 68       		.sleb128 -24
 2067 091b 00       		.byte	0
ARM GAS  C:\Users\Lonnie\AppData\Local\Temp\ccJOwa1B.s 			page 62


 2068 091c 00       		.byte	0
 2069 091d 0F       		.uleb128 0xf
 2070 091e 04       		.byte	0x4
 2071 091f EB070000 		.4byte	0x7eb
 2072 0923 1A       		.uleb128 0x1a
 2073 0924 E0100000 		.4byte	.LASF260
 2074 0928 01       		.byte	0x1
 2075 0929 3D01     		.2byte	0x13d
 2076 092b 00000000 		.4byte	.LFB3
 2077 092f 30000000 		.4byte	.LFE3-.LFB3
 2078 0933 01       		.uleb128 0x1
 2079 0934 9C       		.byte	0x9c
 2080 0935 49090000 		.4byte	0x949
 2081 0939 1B       		.uleb128 0x1b
 2082 093a 59000000 		.4byte	.LASF261
 2083 093e 01       		.byte	0x1
 2084 093f 3D01     		.2byte	0x13d
 2085 0941 49090000 		.4byte	0x949
 2086 0945 02       		.uleb128 0x2
 2087 0946 91       		.byte	0x91
 2088 0947 74       		.sleb128 -12
 2089 0948 00       		.byte	0
 2090 0949 0F       		.uleb128 0xf
 2091 094a 04       		.byte	0x4
 2092 094b 4F090000 		.4byte	0x94f
 2093 094f 1C       		.uleb128 0x1c
 2094 0950 E9060000 		.4byte	0x6e9
 2095 0954 1D       		.uleb128 0x1d
 2096 0955 EC0E0000 		.4byte	.LASF263
 2097 0959 01       		.byte	0x1
 2098 095a 0502     		.2byte	0x205
 2099 095c 00000000 		.4byte	.LFB4
 2100 0960 18000000 		.4byte	.LFE4-.LFB4
 2101 0964 01       		.uleb128 0x1
 2102 0965 9C       		.byte	0x9c
 2103 0966 1E       		.uleb128 0x1e
 2104 0967 A8170000 		.4byte	.LASF262
 2105 096b 01       		.byte	0x1
 2106 096c 3B02     		.2byte	0x23b
 2107 096e 00000000 		.4byte	.LFB5
 2108 0972 0E000000 		.4byte	.LFE5-.LFB5
 2109 0976 01       		.uleb128 0x1
 2110 0977 9C       		.byte	0x9c
 2111 0978 8C090000 		.4byte	0x98c
 2112 097c 1B       		.uleb128 0x1b
 2113 097d 59000000 		.4byte	.LASF261
 2114 0981 01       		.byte	0x1
 2115 0982 3B02     		.2byte	0x23b
 2116 0984 8C090000 		.4byte	0x98c
 2117 0988 02       		.uleb128 0x2
 2118 0989 91       		.byte	0x91
 2119 098a 74       		.sleb128 -12
 2120 098b 00       		.byte	0
 2121 098c 0F       		.uleb128 0xf
 2122 098d 04       		.byte	0x4
 2123 098e 92090000 		.4byte	0x992
 2124 0992 1C       		.uleb128 0x1c
ARM GAS  C:\Users\Lonnie\AppData\Local\Temp\ccJOwa1B.s 			page 63


 2125 0993 F6030000 		.4byte	0x3f6
 2126 0997 1D       		.uleb128 0x1d
 2127 0998 8C0E0000 		.4byte	.LASF264
 2128 099c 01       		.byte	0x1
 2129 099d 7702     		.2byte	0x277
 2130 099f 00000000 		.4byte	.LFB6
 2131 09a3 08000000 		.4byte	.LFE6-.LFB6
 2132 09a7 01       		.uleb128 0x1
 2133 09a8 9C       		.byte	0x9c
 2134 09a9 1F       		.uleb128 0x1f
 2135 09aa 06130000 		.4byte	.LASF288
 2136 09ae 01       		.byte	0x1
 2137 09af A102     		.2byte	0x2a1
 2138 09b1 6B000000 		.4byte	0x6b
 2139 09b5 00000000 		.4byte	.LFB7
 2140 09b9 60000000 		.4byte	.LFE7-.LFB7
 2141 09bd 01       		.uleb128 0x1
 2142 09be 9C       		.byte	0x9c
 2143 09bf EF090000 		.4byte	0x9ef
 2144 09c3 1B       		.uleb128 0x1b
 2145 09c4 1E0F0000 		.4byte	.LASF265
 2146 09c8 01       		.byte	0x1
 2147 09c9 A102     		.2byte	0x2a1
 2148 09cb EF090000 		.4byte	0x9ef
 2149 09cf 02       		.uleb128 0x2
 2150 09d0 91       		.byte	0x91
 2151 09d1 6C       		.sleb128 -20
 2152 09d2 20       		.uleb128 0x20
 2153 09d3 6900     		.ascii	"i\000"
 2154 09d5 01       		.byte	0x1
 2155 09d6 A302     		.2byte	0x2a3
 2156 09d8 6B000000 		.4byte	0x6b
 2157 09dc 02       		.uleb128 0x2
 2158 09dd 91       		.byte	0x91
 2159 09de 77       		.sleb128 -9
 2160 09df 19       		.uleb128 0x19
 2161 09e0 D8150000 		.4byte	.LASF266
 2162 09e4 01       		.byte	0x1
 2163 09e5 A402     		.2byte	0x2a4
 2164 09e7 6B000000 		.4byte	0x6b
 2165 09eb 02       		.uleb128 0x2
 2166 09ec 91       		.byte	0x91
 2167 09ed 76       		.sleb128 -10
 2168 09ee 00       		.byte	0
 2169 09ef 0F       		.uleb128 0xf
 2170 09f0 04       		.byte	0x4
 2171 09f1 F5090000 		.4byte	0x9f5
 2172 09f5 1C       		.uleb128 0x1c
 2173 09f6 C9030000 		.4byte	0x3c9
 2174 09fa 1E       		.uleb128 0x1e
 2175 09fb DA180000 		.4byte	.LASF267
 2176 09ff 01       		.byte	0x1
 2177 0a00 C702     		.2byte	0x2c7
 2178 0a02 00000000 		.4byte	.LFB8
 2179 0a06 12000000 		.4byte	.LFE8-.LFB8
 2180 0a0a 01       		.uleb128 0x1
 2181 0a0b 9C       		.byte	0x9c
ARM GAS  C:\Users\Lonnie\AppData\Local\Temp\ccJOwa1B.s 			page 64


 2182 0a0c 200A0000 		.4byte	0xa20
 2183 0a10 1B       		.uleb128 0x1b
 2184 0a11 AC1A0000 		.4byte	.LASF268
 2185 0a15 01       		.byte	0x1
 2186 0a16 C702     		.2byte	0x2c7
 2187 0a18 76000000 		.4byte	0x76
 2188 0a1c 02       		.uleb128 0x2
 2189 0a1d 91       		.byte	0x91
 2190 0a1e 76       		.sleb128 -10
 2191 0a1f 00       		.byte	0
 2192 0a20 1E       		.uleb128 0x1e
 2193 0a21 BF0A0000 		.4byte	.LASF269
 2194 0a25 01       		.byte	0x1
 2195 0a26 E302     		.2byte	0x2e3
 2196 0a28 00000000 		.4byte	.LFB9
 2197 0a2c 0E000000 		.4byte	.LFE9-.LFB9
 2198 0a30 01       		.uleb128 0x1
 2199 0a31 9C       		.byte	0x9c
 2200 0a32 460A0000 		.4byte	0xa46
 2201 0a36 1B       		.uleb128 0x1b
 2202 0a37 59000000 		.4byte	.LASF261
 2203 0a3b 01       		.byte	0x1
 2204 0a3c E302     		.2byte	0x2e3
 2205 0a3e 460A0000 		.4byte	0xa46
 2206 0a42 02       		.uleb128 0x2
 2207 0a43 91       		.byte	0x91
 2208 0a44 74       		.sleb128 -12
 2209 0a45 00       		.byte	0
 2210 0a46 0F       		.uleb128 0xf
 2211 0a47 04       		.byte	0x4
 2212 0a48 4C0A0000 		.4byte	0xa4c
 2213 0a4c 1C       		.uleb128 0x1c
 2214 0a4d 3A050000 		.4byte	0x53a
 2215 0a51 21       		.uleb128 0x21
 2216 0a52 BC060000 		.4byte	.LASF289
 2217 0a56 01       		.byte	0x1
 2218 0a57 FF02     		.2byte	0x2ff
 2219 0a59 00000000 		.4byte	.LFB10
 2220 0a5d 10030000 		.4byte	.LFE10-.LFB10
 2221 0a61 01       		.uleb128 0x1
 2222 0a62 9C       		.byte	0x9c
 2223 0a63 BC0A0000 		.4byte	0xabc
 2224 0a67 1B       		.uleb128 0x1b
 2225 0a68 441B0000 		.4byte	.LASF270
 2226 0a6c 01       		.byte	0x1
 2227 0a6d FF02     		.2byte	0x2ff
 2228 0a6f 6B000000 		.4byte	0x6b
 2229 0a73 02       		.uleb128 0x2
 2230 0a74 91       		.byte	0x91
 2231 0a75 6F       		.sleb128 -17
 2232 0a76 1B       		.uleb128 0x1b
 2233 0a77 59000000 		.4byte	.LASF261
 2234 0a7b 01       		.byte	0x1
 2235 0a7c FF02     		.2byte	0x2ff
 2236 0a7e AD000000 		.4byte	0xad
 2237 0a82 02       		.uleb128 0x2
 2238 0a83 91       		.byte	0x91
ARM GAS  C:\Users\Lonnie\AppData\Local\Temp\ccJOwa1B.s 			page 65


 2239 0a84 68       		.sleb128 -24
 2240 0a85 22       		.uleb128 0x22
 2241 0a86 92000000 		.4byte	.LBB3
 2242 0a8a 2C000000 		.4byte	.LBE3-.LBB3
 2243 0a8e A20A0000 		.4byte	0xaa2
 2244 0a92 19       		.uleb128 0x19
 2245 0a93 3C160000 		.4byte	.LASF271
 2246 0a97 01       		.byte	0x1
 2247 0a98 0C03     		.2byte	0x30c
 2248 0a9a 89030000 		.4byte	0x389
 2249 0a9e 02       		.uleb128 0x2
 2250 0a9f 91       		.byte	0x91
 2251 0aa0 74       		.sleb128 -12
 2252 0aa1 00       		.byte	0
 2253 0aa2 18       		.uleb128 0x18
 2254 0aa3 3E020000 		.4byte	.LBB4
 2255 0aa7 38000000 		.4byte	.LBE4-.LBB4
 2256 0aab 19       		.uleb128 0x19
 2257 0aac FC0D0000 		.4byte	.LASF272
 2258 0ab0 01       		.byte	0x1
 2259 0ab1 D403     		.2byte	0x3d4
 2260 0ab3 76000000 		.4byte	0x76
 2261 0ab7 02       		.uleb128 0x2
 2262 0ab8 91       		.byte	0x91
 2263 0ab9 76       		.sleb128 -10
 2264 0aba 00       		.byte	0
 2265 0abb 00       		.byte	0
 2266 0abc 23       		.uleb128 0x23
 2267 0abd 99160000 		.4byte	.LASF273
 2268 0ac1 08       		.byte	0x8
 2269 0ac2 6401     		.2byte	0x164
 2270 0ac4 F6070000 		.4byte	0x7f6
 2271 0ac8 24       		.uleb128 0x24
 2272 0ac9 92090000 		.4byte	.LASF274
 2273 0acd 01       		.byte	0x1
 2274 0ace 38       		.byte	0x38
 2275 0acf A1000000 		.4byte	0xa1
 2276 0ad3 05       		.uleb128 0x5
 2277 0ad4 03       		.byte	0x3
 2278 0ad5 00000000 		.4byte	cyBle_eventHandlerFlag
 2279 0ad9 23       		.uleb128 0x23
 2280 0ada 39050000 		.4byte	.LASF275
 2281 0ade 08       		.byte	0x8
 2282 0adf 6701     		.2byte	0x167
 2283 0ae1 C9030000 		.4byte	0x3c9
 2284 0ae5 23       		.uleb128 0x23
 2285 0ae6 220B0000 		.4byte	.LASF276
 2286 0aea 08       		.byte	0x8
 2287 0aeb 6801     		.2byte	0x168
 2288 0aed F10A0000 		.4byte	0xaf1
 2289 0af1 0F       		.uleb128 0xf
 2290 0af2 04       		.byte	0x4
 2291 0af3 C9030000 		.4byte	0x3c9
 2292 0af7 24       		.uleb128 0x24
 2293 0af8 C2180000 		.4byte	.LASF277
 2294 0afc 01       		.byte	0x1
 2295 0afd 99       		.byte	0x99
ARM GAS  C:\Users\Lonnie\AppData\Local\Temp\ccJOwa1B.s 			page 66


 2296 0afe EA040000 		.4byte	0x4ea
 2297 0b02 05       		.uleb128 0x5
 2298 0b03 03       		.byte	0x3
 2299 0b04 00000000 		.4byte	cyBle_authInfo
 2300 0b08 23       		.uleb128 0x23
 2301 0b09 FE170000 		.4byte	.LASF278
 2302 0b0d 08       		.byte	0x8
 2303 0b0e 7D01     		.2byte	0x17d
 2304 0b10 6B000000 		.4byte	0x6b
 2305 0b14 0D       		.uleb128 0xd
 2306 0b15 6B000000 		.4byte	0x6b
 2307 0b19 240B0000 		.4byte	0xb24
 2308 0b1d 0E       		.uleb128 0xe
 2309 0b1e A6000000 		.4byte	0xa6
 2310 0b22 07       		.byte	0x7
 2311 0b23 00       		.byte	0
 2312 0b24 25       		.uleb128 0x25
 2313 0b25 0F1B0000 		.4byte	.LASF279
 2314 0b29 0C       		.byte	0xc
 2315 0b2a B7       		.byte	0xb7
 2316 0b2b 140B0000 		.4byte	0xb14
 2317 0b2f 0D       		.uleb128 0xd
 2318 0b30 6B000000 		.4byte	0x6b
 2319 0b34 450B0000 		.4byte	0xb45
 2320 0b38 0E       		.uleb128 0xe
 2321 0b39 A6000000 		.4byte	0xa6
 2322 0b3d 04       		.byte	0x4
 2323 0b3e 0E       		.uleb128 0xe
 2324 0b3f A6000000 		.4byte	0xa6
 2325 0b43 07       		.byte	0x7
 2326 0b44 00       		.byte	0
 2327 0b45 25       		.uleb128 0x25
 2328 0b46 FA000000 		.4byte	.LASF280
 2329 0b4a 0C       		.byte	0xc
 2330 0b4b B8       		.byte	0xb8
 2331 0b4c 500B0000 		.4byte	0xb50
 2332 0b50 1C       		.uleb128 0x1c
 2333 0b51 2F0B0000 		.4byte	0xb2f
 2334 0b55 23       		.uleb128 0x23
 2335 0b56 55180000 		.4byte	.LASF281
 2336 0b5a 0B       		.byte	0xb
 2337 0b5b 6406     		.2byte	0x664
 2338 0b5d C6080000 		.4byte	0x8c6
 2339 0b61 24       		.uleb128 0x24
 2340 0b62 670A0000 		.4byte	.LASF282
 2341 0b66 01       		.byte	0x1
 2342 0b67 39       		.byte	0x39
 2343 0b68 E9060000 		.4byte	0x6e9
 2344 0b6c 05       		.uleb128 0x5
 2345 0b6d 03       		.byte	0x3
 2346 0b6e 00000000 		.4byte	cyBle_connHandle
 2347 0b72 24       		.uleb128 0x24
 2348 0b73 7F1C0000 		.4byte	.LASF283
 2349 0b77 01       		.byte	0x1
 2350 0b78 3A       		.byte	0x3a
 2351 0b79 A1000000 		.4byte	0xa1
 2352 0b7d 05       		.uleb128 0x5
ARM GAS  C:\Users\Lonnie\AppData\Local\Temp\ccJOwa1B.s 			page 67


 2353 0b7e 03       		.byte	0x3
 2354 0b7f 00000000 		.4byte	cyBle_busStatus
 2355 0b83 24       		.uleb128 0x24
 2356 0b84 5E1A0000 		.4byte	.LASF284
 2357 0b88 01       		.byte	0x1
 2358 0b89 3D       		.byte	0x3d
 2359 0b8a 6B000000 		.4byte	0x6b
 2360 0b8e 05       		.uleb128 0x5
 2361 0b8f 03       		.byte	0x3
 2362 0b90 00000000 		.4byte	cyBle_advertisingIntervalType
 2363 0b94 00       		.byte	0
 2364              		.section	.debug_abbrev,"",%progbits
 2365              	.Ldebug_abbrev0:
 2366 0000 01       		.uleb128 0x1
 2367 0001 11       		.uleb128 0x11
 2368 0002 01       		.byte	0x1
 2369 0003 25       		.uleb128 0x25
 2370 0004 0E       		.uleb128 0xe
 2371 0005 13       		.uleb128 0x13
 2372 0006 0B       		.uleb128 0xb
 2373 0007 03       		.uleb128 0x3
 2374 0008 0E       		.uleb128 0xe
 2375 0009 1B       		.uleb128 0x1b
 2376 000a 0E       		.uleb128 0xe
 2377 000b 55       		.uleb128 0x55
 2378 000c 17       		.uleb128 0x17
 2379 000d 11       		.uleb128 0x11
 2380 000e 01       		.uleb128 0x1
 2381 000f 10       		.uleb128 0x10
 2382 0010 17       		.uleb128 0x17
 2383 0011 00       		.byte	0
 2384 0012 00       		.byte	0
 2385 0013 02       		.uleb128 0x2
 2386 0014 24       		.uleb128 0x24
 2387 0015 00       		.byte	0
 2388 0016 0B       		.uleb128 0xb
 2389 0017 0B       		.uleb128 0xb
 2390 0018 3E       		.uleb128 0x3e
 2391 0019 0B       		.uleb128 0xb
 2392 001a 03       		.uleb128 0x3
 2393 001b 0E       		.uleb128 0xe
 2394 001c 00       		.byte	0
 2395 001d 00       		.byte	0
 2396 001e 03       		.uleb128 0x3
 2397 001f 24       		.uleb128 0x24
 2398 0020 00       		.byte	0
 2399 0021 0B       		.uleb128 0xb
 2400 0022 0B       		.uleb128 0xb
 2401 0023 3E       		.uleb128 0x3e
 2402 0024 0B       		.uleb128 0xb
 2403 0025 03       		.uleb128 0x3
 2404 0026 08       		.uleb128 0x8
 2405 0027 00       		.byte	0
 2406 0028 00       		.byte	0
 2407 0029 04       		.uleb128 0x4
 2408 002a 16       		.uleb128 0x16
 2409 002b 00       		.byte	0
ARM GAS  C:\Users\Lonnie\AppData\Local\Temp\ccJOwa1B.s 			page 68


 2410 002c 03       		.uleb128 0x3
 2411 002d 0E       		.uleb128 0xe
 2412 002e 3A       		.uleb128 0x3a
 2413 002f 0B       		.uleb128 0xb
 2414 0030 3B       		.uleb128 0x3b
 2415 0031 0B       		.uleb128 0xb
 2416 0032 49       		.uleb128 0x49
 2417 0033 13       		.uleb128 0x13
 2418 0034 00       		.byte	0
 2419 0035 00       		.byte	0
 2420 0036 05       		.uleb128 0x5
 2421 0037 35       		.uleb128 0x35
 2422 0038 00       		.byte	0
 2423 0039 49       		.uleb128 0x49
 2424 003a 13       		.uleb128 0x13
 2425 003b 00       		.byte	0
 2426 003c 00       		.byte	0
 2427 003d 06       		.uleb128 0x6
 2428 003e 0F       		.uleb128 0xf
 2429 003f 00       		.byte	0
 2430 0040 0B       		.uleb128 0xb
 2431 0041 0B       		.uleb128 0xb
 2432 0042 00       		.byte	0
 2433 0043 00       		.byte	0
 2434 0044 07       		.uleb128 0x7
 2435 0045 04       		.uleb128 0x4
 2436 0046 01       		.byte	0x1
 2437 0047 0B       		.uleb128 0xb
 2438 0048 0B       		.uleb128 0xb
 2439 0049 3A       		.uleb128 0x3a
 2440 004a 0B       		.uleb128 0xb
 2441 004b 3B       		.uleb128 0x3b
 2442 004c 0B       		.uleb128 0xb
 2443 004d 01       		.uleb128 0x1
 2444 004e 13       		.uleb128 0x13
 2445 004f 00       		.byte	0
 2446 0050 00       		.byte	0
 2447 0051 08       		.uleb128 0x8
 2448 0052 28       		.uleb128 0x28
 2449 0053 00       		.byte	0
 2450 0054 03       		.uleb128 0x3
 2451 0055 0E       		.uleb128 0xe
 2452 0056 1C       		.uleb128 0x1c
 2453 0057 0D       		.uleb128 0xd
 2454 0058 00       		.byte	0
 2455 0059 00       		.byte	0
 2456 005a 09       		.uleb128 0x9
 2457 005b 04       		.uleb128 0x4
 2458 005c 01       		.byte	0x1
 2459 005d 0B       		.uleb128 0xb
 2460 005e 0B       		.uleb128 0xb
 2461 005f 3A       		.uleb128 0x3a
 2462 0060 0B       		.uleb128 0xb
 2463 0061 3B       		.uleb128 0x3b
 2464 0062 05       		.uleb128 0x5
 2465 0063 01       		.uleb128 0x1
 2466 0064 13       		.uleb128 0x13
ARM GAS  C:\Users\Lonnie\AppData\Local\Temp\ccJOwa1B.s 			page 69


 2467 0065 00       		.byte	0
 2468 0066 00       		.byte	0
 2469 0067 0A       		.uleb128 0xa
 2470 0068 16       		.uleb128 0x16
 2471 0069 00       		.byte	0
 2472 006a 03       		.uleb128 0x3
 2473 006b 0E       		.uleb128 0xe
 2474 006c 3A       		.uleb128 0x3a
 2475 006d 0B       		.uleb128 0xb
 2476 006e 3B       		.uleb128 0x3b
 2477 006f 05       		.uleb128 0x5
 2478 0070 49       		.uleb128 0x49
 2479 0071 13       		.uleb128 0x13
 2480 0072 00       		.byte	0
 2481 0073 00       		.byte	0
 2482 0074 0B       		.uleb128 0xb
 2483 0075 13       		.uleb128 0x13
 2484 0076 01       		.byte	0x1
 2485 0077 0B       		.uleb128 0xb
 2486 0078 0B       		.uleb128 0xb
 2487 0079 3A       		.uleb128 0x3a
 2488 007a 0B       		.uleb128 0xb
 2489 007b 3B       		.uleb128 0x3b
 2490 007c 05       		.uleb128 0x5
 2491 007d 01       		.uleb128 0x1
 2492 007e 13       		.uleb128 0x13
 2493 007f 00       		.byte	0
 2494 0080 00       		.byte	0
 2495 0081 0C       		.uleb128 0xc
 2496 0082 0D       		.uleb128 0xd
 2497 0083 00       		.byte	0
 2498 0084 03       		.uleb128 0x3
 2499 0085 0E       		.uleb128 0xe
 2500 0086 3A       		.uleb128 0x3a
 2501 0087 0B       		.uleb128 0xb
 2502 0088 3B       		.uleb128 0x3b
 2503 0089 05       		.uleb128 0x5
 2504 008a 49       		.uleb128 0x49
 2505 008b 13       		.uleb128 0x13
 2506 008c 38       		.uleb128 0x38
 2507 008d 0B       		.uleb128 0xb
 2508 008e 00       		.byte	0
 2509 008f 00       		.byte	0
 2510 0090 0D       		.uleb128 0xd
 2511 0091 01       		.uleb128 0x1
 2512 0092 01       		.byte	0x1
 2513 0093 49       		.uleb128 0x49
 2514 0094 13       		.uleb128 0x13
 2515 0095 01       		.uleb128 0x1
 2516 0096 13       		.uleb128 0x13
 2517 0097 00       		.byte	0
 2518 0098 00       		.byte	0
 2519 0099 0E       		.uleb128 0xe
 2520 009a 21       		.uleb128 0x21
 2521 009b 00       		.byte	0
 2522 009c 49       		.uleb128 0x49
 2523 009d 13       		.uleb128 0x13
ARM GAS  C:\Users\Lonnie\AppData\Local\Temp\ccJOwa1B.s 			page 70


 2524 009e 2F       		.uleb128 0x2f
 2525 009f 0B       		.uleb128 0xb
 2526 00a0 00       		.byte	0
 2527 00a1 00       		.byte	0
 2528 00a2 0F       		.uleb128 0xf
 2529 00a3 0F       		.uleb128 0xf
 2530 00a4 00       		.byte	0
 2531 00a5 0B       		.uleb128 0xb
 2532 00a6 0B       		.uleb128 0xb
 2533 00a7 49       		.uleb128 0x49
 2534 00a8 13       		.uleb128 0x13
 2535 00a9 00       		.byte	0
 2536 00aa 00       		.byte	0
 2537 00ab 10       		.uleb128 0x10
 2538 00ac 0D       		.uleb128 0xd
 2539 00ad 00       		.byte	0
 2540 00ae 03       		.uleb128 0x3
 2541 00af 08       		.uleb128 0x8
 2542 00b0 3A       		.uleb128 0x3a
 2543 00b1 0B       		.uleb128 0xb
 2544 00b2 3B       		.uleb128 0x3b
 2545 00b3 05       		.uleb128 0x5
 2546 00b4 49       		.uleb128 0x49
 2547 00b5 13       		.uleb128 0x13
 2548 00b6 38       		.uleb128 0x38
 2549 00b7 0B       		.uleb128 0xb
 2550 00b8 00       		.byte	0
 2551 00b9 00       		.byte	0
 2552 00ba 11       		.uleb128 0x11
 2553 00bb 13       		.uleb128 0x13
 2554 00bc 01       		.byte	0x1
 2555 00bd 0B       		.uleb128 0xb
 2556 00be 0B       		.uleb128 0xb
 2557 00bf 3A       		.uleb128 0x3a
 2558 00c0 0B       		.uleb128 0xb
 2559 00c1 3B       		.uleb128 0x3b
 2560 00c2 0B       		.uleb128 0xb
 2561 00c3 01       		.uleb128 0x1
 2562 00c4 13       		.uleb128 0x13
 2563 00c5 00       		.byte	0
 2564 00c6 00       		.byte	0
 2565 00c7 12       		.uleb128 0x12
 2566 00c8 0D       		.uleb128 0xd
 2567 00c9 00       		.byte	0
 2568 00ca 03       		.uleb128 0x3
 2569 00cb 0E       		.uleb128 0xe
 2570 00cc 3A       		.uleb128 0x3a
 2571 00cd 0B       		.uleb128 0xb
 2572 00ce 3B       		.uleb128 0x3b
 2573 00cf 0B       		.uleb128 0xb
 2574 00d0 49       		.uleb128 0x49
 2575 00d1 13       		.uleb128 0x13
 2576 00d2 38       		.uleb128 0x38
 2577 00d3 0B       		.uleb128 0xb
 2578 00d4 00       		.byte	0
 2579 00d5 00       		.byte	0
 2580 00d6 13       		.uleb128 0x13
ARM GAS  C:\Users\Lonnie\AppData\Local\Temp\ccJOwa1B.s 			page 71


 2581 00d7 15       		.uleb128 0x15
 2582 00d8 01       		.byte	0x1
 2583 00d9 27       		.uleb128 0x27
 2584 00da 19       		.uleb128 0x19
 2585 00db 01       		.uleb128 0x1
 2586 00dc 13       		.uleb128 0x13
 2587 00dd 00       		.byte	0
 2588 00de 00       		.byte	0
 2589 00df 14       		.uleb128 0x14
 2590 00e0 05       		.uleb128 0x5
 2591 00e1 00       		.byte	0
 2592 00e2 49       		.uleb128 0x49
 2593 00e3 13       		.uleb128 0x13
 2594 00e4 00       		.byte	0
 2595 00e5 00       		.byte	0
 2596 00e6 15       		.uleb128 0x15
 2597 00e7 2E       		.uleb128 0x2e
 2598 00e8 01       		.byte	0x1
 2599 00e9 03       		.uleb128 0x3
 2600 00ea 0E       		.uleb128 0xe
 2601 00eb 3A       		.uleb128 0x3a
 2602 00ec 0B       		.uleb128 0xb
 2603 00ed 3B       		.uleb128 0x3b
 2604 00ee 0B       		.uleb128 0xb
 2605 00ef 27       		.uleb128 0x27
 2606 00f0 19       		.uleb128 0x19
 2607 00f1 11       		.uleb128 0x11
 2608 00f2 01       		.uleb128 0x1
 2609 00f3 12       		.uleb128 0x12
 2610 00f4 06       		.uleb128 0x6
 2611 00f5 40       		.uleb128 0x40
 2612 00f6 18       		.uleb128 0x18
 2613 00f7 9642     		.uleb128 0x2116
 2614 00f9 19       		.uleb128 0x19
 2615 00fa 01       		.uleb128 0x1
 2616 00fb 13       		.uleb128 0x13
 2617 00fc 00       		.byte	0
 2618 00fd 00       		.byte	0
 2619 00fe 16       		.uleb128 0x16
 2620 00ff 05       		.uleb128 0x5
 2621 0100 00       		.byte	0
 2622 0101 03       		.uleb128 0x3
 2623 0102 0E       		.uleb128 0xe
 2624 0103 3A       		.uleb128 0x3a
 2625 0104 0B       		.uleb128 0xb
 2626 0105 3B       		.uleb128 0x3b
 2627 0106 0B       		.uleb128 0xb
 2628 0107 49       		.uleb128 0x49
 2629 0108 13       		.uleb128 0x13
 2630 0109 02       		.uleb128 0x2
 2631 010a 18       		.uleb128 0x18
 2632 010b 00       		.byte	0
 2633 010c 00       		.byte	0
 2634 010d 17       		.uleb128 0x17
 2635 010e 34       		.uleb128 0x34
 2636 010f 00       		.byte	0
 2637 0110 03       		.uleb128 0x3
ARM GAS  C:\Users\Lonnie\AppData\Local\Temp\ccJOwa1B.s 			page 72


 2638 0111 0E       		.uleb128 0xe
 2639 0112 3A       		.uleb128 0x3a
 2640 0113 0B       		.uleb128 0xb
 2641 0114 3B       		.uleb128 0x3b
 2642 0115 0B       		.uleb128 0xb
 2643 0116 49       		.uleb128 0x49
 2644 0117 13       		.uleb128 0x13
 2645 0118 02       		.uleb128 0x2
 2646 0119 18       		.uleb128 0x18
 2647 011a 00       		.byte	0
 2648 011b 00       		.byte	0
 2649 011c 18       		.uleb128 0x18
 2650 011d 0B       		.uleb128 0xb
 2651 011e 01       		.byte	0x1
 2652 011f 11       		.uleb128 0x11
 2653 0120 01       		.uleb128 0x1
 2654 0121 12       		.uleb128 0x12
 2655 0122 06       		.uleb128 0x6
 2656 0123 00       		.byte	0
 2657 0124 00       		.byte	0
 2658 0125 19       		.uleb128 0x19
 2659 0126 34       		.uleb128 0x34
 2660 0127 00       		.byte	0
 2661 0128 03       		.uleb128 0x3
 2662 0129 0E       		.uleb128 0xe
 2663 012a 3A       		.uleb128 0x3a
 2664 012b 0B       		.uleb128 0xb
 2665 012c 3B       		.uleb128 0x3b
 2666 012d 05       		.uleb128 0x5
 2667 012e 49       		.uleb128 0x49
 2668 012f 13       		.uleb128 0x13
 2669 0130 02       		.uleb128 0x2
 2670 0131 18       		.uleb128 0x18
 2671 0132 00       		.byte	0
 2672 0133 00       		.byte	0
 2673 0134 1A       		.uleb128 0x1a
 2674 0135 2E       		.uleb128 0x2e
 2675 0136 01       		.byte	0x1
 2676 0137 03       		.uleb128 0x3
 2677 0138 0E       		.uleb128 0xe
 2678 0139 3A       		.uleb128 0x3a
 2679 013a 0B       		.uleb128 0xb
 2680 013b 3B       		.uleb128 0x3b
 2681 013c 05       		.uleb128 0x5
 2682 013d 27       		.uleb128 0x27
 2683 013e 19       		.uleb128 0x19
 2684 013f 11       		.uleb128 0x11
 2685 0140 01       		.uleb128 0x1
 2686 0141 12       		.uleb128 0x12
 2687 0142 06       		.uleb128 0x6
 2688 0143 40       		.uleb128 0x40
 2689 0144 18       		.uleb128 0x18
 2690 0145 9642     		.uleb128 0x2116
 2691 0147 19       		.uleb128 0x19
 2692 0148 01       		.uleb128 0x1
 2693 0149 13       		.uleb128 0x13
 2694 014a 00       		.byte	0
ARM GAS  C:\Users\Lonnie\AppData\Local\Temp\ccJOwa1B.s 			page 73


 2695 014b 00       		.byte	0
 2696 014c 1B       		.uleb128 0x1b
 2697 014d 05       		.uleb128 0x5
 2698 014e 00       		.byte	0
 2699 014f 03       		.uleb128 0x3
 2700 0150 0E       		.uleb128 0xe
 2701 0151 3A       		.uleb128 0x3a
 2702 0152 0B       		.uleb128 0xb
 2703 0153 3B       		.uleb128 0x3b
 2704 0154 05       		.uleb128 0x5
 2705 0155 49       		.uleb128 0x49
 2706 0156 13       		.uleb128 0x13
 2707 0157 02       		.uleb128 0x2
 2708 0158 18       		.uleb128 0x18
 2709 0159 00       		.byte	0
 2710 015a 00       		.byte	0
 2711 015b 1C       		.uleb128 0x1c
 2712 015c 26       		.uleb128 0x26
 2713 015d 00       		.byte	0
 2714 015e 49       		.uleb128 0x49
 2715 015f 13       		.uleb128 0x13
 2716 0160 00       		.byte	0
 2717 0161 00       		.byte	0
 2718 0162 1D       		.uleb128 0x1d
 2719 0163 2E       		.uleb128 0x2e
 2720 0164 00       		.byte	0
 2721 0165 03       		.uleb128 0x3
 2722 0166 0E       		.uleb128 0xe
 2723 0167 3A       		.uleb128 0x3a
 2724 0168 0B       		.uleb128 0xb
 2725 0169 3B       		.uleb128 0x3b
 2726 016a 05       		.uleb128 0x5
 2727 016b 27       		.uleb128 0x27
 2728 016c 19       		.uleb128 0x19
 2729 016d 11       		.uleb128 0x11
 2730 016e 01       		.uleb128 0x1
 2731 016f 12       		.uleb128 0x12
 2732 0170 06       		.uleb128 0x6
 2733 0171 40       		.uleb128 0x40
 2734 0172 18       		.uleb128 0x18
 2735 0173 9742     		.uleb128 0x2117
 2736 0175 19       		.uleb128 0x19
 2737 0176 00       		.byte	0
 2738 0177 00       		.byte	0
 2739 0178 1E       		.uleb128 0x1e
 2740 0179 2E       		.uleb128 0x2e
 2741 017a 01       		.byte	0x1
 2742 017b 03       		.uleb128 0x3
 2743 017c 0E       		.uleb128 0xe
 2744 017d 3A       		.uleb128 0x3a
 2745 017e 0B       		.uleb128 0xb
 2746 017f 3B       		.uleb128 0x3b
 2747 0180 05       		.uleb128 0x5
 2748 0181 27       		.uleb128 0x27
 2749 0182 19       		.uleb128 0x19
 2750 0183 11       		.uleb128 0x11
 2751 0184 01       		.uleb128 0x1
ARM GAS  C:\Users\Lonnie\AppData\Local\Temp\ccJOwa1B.s 			page 74


 2752 0185 12       		.uleb128 0x12
 2753 0186 06       		.uleb128 0x6
 2754 0187 40       		.uleb128 0x40
 2755 0188 18       		.uleb128 0x18
 2756 0189 9742     		.uleb128 0x2117
 2757 018b 19       		.uleb128 0x19
 2758 018c 01       		.uleb128 0x1
 2759 018d 13       		.uleb128 0x13
 2760 018e 00       		.byte	0
 2761 018f 00       		.byte	0
 2762 0190 1F       		.uleb128 0x1f
 2763 0191 2E       		.uleb128 0x2e
 2764 0192 01       		.byte	0x1
 2765 0193 03       		.uleb128 0x3
 2766 0194 0E       		.uleb128 0xe
 2767 0195 3A       		.uleb128 0x3a
 2768 0196 0B       		.uleb128 0xb
 2769 0197 3B       		.uleb128 0x3b
 2770 0198 05       		.uleb128 0x5
 2771 0199 27       		.uleb128 0x27
 2772 019a 19       		.uleb128 0x19
 2773 019b 49       		.uleb128 0x49
 2774 019c 13       		.uleb128 0x13
 2775 019d 11       		.uleb128 0x11
 2776 019e 01       		.uleb128 0x1
 2777 019f 12       		.uleb128 0x12
 2778 01a0 06       		.uleb128 0x6
 2779 01a1 40       		.uleb128 0x40
 2780 01a2 18       		.uleb128 0x18
 2781 01a3 9742     		.uleb128 0x2117
 2782 01a5 19       		.uleb128 0x19
 2783 01a6 01       		.uleb128 0x1
 2784 01a7 13       		.uleb128 0x13
 2785 01a8 00       		.byte	0
 2786 01a9 00       		.byte	0
 2787 01aa 20       		.uleb128 0x20
 2788 01ab 34       		.uleb128 0x34
 2789 01ac 00       		.byte	0
 2790 01ad 03       		.uleb128 0x3
 2791 01ae 08       		.uleb128 0x8
 2792 01af 3A       		.uleb128 0x3a
 2793 01b0 0B       		.uleb128 0xb
 2794 01b1 3B       		.uleb128 0x3b
 2795 01b2 05       		.uleb128 0x5
 2796 01b3 49       		.uleb128 0x49
 2797 01b4 13       		.uleb128 0x13
 2798 01b5 02       		.uleb128 0x2
 2799 01b6 18       		.uleb128 0x18
 2800 01b7 00       		.byte	0
 2801 01b8 00       		.byte	0
 2802 01b9 21       		.uleb128 0x21
 2803 01ba 2E       		.uleb128 0x2e
 2804 01bb 01       		.byte	0x1
 2805 01bc 3F       		.uleb128 0x3f
 2806 01bd 19       		.uleb128 0x19
 2807 01be 03       		.uleb128 0x3
 2808 01bf 0E       		.uleb128 0xe
ARM GAS  C:\Users\Lonnie\AppData\Local\Temp\ccJOwa1B.s 			page 75


 2809 01c0 3A       		.uleb128 0x3a
 2810 01c1 0B       		.uleb128 0xb
 2811 01c2 3B       		.uleb128 0x3b
 2812 01c3 05       		.uleb128 0x5
 2813 01c4 27       		.uleb128 0x27
 2814 01c5 19       		.uleb128 0x19
 2815 01c6 11       		.uleb128 0x11
 2816 01c7 01       		.uleb128 0x1
 2817 01c8 12       		.uleb128 0x12
 2818 01c9 06       		.uleb128 0x6
 2819 01ca 40       		.uleb128 0x40
 2820 01cb 18       		.uleb128 0x18
 2821 01cc 9642     		.uleb128 0x2116
 2822 01ce 19       		.uleb128 0x19
 2823 01cf 01       		.uleb128 0x1
 2824 01d0 13       		.uleb128 0x13
 2825 01d1 00       		.byte	0
 2826 01d2 00       		.byte	0
 2827 01d3 22       		.uleb128 0x22
 2828 01d4 0B       		.uleb128 0xb
 2829 01d5 01       		.byte	0x1
 2830 01d6 11       		.uleb128 0x11
 2831 01d7 01       		.uleb128 0x1
 2832 01d8 12       		.uleb128 0x12
 2833 01d9 06       		.uleb128 0x6
 2834 01da 01       		.uleb128 0x1
 2835 01db 13       		.uleb128 0x13
 2836 01dc 00       		.byte	0
 2837 01dd 00       		.byte	0
 2838 01de 23       		.uleb128 0x23
 2839 01df 34       		.uleb128 0x34
 2840 01e0 00       		.byte	0
 2841 01e1 03       		.uleb128 0x3
 2842 01e2 0E       		.uleb128 0xe
 2843 01e3 3A       		.uleb128 0x3a
 2844 01e4 0B       		.uleb128 0xb
 2845 01e5 3B       		.uleb128 0x3b
 2846 01e6 05       		.uleb128 0x5
 2847 01e7 49       		.uleb128 0x49
 2848 01e8 13       		.uleb128 0x13
 2849 01e9 3F       		.uleb128 0x3f
 2850 01ea 19       		.uleb128 0x19
 2851 01eb 3C       		.uleb128 0x3c
 2852 01ec 19       		.uleb128 0x19
 2853 01ed 00       		.byte	0
 2854 01ee 00       		.byte	0
 2855 01ef 24       		.uleb128 0x24
 2856 01f0 34       		.uleb128 0x34
 2857 01f1 00       		.byte	0
 2858 01f2 03       		.uleb128 0x3
 2859 01f3 0E       		.uleb128 0xe
 2860 01f4 3A       		.uleb128 0x3a
 2861 01f5 0B       		.uleb128 0xb
 2862 01f6 3B       		.uleb128 0x3b
 2863 01f7 0B       		.uleb128 0xb
 2864 01f8 49       		.uleb128 0x49
 2865 01f9 13       		.uleb128 0x13
ARM GAS  C:\Users\Lonnie\AppData\Local\Temp\ccJOwa1B.s 			page 76


 2866 01fa 3F       		.uleb128 0x3f
 2867 01fb 19       		.uleb128 0x19
 2868 01fc 02       		.uleb128 0x2
 2869 01fd 18       		.uleb128 0x18
 2870 01fe 00       		.byte	0
 2871 01ff 00       		.byte	0
 2872 0200 25       		.uleb128 0x25
 2873 0201 34       		.uleb128 0x34
 2874 0202 00       		.byte	0
 2875 0203 03       		.uleb128 0x3
 2876 0204 0E       		.uleb128 0xe
 2877 0205 3A       		.uleb128 0x3a
 2878 0206 0B       		.uleb128 0xb
 2879 0207 3B       		.uleb128 0x3b
 2880 0208 0B       		.uleb128 0xb
 2881 0209 49       		.uleb128 0x49
 2882 020a 13       		.uleb128 0x13
 2883 020b 3F       		.uleb128 0x3f
 2884 020c 19       		.uleb128 0x19
 2885 020d 3C       		.uleb128 0x3c
 2886 020e 19       		.uleb128 0x19
 2887 020f 00       		.byte	0
 2888 0210 00       		.byte	0
 2889 0211 00       		.byte	0
 2890              		.section	.debug_aranges,"",%progbits
 2891 0000 5C000000 		.4byte	0x5c
 2892 0004 0200     		.2byte	0x2
 2893 0006 00000000 		.4byte	.Ldebug_info0
 2894 000a 04       		.byte	0x4
 2895 000b 00       		.byte	0
 2896 000c 0000     		.2byte	0
 2897 000e 0000     		.2byte	0
 2898 0010 00000000 		.4byte	.LFB2
 2899 0014 98000000 		.4byte	.LFE2-.LFB2
 2900 0018 00000000 		.4byte	.LFB3
 2901 001c 30000000 		.4byte	.LFE3-.LFB3
 2902 0020 00000000 		.4byte	.LFB4
 2903 0024 18000000 		.4byte	.LFE4-.LFB4
 2904 0028 00000000 		.4byte	.LFB5
 2905 002c 0E000000 		.4byte	.LFE5-.LFB5
 2906 0030 00000000 		.4byte	.LFB6
 2907 0034 08000000 		.4byte	.LFE6-.LFB6
 2908 0038 00000000 		.4byte	.LFB7
 2909 003c 60000000 		.4byte	.LFE7-.LFB7
 2910 0040 00000000 		.4byte	.LFB8
 2911 0044 12000000 		.4byte	.LFE8-.LFB8
 2912 0048 00000000 		.4byte	.LFB9
 2913 004c 0E000000 		.4byte	.LFE9-.LFB9
 2914 0050 00000000 		.4byte	.LFB10
 2915 0054 10030000 		.4byte	.LFE10-.LFB10
 2916 0058 00000000 		.4byte	0
 2917 005c 00000000 		.4byte	0
 2918              		.section	.debug_ranges,"",%progbits
 2919              	.Ldebug_ranges0:
 2920 0000 00000000 		.4byte	.LFB2
 2921 0004 98000000 		.4byte	.LFE2
 2922 0008 00000000 		.4byte	.LFB3
ARM GAS  C:\Users\Lonnie\AppData\Local\Temp\ccJOwa1B.s 			page 77


 2923 000c 30000000 		.4byte	.LFE3
 2924 0010 00000000 		.4byte	.LFB4
 2925 0014 18000000 		.4byte	.LFE4
 2926 0018 00000000 		.4byte	.LFB5
 2927 001c 0E000000 		.4byte	.LFE5
 2928 0020 00000000 		.4byte	.LFB6
 2929 0024 08000000 		.4byte	.LFE6
 2930 0028 00000000 		.4byte	.LFB7
 2931 002c 60000000 		.4byte	.LFE7
 2932 0030 00000000 		.4byte	.LFB8
 2933 0034 12000000 		.4byte	.LFE8
 2934 0038 00000000 		.4byte	.LFB9
 2935 003c 0E000000 		.4byte	.LFE9
 2936 0040 00000000 		.4byte	.LFB10
 2937 0044 10030000 		.4byte	.LFE10
 2938 0048 00000000 		.4byte	0
 2939 004c 00000000 		.4byte	0
 2940              		.section	.debug_line,"",%progbits
 2941              	.Ldebug_line0:
 2942 0000 5A020000 		.section	.debug_str,"MS",%progbits,1
 2942      0200FA00 
 2942      00000201 
 2942      FB0E0D00 
 2942      01010101 
 2943              	.LASF242:
 2944 0000 4359424C 		.ascii	"CYBLE_DIS_CHAR_COUNT\000"
 2944      455F4449 
 2944      535F4348 
 2944      41525F43 
 2944      4F554E54 
 2945              	.LASF15:
 2946 0015 73697A65 		.ascii	"sizetype\000"
 2946      74797065 
 2946      00
 2947              	.LASF152:
 2948 001e 656B6579 		.ascii	"ekeySize\000"
 2948      53697A65 
 2948      00
 2949              	.LASF186:
 2950 0027 4359424C 		.ascii	"CYBLE_GATT_HANDLE_VALUE_CNF\000"
 2950      455F4741 
 2950      54545F48 
 2950      414E444C 
 2950      455F5641 
 2951              	.LASF259:
 2952 0043 4379426C 		.ascii	"CyBle_WriteReqHandler\000"
 2952      655F5772 
 2952      69746552 
 2952      65714861 
 2952      6E646C65 
 2953              	.LASF261:
 2954 0059 6576656E 		.ascii	"eventParam\000"
 2954      74506172 
 2954      616D00
 2955              	.LASF29:
 2956 0064 4359424C 		.ascii	"CYBLE_EVT_GAP_DEVICE_CONNECTED\000"
 2956      455F4556 
ARM GAS  C:\Users\Lonnie\AppData\Local\Temp\ccJOwa1B.s 			page 78


 2956      545F4741 
 2956      505F4445 
 2956      56494345 
 2957              	.LASF134:
 2958 0083 4359424C 		.ascii	"CYBLE_GAP_IOCAP_NOINPUT_NOOUTPUT\000"
 2958      455F4741 
 2958      505F494F 
 2958      4341505F 
 2958      4E4F494E 
 2959              	.LASF36:
 2960 00a4 4359424C 		.ascii	"CYBLE_EVT_GATT_CONNECT_IND\000"
 2960      455F4556 
 2960      545F4741 
 2960      54545F43 
 2960      4F4E4E45 
 2961              	.LASF249:
 2962 00bf 4359424C 		.ascii	"CYBLE_HTS_VRD\000"
 2962      455F4854 
 2962      535F5652 
 2962      4400
 2963              	.LASF179:
 2964 00cd 4359424C 		.ascii	"CYBLE_GATT_WRITE_CMD\000"
 2964      455F4741 
 2964      54545F57 
 2964      52495445 
 2964      5F434D44 
 2965              	.LASF11:
 2966 00e2 75696E74 		.ascii	"uint32\000"
 2966      333200
 2967              	.LASF116:
 2968 00e9 626C6550 		.ascii	"blePwrLevelInDbm\000"
 2968      77724C65 
 2968      76656C49 
 2968      6E44626D 
 2968      00
 2969              	.LASF280:
 2970 00fa 6379426C 		.ascii	"cyBle_attValuesCCCDFlashMemory\000"
 2970      655F6174 
 2970      7456616C 
 2970      75657343 
 2970      43434446 
 2971              	.LASF191:
 2972 0119 4359424C 		.ascii	"CYBLE_GATT_ERR_READ_NOT_PERMITTED\000"
 2972      455F4741 
 2972      54545F45 
 2972      52525F52 
 2972      4541445F 
 2973              	.LASF206:
 2974 013b 4359424C 		.ascii	"CYBLE_GATT_ERR_INSUFFICIENT_RESOURCE\000"
 2974      455F4741 
 2974      54545F45 
 2974      52525F49 
 2974      4E535546 
 2975              	.LASF248:
 2976 0160 4359424C 		.ascii	"CYBLE_HTS_CCCD\000"
 2976      455F4854 
 2976      535F4343 
ARM GAS  C:\Users\Lonnie\AppData\Local\Temp\ccJOwa1B.s 			page 79


 2976      434400
 2977              	.LASF180:
 2978 016f 4359424C 		.ascii	"CYBLE_GATT_PREPARE_WRITE_REQ\000"
 2978      455F4741 
 2978      54545F50 
 2978      52455041 
 2978      52455F57 
 2979              	.LASF205:
 2980 018c 4359424C 		.ascii	"CYBLE_GATT_ERR_UNSUPPORTED_GROUP_TYPE\000"
 2980      455F4741 
 2980      54545F45 
 2980      52525F55 
 2980      4E535550 
 2981              	.LASF86:
 2982 01b2 4359424C 		.ascii	"CYBLE_ERROR_L2CAP_CONNECTION_ENTITY_NOT_FOUND\000"
 2982      455F4552 
 2982      524F525F 
 2982      4C324341 
 2982      505F434F 
 2983              	.LASF93:
 2984 01e0 4359424C 		.ascii	"CYBLE_ERROR_MIC_AUTH_FAILED\000"
 2984      455F4552 
 2984      524F525F 
 2984      4D49435F 
 2984      41555448 
 2985              	.LASF56:
 2986 01fc 4359424C 		.ascii	"CYBLE_EVT_GATTS_DATA_SIGNED_CMD_REQ\000"
 2986      455F4556 
 2986      545F4741 
 2986      5454535F 
 2986      44415441 
 2987              	.LASF65:
 2988 0220 4359424C 		.ascii	"CYBLE_EVT_L2CAP_CBFC_RX_CREDIT_IND\000"
 2988      455F4556 
 2988      545F4C32 
 2988      4341505F 
 2988      43424643 
 2989              	.LASF221:
 2990 0243 4359424C 		.ascii	"CYBLE_GATT_VALUE_T\000"
 2990      455F4741 
 2990      54545F56 
 2990      414C5545 
 2990      5F5400
 2991              	.LASF174:
 2992 0256 4359424C 		.ascii	"CYBLE_GATT_READ_MULTIPLE_RSP\000"
 2992      455F4741 
 2992      54545F52 
 2992      4541445F 
 2992      4D554C54 
 2993              	.LASF120:
 2994 0273 74797065 		.ascii	"type\000"
 2994      00
 2995              	.LASF126:
 2996 0278 4359424C 		.ascii	"CYBLE_TO_REASON_CODE_T\000"
 2996      455F544F 
 2996      5F524541 
 2996      534F4E5F 
ARM GAS  C:\Users\Lonnie\AppData\Local\Temp\ccJOwa1B.s 			page 80


 2996      434F4445 
 2997              	.LASF147:
 2998 028f 4359424C 		.ascii	"CYBLE_GAP_AUTH_ERROR_AUTHENTICATION_TIMEOUT\000"
 2998      455F4741 
 2998      505F4155 
 2998      54485F45 
 2998      52524F52 
 2999              	.LASF144:
 3000 02bb 4359424C 		.ascii	"CYBLE_GAP_AUTH_ERROR_UNSPECIFIED_REASON\000"
 3000      455F4741 
 3000      505F4155 
 3000      54485F45 
 3000      52524F52 
 3001              	.LASF168:
 3002 02e3 4359424C 		.ascii	"CYBLE_GATT_READ_BY_TYPE_RSP\000"
 3002      455F4741 
 3002      54545F52 
 3002      4541445F 
 3002      42595F54 
 3003              	.LASF232:
 3004 02ff 4359424C 		.ascii	"CYBLE_CALLBACK_T\000"
 3004      455F4341 
 3004      4C4C4241 
 3004      434B5F54 
 3004      00
 3005              	.LASF237:
 3006 0310 4359424C 		.ascii	"CYBLE_DIS_FIRMWARE_REV\000"
 3006      455F4449 
 3006      535F4649 
 3006      524D5741 
 3006      52455F52 
 3007              	.LASF53:
 3008 0327 4359424C 		.ascii	"CYBLE_EVT_GATTC_HANDLE_VALUE_NTF\000"
 3008      455F4556 
 3008      545F4741 
 3008      5454435F 
 3008      48414E44 
 3009              	.LASF23:
 3010 0348 4359424C 		.ascii	"CYBLE_EVT_GAP_AUTH_REQ\000"
 3010      455F4556 
 3010      545F4741 
 3010      505F4155 
 3010      54485F52 
 3011              	.LASF219:
 3012 035f 4359424C 		.ascii	"CYBLE_CONN_HANDLE_T\000"
 3012      455F434F 
 3012      4E4E5F48 
 3012      414E444C 
 3012      455F5400 
 3013              	.LASF81:
 3014 0373 4359424C 		.ascii	"CYBLE_ERROR_BT_ON_NOT_COMPLETED\000"
 3014      455F4552 
 3014      524F525F 
 3014      42545F4F 
 3014      4E5F4E4F 
 3015              	.LASF131:
 3016 0393 4359424C 		.ascii	"CYBLE_GAP_IOCAP_DISPLAY_ONLY\000"
ARM GAS  C:\Users\Lonnie\AppData\Local\Temp\ccJOwa1B.s 			page 81


 3016      455F4741 
 3016      505F494F 
 3016      4341505F 
 3016      44495350 
 3017              	.LASF105:
 3018 03b0 4359424C 		.ascii	"CYBLE_LL_PWR_LVL_NEG_3_DBM\000"
 3018      455F4C4C 
 3018      5F505752 
 3018      5F4C564C 
 3018      5F4E4547 
 3019              	.LASF254:
 3020 03cb 4359424C 		.ascii	"CYBLE_STATE_ADVERTISING\000"
 3020      455F5354 
 3020      4154455F 
 3020      41445645 
 3020      52544953 
 3021              	.LASF217:
 3022 03e3 62644861 		.ascii	"bdHandle\000"
 3022      6E646C65 
 3022      00
 3023              	.LASF137:
 3024 03ec 4359424C 		.ascii	"CYBLE_GAP_AUTH_ERROR_PASSKEY_ENTRY_FAILED\000"
 3024      455F4741 
 3024      505F4155 
 3024      54485F45 
 3024      52524F52 
 3025              	.LASF103:
 3026 0416 4359424C 		.ascii	"CYBLE_LL_PWR_LVL_NEG_12_DBM\000"
 3026      455F4C4C 
 3026      5F505752 
 3026      5F4C564C 
 3026      5F4E4547 
 3027              	.LASF162:
 3028 0432 4359424C 		.ascii	"CYBLE_GATT_XCHNG_MTU_RSP\000"
 3028      455F4741 
 3028      54545F58 
 3028      43484E47 
 3028      5F4D5455 
 3029              	.LASF49:
 3030 044b 4359424C 		.ascii	"CYBLE_EVT_GATTS_WRITE_CMD_REQ\000"
 3030      455F4556 
 3030      545F4741 
 3030      5454535F 
 3030      57524954 
 3031              	.LASF4:
 3032 0469 6C6F6E67 		.ascii	"long int\000"
 3032      20696E74 
 3032      00
 3033              	.LASF245:
 3034 0472 4359424C 		.ascii	"CYBLE_HTS_INTERM_TEMP\000"
 3034      455F4854 
 3034      535F494E 
 3034      5445524D 
 3034      5F54454D 
 3035              	.LASF127:
 3036 0488 4359424C 		.ascii	"CYBLE_GAP_SEC_LEVEL_1\000"
 3036      455F4741 
ARM GAS  C:\Users\Lonnie\AppData\Local\Temp\ccJOwa1B.s 			page 82


 3036      505F5345 
 3036      435F4C45 
 3036      56454C5F 
 3037              	.LASF128:
 3038 049e 4359424C 		.ascii	"CYBLE_GAP_SEC_LEVEL_2\000"
 3038      455F4741 
 3038      505F5345 
 3038      435F4C45 
 3038      56454C5F 
 3039              	.LASF129:
 3040 04b4 4359424C 		.ascii	"CYBLE_GAP_SEC_LEVEL_3\000"
 3040      455F4741 
 3040      505F5345 
 3040      435F4C45 
 3040      56454C5F 
 3041              	.LASF166:
 3042 04ca 4359424C 		.ascii	"CYBLE_GATT_FIND_BY_TYPE_VALUE_RSP\000"
 3042      455F4741 
 3042      54545F46 
 3042      494E445F 
 3042      42595F54 
 3043              	.LASF17:
 3044 04ec 4359424C 		.ascii	"CYBLE_EVT_STACK_ON\000"
 3044      455F4556 
 3044      545F5354 
 3044      41434B5F 
 3044      4F4E00
 3045              	.LASF89:
 3046 04ff 4359424C 		.ascii	"CYBLE_ERROR_L2CAP_PSM_NOT_IN_RANGE\000"
 3046      455F4552 
 3046      524F525F 
 3046      4C324341 
 3046      505F5053 
 3047              	.LASF236:
 3048 0522 4359424C 		.ascii	"CYBLE_DIS_HARDWARE_REV\000"
 3048      455F4449 
 3048      535F4841 
 3048      52445741 
 3048      52455F52 
 3049              	.LASF275:
 3050 0539 6379426C 		.ascii	"cyBle_deviceAddress\000"
 3050      655F6465 
 3050      76696365 
 3050      41646472 
 3050      65737300 
 3051              	.LASF193:
 3052 054d 4359424C 		.ascii	"CYBLE_GATT_ERR_INVALID_PDU\000"
 3052      455F4741 
 3052      54545F45 
 3052      52525F49 
 3052      4E56414C 
 3053              	.LASF286:
 3054 0568 2E5C4765 		.ascii	".\\Generated_Source\\PSoC4\\BLE_eventHandler.c\000"
 3054      6E657261 
 3054      7465645F 
 3054      536F7572 
 3054      63655C50 
ARM GAS  C:\Users\Lonnie\AppData\Local\Temp\ccJOwa1B.s 			page 83


 3055              	.LASF100:
 3056 0594 4359424C 		.ascii	"CYBLE_ERROR_CHAR_IS_NOT_DISCOVERED\000"
 3056      455F4552 
 3056      524F525F 
 3056      43484152 
 3056      5F49535F 
 3057              	.LASF224:
 3058 05b7 4359424C 		.ascii	"CYBLE_GATT_HANDLE_VALUE_PAIR_T\000"
 3058      455F4741 
 3058      54545F48 
 3058      414E444C 
 3058      455F5641 
 3059              	.LASF117:
 3060 05d6 626C6553 		.ascii	"bleSsChId\000"
 3060      73436849 
 3060      6400
 3061              	.LASF59:
 3062 05e0 4359424C 		.ascii	"CYBLE_EVT_L2CAP_COMMAND_REJ\000"
 3062      455F4556 
 3062      545F4C32 
 3062      4341505F 
 3062      434F4D4D 
 3063              	.LASF172:
 3064 05fc 4359424C 		.ascii	"CYBLE_GATT_READ_BLOB_RSP\000"
 3064      455F4741 
 3064      54545F52 
 3064      4541445F 
 3064      424C4F42 
 3065              	.LASF202:
 3066 0615 4359424C 		.ascii	"CYBLE_GATT_ERR_INVALID_ATTRIBUTE_LEN\000"
 3066      455F4741 
 3066      54545F45 
 3066      52525F49 
 3066      4E56414C 
 3067              	.LASF90:
 3068 063a 4359424C 		.ascii	"CYBLE_ERROR_GATT_DB_INVALID_ATTR_HANDLE\000"
 3068      455F4552 
 3068      524F525F 
 3068      47415454 
 3068      5F44425F 
 3069              	.LASF0:
 3070 0662 7369676E 		.ascii	"signed char\000"
 3070      65642063 
 3070      68617200 
 3071              	.LASF102:
 3072 066e 4359424C 		.ascii	"CYBLE_LL_PWR_LVL_NEG_18_DBM\000"
 3072      455F4C4C 
 3072      5F505752 
 3072      5F4C564C 
 3072      5F4E4547 
 3073              	.LASF163:
 3074 068a 4359424C 		.ascii	"CYBLE_GATT_FIND_INFO_REQ\000"
 3074      455F4741 
 3074      54545F46 
 3074      494E445F 
 3074      494E464F 
 3075              	.LASF19:
ARM GAS  C:\Users\Lonnie\AppData\Local\Temp\ccJOwa1B.s 			page 84


 3076 06a3 4359424C 		.ascii	"CYBLE_EVT_HARDWARE_ERROR\000"
 3076      455F4556 
 3076      545F4841 
 3076      52445741 
 3076      52455F45 
 3077              	.LASF289:
 3078 06bc 4379426C 		.ascii	"CyBle_EventHandler\000"
 3078      655F4576 
 3078      656E7448 
 3078      616E646C 
 3078      657200
 3079              	.LASF70:
 3080 06cf 4359424C 		.ascii	"CYBLE_ERROR_OK\000"
 3080      455F4552 
 3080      524F525F 
 3080      4F4B00
 3081              	.LASF115:
 3082 06de 4359424C 		.ascii	"CYBLE_BLESS_PHY_CH_GRP_ID_T\000"
 3082      455F424C 
 3082      4553535F 
 3082      5048595F 
 3082      43485F47 
 3083              	.LASF212:
 3084 06fa 4359424C 		.ascii	"CYBLE_GATT_ERR_CCCD_IMPROPERLY_CONFIGURED\000"
 3084      455F4741 
 3084      54545F45 
 3084      52525F43 
 3084      4343445F 
 3085              	.LASF40:
 3086 0724 4359424C 		.ascii	"CYBLE_EVT_GATTC_READ_BY_GROUP_TYPE_RSP\000"
 3086      455F4556 
 3086      545F4741 
 3086      5454435F 
 3086      52454144 
 3087              	.LASF251:
 3088 074b 4359424C 		.ascii	"CYBLE_STATE_STOPPED\000"
 3088      455F5354 
 3088      4154455F 
 3088      53544F50 
 3088      50454400 
 3089              	.LASF229:
 3090 075f 4359424C 		.ascii	"CYBLE_GATTS_ERR_PARAM_T\000"
 3090      455F4741 
 3090      5454535F 
 3090      4552525F 
 3090      50415241 
 3091              	.LASF1:
 3092 0777 756E7369 		.ascii	"unsigned char\000"
 3092      676E6564 
 3092      20636861 
 3092      7200
 3093              	.LASF39:
 3094 0785 4359424C 		.ascii	"CYBLE_EVT_GATTC_XCHNG_MTU_RSP\000"
 3094      455F4556 
 3094      545F4741 
 3094      5454435F 
 3094      5843484E 
ARM GAS  C:\Users\Lonnie\AppData\Local\Temp\ccJOwa1B.s 			page 85


 3095              	.LASF185:
 3096 07a3 4359424C 		.ascii	"CYBLE_GATT_HANDLE_VALUE_IND\000"
 3096      455F4741 
 3096      54545F48 
 3096      414E444C 
 3096      455F5641 
 3097              	.LASF66:
 3098 07bf 4359424C 		.ascii	"CYBLE_EVT_L2CAP_CBFC_TX_CREDIT_IND\000"
 3098      455F4556 
 3098      545F4C32 
 3098      4341505F 
 3098      43424643 
 3099              	.LASF88:
 3100 07e2 4359424C 		.ascii	"CYBLE_ERROR_L2CAP_NOT_ENOUGH_CREDITS\000"
 3100      455F4552 
 3100      524F525F 
 3100      4C324341 
 3100      505F4E4F 
 3101              	.LASF228:
 3102 0807 6572726F 		.ascii	"errorCode\000"
 3102      72436F64 
 3102      6500
 3103              	.LASF146:
 3104 0811 4359424C 		.ascii	"CYBLE_GAP_AUTH_ERROR_INVALID_PARAMETERS\000"
 3104      455F4741 
 3104      505F4155 
 3104      54485F45 
 3104      52524F52 
 3105              	.LASF63:
 3106 0839 4359424C 		.ascii	"CYBLE_EVT_L2CAP_CBFC_DISCONN_CNF\000"
 3106      455F4556 
 3106      545F4C32 
 3106      4341505F 
 3106      43424643 
 3107              	.LASF43:
 3108 085a 4359424C 		.ascii	"CYBLE_EVT_GATTC_FIND_BY_TYPE_VALUE_RSP\000"
 3108      455F4556 
 3108      545F4741 
 3108      5454435F 
 3108      46494E44 
 3109              	.LASF14:
 3110 0881 63686172 		.ascii	"char\000"
 3110      00
 3111              	.LASF106:
 3112 0886 4359424C 		.ascii	"CYBLE_LL_PWR_LVL_NEG_2_DBM\000"
 3112      455F4C4C 
 3112      5F505752 
 3112      5F4C564C 
 3112      5F4E4547 
 3113              	.LASF178:
 3114 08a1 4359424C 		.ascii	"CYBLE_GATT_WRITE_RSP\000"
 3114      455F4741 
 3114      54545F57 
 3114      52495445 
 3114      5F525350 
 3115              	.LASF46:
 3116 08b6 4359424C 		.ascii	"CYBLE_EVT_GATTC_READ_MULTI_RSP\000"
ARM GAS  C:\Users\Lonnie\AppData\Local\Temp\ccJOwa1B.s 			page 86


 3116      455F4556 
 3116      545F4741 
 3116      5454435F 
 3116      52454144 
 3117              	.LASF154:
 3118 08d5 4359424C 		.ascii	"CYBLE_GAP_AUTH_INFO_T\000"
 3118      455F4741 
 3118      505F4155 
 3118      54485F49 
 3118      4E464F5F 
 3119              	.LASF133:
 3120 08eb 4359424C 		.ascii	"CYBLE_GAP_IOCAP_KEYBOARD_ONLY\000"
 3120      455F4741 
 3120      505F494F 
 3120      4341505F 
 3120      4B455942 
 3121              	.LASF16:
 3122 0909 4359424C 		.ascii	"CYBLE_EVT_HOST_INVALID\000"
 3122      455F4556 
 3122      545F484F 
 3122      53545F49 
 3122      4E56414C 
 3123              	.LASF203:
 3124 0920 4359424C 		.ascii	"CYBLE_GATT_ERR_UNLIKELY_ERROR\000"
 3124      455F4741 
 3124      54545F45 
 3124      52525F55 
 3124      4E4C494B 
 3125              	.LASF161:
 3126 093e 4359424C 		.ascii	"CYBLE_GATT_XCNHG_MTU_REQ\000"
 3126      455F4741 
 3126      54545F58 
 3126      434E4847 
 3126      5F4D5455 
 3127              	.LASF77:
 3128 0957 4359424C 		.ascii	"CYBLE_ERROR_NO_DEVICE_ENTITY\000"
 3128      455F4552 
 3128      524F525F 
 3128      4E4F5F44 
 3128      45564943 
 3129              	.LASF45:
 3130 0974 4359424C 		.ascii	"CYBLE_EVT_GATTC_READ_BLOB_RSP\000"
 3130      455F4556 
 3130      545F4741 
 3130      5454435F 
 3130      52454144 
 3131              	.LASF274:
 3132 0992 6379426C 		.ascii	"cyBle_eventHandlerFlag\000"
 3132      655F6576 
 3132      656E7448 
 3132      616E646C 
 3132      6572466C 
 3133              	.LASF52:
 3134 09a9 4359424C 		.ascii	"CYBLE_EVT_GATTC_EXEC_WRITE_RSP\000"
 3134      455F4556 
 3134      545F4741 
 3134      5454435F 
ARM GAS  C:\Users\Lonnie\AppData\Local\Temp\ccJOwa1B.s 			page 87


 3134      45584543 
 3135              	.LASF207:
 3136 09c8 4359424C 		.ascii	"CYBLE_GATT_ERR_HEART_RATE_CONTROL_POINT_NOT_SUPPORT"
 3136      455F4741 
 3136      54545F45 
 3136      52525F48 
 3136      45415254 
 3137 09fb 454400   		.ascii	"ED\000"
 3138              	.LASF200:
 3139 09fe 4359424C 		.ascii	"CYBLE_GATT_ERR_ATTRIBUTE_NOT_LONG\000"
 3139      455F4741 
 3139      54545F45 
 3139      52525F41 
 3139      54545249 
 3140              	.LASF130:
 3141 0a20 4359424C 		.ascii	"CYBLE_GAP_SEC_LEVEL_MASK\000"
 3141      455F4741 
 3141      505F5345 
 3141      435F4C45 
 3141      56454C5F 
 3142              	.LASF238:
 3143 0a39 4359424C 		.ascii	"CYBLE_DIS_SOFTWARE_REV\000"
 3143      455F4449 
 3143      535F534F 
 3143      46545741 
 3143      52455F52 
 3144              	.LASF234:
 3145 0a50 4359424C 		.ascii	"CYBLE_DIS_MODEL_NUMBER\000"
 3145      455F4449 
 3145      535F4D4F 
 3145      44454C5F 
 3145      4E554D42 
 3146              	.LASF282:
 3147 0a67 6379426C 		.ascii	"cyBle_connHandle\000"
 3147      655F636F 
 3147      6E6E4861 
 3147      6E646C65 
 3147      00
 3148              	.LASF239:
 3149 0a78 4359424C 		.ascii	"CYBLE_DIS_SYSTEM_ID\000"
 3149      455F4449 
 3149      535F5359 
 3149      5354454D 
 3149      5F494400 
 3150              	.LASF160:
 3151 0a8c 4359424C 		.ascii	"CYBLE_GATT_ERROR_RSP\000"
 3151      455F4741 
 3151      54545F45 
 3151      52524F52 
 3151      5F525350 
 3152              	.LASF71:
 3153 0aa1 4359424C 		.ascii	"CYBLE_ERROR_INVALID_PARAMETER\000"
 3153      455F4552 
 3153      524F525F 
 3153      494E5641 
 3153      4C49445F 
 3154              	.LASF269:
ARM GAS  C:\Users\Lonnie\AppData\Local\Temp\ccJOwa1B.s 			page 88


 3155 0abf 4379426C 		.ascii	"CyBle_GapConnUpdateCompleteEventHandler\000"
 3155      655F4761 
 3155      70436F6E 
 3155      6E557064 
 3155      61746543 
 3156              	.LASF97:
 3157 0ae7 4359424C 		.ascii	"CYBLE_DESCR_DISC_DONE\000"
 3157      455F4445 
 3157      5343525F 
 3157      44495343 
 3157      5F444F4E 
 3158              	.LASF73:
 3159 0afd 4359424C 		.ascii	"CYBLE_ERROR_MEMORY_ALLOCATION_FAILED\000"
 3159      455F4552 
 3159      524F525F 
 3159      4D454D4F 
 3159      52595F41 
 3160              	.LASF276:
 3161 0b22 6379426C 		.ascii	"cyBle_sflashDeviceAddress\000"
 3161      655F7366 
 3161      6C617368 
 3161      44657669 
 3161      63654164 
 3162              	.LASF187:
 3163 0b3c 4359424C 		.ascii	"CYBLE_GATT_SIGNED_WRITE_CMD\000"
 3163      455F4741 
 3163      54545F53 
 3163      49474E45 
 3163      445F5752 
 3164              	.LASF210:
 3165 0b58 4359424C 		.ascii	"CYBLE_GATTS_ERR_CCCD_IMPROPERLY_CONFIGURED\000"
 3165      455F4741 
 3165      5454535F 
 3165      4552525F 
 3165      43434344 
 3166              	.LASF183:
 3167 0b83 4359424C 		.ascii	"CYBLE_GATT_EXECUTE_WRITE_RSP\000"
 3167      455F4741 
 3167      54545F45 
 3167      58454355 
 3167      54455F57 
 3168              	.LASF94:
 3169 0ba0 4359424C 		.ascii	"CYBLE_ERROR_MAX\000"
 3169      455F4552 
 3169      524F525F 
 3169      4D415800 
 3170              	.LASF58:
 3171 0bb0 4359424C 		.ascii	"CYBLE_EVT_L2CAP_CONN_PARAM_UPDATE_RSP\000"
 3171      455F4556 
 3171      545F4C32 
 3171      4341505F 
 3171      434F4E4E 
 3172              	.LASF148:
 3173 0bd6 4359424C 		.ascii	"CYBLE_GAP_AUTH_ERROR_LINK_DISCONNECTED\000"
 3173      455F4741 
 3173      505F4155 
 3173      54485F45 
ARM GAS  C:\Users\Lonnie\AppData\Local\Temp\ccJOwa1B.s 			page 89


 3173      52524F52 
 3174              	.LASF26:
 3175 0bfd 4359424C 		.ascii	"CYBLE_EVT_GAP_AUTH_COMPLETE\000"
 3175      455F4556 
 3175      545F4741 
 3175      505F4155 
 3175      54485F43 
 3176              	.LASF27:
 3177 0c19 4359424C 		.ascii	"CYBLE_EVT_GAP_AUTH_FAILED\000"
 3177      455F4556 
 3177      545F4741 
 3177      505F4155 
 3177      54485F46 
 3178              	.LASF95:
 3179 0c33 4359424C 		.ascii	"CYBLE_INCL_DISC_DONE\000"
 3179      455F494E 
 3179      434C5F44 
 3179      4953435F 
 3179      444F4E45 
 3180              	.LASF176:
 3181 0c48 4359424C 		.ascii	"CYBLE_GATT_READ_BY_GROUP_RSP\000"
 3181      455F4741 
 3181      54545F52 
 3181      4541445F 
 3181      42595F47 
 3182              	.LASF74:
 3183 0c65 4359424C 		.ascii	"CYBLE_ERROR_INSUFFICIENT_RESOURCES\000"
 3183      455F4552 
 3183      524F525F 
 3183      494E5355 
 3183      46464943 
 3184              	.LASF108:
 3185 0c88 4359424C 		.ascii	"CYBLE_LL_PWR_LVL_3_DBM\000"
 3185      455F4C4C 
 3185      5F505752 
 3185      5F4C564C 
 3185      5F335F44 
 3186              	.LASF5:
 3187 0c9f 6C6F6E67 		.ascii	"long unsigned int\000"
 3187      20756E73 
 3187      69676E65 
 3187      6420696E 
 3187      7400
 3188              	.LASF169:
 3189 0cb1 4359424C 		.ascii	"CYBLE_GATT_READ_REQ\000"
 3189      455F4741 
 3189      54545F52 
 3189      4541445F 
 3189      52455100 
 3190              	.LASF155:
 3191 0cc5 73746174 		.ascii	"status\000"
 3191      757300
 3192              	.LASF107:
 3193 0ccc 4359424C 		.ascii	"CYBLE_LL_PWR_LVL_NEG_1_DBM\000"
 3193      455F4C4C 
 3193      5F505752 
 3193      5F4C564C 
ARM GAS  C:\Users\Lonnie\AppData\Local\Temp\ccJOwa1B.s 			page 90


 3193      5F4E4547 
 3194              	.LASF143:
 3195 0ce7 4359424C 		.ascii	"CYBLE_GAP_AUTH_ERROR_COMMAND_NOT_SUPPORTED\000"
 3195      455F4741 
 3195      505F4155 
 3195      54485F45 
 3195      52524F52 
 3196              	.LASF139:
 3197 0d12 4359424C 		.ascii	"CYBLE_GAP_AUTH_ERROR_AUTHENTICATION_REQ_NOT_MET\000"
 3197      455F4741 
 3197      505F4155 
 3197      54485F45 
 3197      52524F52 
 3198              	.LASF184:
 3199 0d42 4359424C 		.ascii	"CYBLE_GATT_HANDLE_VALUE_NTF\000"
 3199      455F4741 
 3199      54545F48 
 3199      414E444C 
 3199      455F5641 
 3200              	.LASF84:
 3201 0d5e 4359424C 		.ascii	"CYBLE_ERROR_L2CAP_PSM_ALREADY_REGISTERED\000"
 3201      455F4552 
 3201      524F525F 
 3201      4C324341 
 3201      505F5053 
 3202              	.LASF235:
 3203 0d87 4359424C 		.ascii	"CYBLE_DIS_SERIAL_NUMBER\000"
 3203      455F4449 
 3203      535F5345 
 3203      5249414C 
 3203      5F4E554D 
 3204              	.LASF246:
 3205 0d9f 4359424C 		.ascii	"CYBLE_HTS_MEASURE_INTERVAL\000"
 3205      455F4854 
 3205      535F4D45 
 3205      41535552 
 3205      455F494E 
 3206              	.LASF32:
 3207 0dba 4359424C 		.ascii	"CYBLE_EVT_GAP_CONNECTION_UPDATE_COMPLETE\000"
 3207      455F4556 
 3207      545F4741 
 3207      505F434F 
 3207      4E4E4543 
 3208              	.LASF252:
 3209 0de3 4359424C 		.ascii	"CYBLE_STATE_INITIALIZING\000"
 3209      455F5354 
 3209      4154455F 
 3209      494E4954 
 3209      49414C49 
 3210              	.LASF272:
 3211 0dfc 6379426C 		.ascii	"cyBle_mtuSize\000"
 3211      655F6D74 
 3211      7553697A 
 3211      6500
 3212              	.LASF145:
 3213 0e0a 4359424C 		.ascii	"CYBLE_GAP_AUTH_ERROR_REPEATED_ATTEMPTS\000"
 3213      455F4741 
ARM GAS  C:\Users\Lonnie\AppData\Local\Temp\ccJOwa1B.s 			page 91


 3213      505F4155 
 3213      54485F45 
 3213      52524F52 
 3214              	.LASF62:
 3215 0e31 4359424C 		.ascii	"CYBLE_EVT_L2CAP_CBFC_DISCONN_IND\000"
 3215      455F4556 
 3215      545F4C32 
 3215      4341505F 
 3215      43424643 
 3216              	.LASF24:
 3217 0e52 4359424C 		.ascii	"CYBLE_EVT_GAP_PASSKEY_ENTRY_REQUEST\000"
 3217      455F4556 
 3217      545F4741 
 3217      505F5041 
 3217      53534B45 
 3218              	.LASF111:
 3219 0e76 4359424C 		.ascii	"CYBLE_BLESS_PWR_LVL_T\000"
 3219      455F424C 
 3219      4553535F 
 3219      5057525F 
 3219      4C564C5F 
 3220              	.LASF264:
 3221 0e8c 4379426C 		.ascii	"CyBle_GattConnectReqHandler\000"
 3221      655F4761 
 3221      7474436F 
 3221      6E6E6563 
 3221      74526571 
 3222              	.LASF142:
 3223 0ea8 4359424C 		.ascii	"CYBLE_GAP_AUTH_ERROR_INSUFFICIENT_ENCRYPTION_KEY_SI"
 3223      455F4741 
 3223      505F4155 
 3223      54485F45 
 3223      52524F52 
 3224 0edb 5A4500   		.ascii	"ZE\000"
 3225              	.LASF6:
 3226 0ede 6C6F6E67 		.ascii	"long long int\000"
 3226      206C6F6E 
 3226      6720696E 
 3226      7400
 3227              	.LASF263:
 3228 0eec 4379426C 		.ascii	"CyBle_GattDisconnectEventHandler\000"
 3228      655F4761 
 3228      74744469 
 3228      73636F6E 
 3228      6E656374 
 3229              	.LASF241:
 3230 0f0d 4359424C 		.ascii	"CYBLE_DIS_PNP_ID\000"
 3230      455F4449 
 3230      535F504E 
 3230      505F4944 
 3230      00
 3231              	.LASF265:
 3232 0f1e 73666C61 		.ascii	"sflashDeviceAddress\000"
 3232      73684465 
 3232      76696365 
 3232      41646472 
 3232      65737300 
ARM GAS  C:\Users\Lonnie\AppData\Local\Temp\ccJOwa1B.s 			page 92


 3233              	.LASF198:
 3234 0f32 4359424C 		.ascii	"CYBLE_GATT_ERR_PREPARE_WRITE_QUEUE_FULL\000"
 3234      455F4741 
 3234      54545F45 
 3234      52525F50 
 3234      52455041 
 3235              	.LASF85:
 3236 0f5a 4359424C 		.ascii	"CYBLE_ERROR_L2CAP_PSM_NOT_REGISTERED\000"
 3236      455F4552 
 3236      524F525F 
 3236      4C324341 
 3236      505F5053 
 3237              	.LASF75:
 3238 0f7f 4359424C 		.ascii	"CYBLE_ERROR_OOB_NOT_AVAILABLE\000"
 3238      455F4552 
 3238      524F525F 
 3238      4F4F425F 
 3238      4E4F545F 
 3239              	.LASF13:
 3240 0f9d 646F7562 		.ascii	"double\000"
 3240      6C6500
 3241              	.LASF91:
 3242 0fa4 4359424C 		.ascii	"CYBLE_ERROR_DEVICE_ALREADY_EXISTS\000"
 3242      455F4552 
 3242      524F525F 
 3242      44455649 
 3242      43455F41 
 3243              	.LASF250:
 3244 0fc6 4359424C 		.ascii	"CYBLE_HTS_DESCR_COUNT\000"
 3244      455F4854 
 3244      535F4445 
 3244      5343525F 
 3244      434F554E 
 3245              	.LASF68:
 3246 0fdc 4359424C 		.ascii	"CYBLE_EVT_PENDING_FLASH_WRITE\000"
 3246      455F4556 
 3246      545F5045 
 3246      4E44494E 
 3246      475F464C 
 3247              	.LASF201:
 3248 0ffa 4359424C 		.ascii	"CYBLE_GATT_ERR_INSUFFICIENT_ENC_KEY_SIZE\000"
 3248      455F4741 
 3248      54545F45 
 3248      52525F49 
 3248      4E535546 
 3249              	.LASF110:
 3250 1023 4359424C 		.ascii	"CYBLE_LL_PWR_LVL_MAX\000"
 3250      455F4C4C 
 3250      5F505752 
 3250      5F4C564C 
 3250      5F4D4158 
 3251              	.LASF213:
 3252 1038 4359424C 		.ascii	"CYBLE_GATT_ERR_PROCEDURE_ALREADY_IN_PROGRESS\000"
 3252      455F4741 
 3252      54545F45 
 3252      52525F50 
 3252      524F4345 
ARM GAS  C:\Users\Lonnie\AppData\Local\Temp\ccJOwa1B.s 			page 93


 3253              	.LASF287:
 3254 1065 433A5C55 		.ascii	"C:\\Users\\Lonnie\\Desktop\\AN91184\\Health Thermom"
 3254      73657273 
 3254      5C4C6F6E 
 3254      6E69655C 
 3254      4465736B 
 3255 1093 65746572 		.ascii	"eter.cydsn\000"
 3255      2E637964 
 3255      736E00
 3256              	.LASF87:
 3257 109e 4359424C 		.ascii	"CYBLE_ERROR_L2CAP_CHANNEL_NOT_FOUND\000"
 3257      455F4552 
 3257      524F525F 
 3257      4C324341 
 3257      505F4348 
 3258              	.LASF78:
 3259 10c2 4359424C 		.ascii	"CYBLE_ERROR_REPEATED_ATTEMPTS\000"
 3259      455F4552 
 3259      524F525F 
 3259      52455045 
 3259      41544544 
 3260              	.LASF260:
 3261 10e0 4379426C 		.ascii	"CyBle_ValueConfirmation\000"
 3261      655F5661 
 3261      6C756543 
 3261      6F6E6669 
 3261      726D6174 
 3262              	.LASF12:
 3263 10f8 666C6F61 		.ascii	"float\000"
 3263      7400
 3264              	.LASF92:
 3265 10fe 4359424C 		.ascii	"CYBLE_ERROR_FLASH_WRITE_NOT_PERMITED\000"
 3265      455F4552 
 3265      524F525F 
 3265      464C4153 
 3265      485F5752 
 3266              	.LASF227:
 3267 1123 6F70636F 		.ascii	"opcode\000"
 3267      646500
 3268              	.LASF197:
 3269 112a 4359424C 		.ascii	"CYBLE_GATT_ERR_INSUFFICIENT_AUTHORIZATION\000"
 3269      455F4741 
 3269      54545F45 
 3269      52525F49 
 3269      4E535546 
 3270              	.LASF223:
 3271 1154 61747472 		.ascii	"attrHandle\000"
 3271      48616E64 
 3271      6C6500
 3272              	.LASF151:
 3273 115f 626F6E64 		.ascii	"bonding\000"
 3273      696E6700 
 3274              	.LASF231:
 3275 1167 4359424C 		.ascii	"CYBLE_GATTS_WRITE_REQ_PARAM_T\000"
 3275      455F4741 
 3275      5454535F 
 3275      57524954 
ARM GAS  C:\Users\Lonnie\AppData\Local\Temp\ccJOwa1B.s 			page 94


 3275      455F5245 
 3276              	.LASF8:
 3277 1185 756E7369 		.ascii	"unsigned int\000"
 3277      676E6564 
 3277      20696E74 
 3277      00
 3278              	.LASF50:
 3279 1192 4359424C 		.ascii	"CYBLE_EVT_GATTS_PREP_WRITE_REQ\000"
 3279      455F4556 
 3279      545F4741 
 3279      5454535F 
 3279      50524550 
 3280              	.LASF194:
 3281 11b1 4359424C 		.ascii	"CYBLE_GATT_ERR_INSUFFICIENT_AUTHENTICATION\000"
 3281      455F4741 
 3281      54545F45 
 3281      52525F49 
 3281      4E535546 
 3282              	.LASF226:
 3283 11dc 4359424C 		.ascii	"CYBLE_GATT_XCHG_MTU_PARAM_T\000"
 3283      455F4741 
 3283      54545F58 
 3283      4348475F 
 3283      4D54555F 
 3284              	.LASF240:
 3285 11f8 4359424C 		.ascii	"CYBLE_DIS_REG_CERT_DATA\000"
 3285      455F4449 
 3285      535F5245 
 3285      475F4345 
 3285      52545F44 
 3286              	.LASF113:
 3287 1210 4359424C 		.ascii	"CYBLE_LL_CONN_CH_TYPE\000"
 3287      455F4C4C 
 3287      5F434F4E 
 3287      4E5F4348 
 3287      5F545950 
 3288              	.LASF209:
 3289 1226 4359424C 		.ascii	"CYBLE_GATTS_ERR_PROCEDURE_ALREADY_IN_PROGRESS\000"
 3289      455F4741 
 3289      5454535F 
 3289      4552525F 
 3289      50524F43 
 3290              	.LASF122:
 3291 1254 4359424C 		.ascii	"CYBLE_GAP_ADV_MODE_TO\000"
 3291      455F4741 
 3291      505F4144 
 3291      565F4D4F 
 3291      44455F54 
 3292              	.LASF258:
 3293 126a 6572725F 		.ascii	"err_param\000"
 3293      70617261 
 3293      6D00
 3294              	.LASF83:
 3295 1274 4359424C 		.ascii	"CYBLE_ERROR_L2CAP_PSM_WRONG_ENCODING\000"
 3295      455F4552 
 3295      524F525F 
 3295      4C324341 
ARM GAS  C:\Users\Lonnie\AppData\Local\Temp\ccJOwa1B.s 			page 95


 3295      505F5053 
 3296              	.LASF181:
 3297 1299 4359424C 		.ascii	"CYBLE_GATT_PREPARE_WRITE_RSP\000"
 3297      455F4741 
 3297      54545F50 
 3297      52455041 
 3297      52455F57 
 3298              	.LASF199:
 3299 12b6 4359424C 		.ascii	"CYBLE_GATT_ERR_ATTRIBUTE_NOT_FOUND\000"
 3299      455F4741 
 3299      54545F45 
 3299      52525F41 
 3299      54545249 
 3300              	.LASF69:
 3301 12d9 4359424C 		.ascii	"CYBLE_EVT_MAX\000"
 3301      455F4556 
 3301      545F4D41 
 3301      5800
 3302              	.LASF33:
 3303 12e7 4359424C 		.ascii	"CYBLE_EVT_GAPC_SCAN_START_STOP\000"
 3303      455F4556 
 3303      545F4741 
 3303      50435F53 
 3303      43414E5F 
 3304              	.LASF288:
 3305 1306 4379426C 		.ascii	"CyBle_IsDeviceAddressValid\000"
 3305      655F4973 
 3305      44657669 
 3305      63654164 
 3305      64726573 
 3306              	.LASF149:
 3307 1321 4359424C 		.ascii	"CYBLE_GAP_AUTH_FAILED_REASON_T\000"
 3307      455F4741 
 3307      505F4155 
 3307      54485F46 
 3307      41494C45 
 3308              	.LASF47:
 3309 1340 4359424C 		.ascii	"CYBLE_EVT_GATTS_WRITE_REQ\000"
 3309      455F4556 
 3309      545F4741 
 3309      5454535F 
 3309      57524954 
 3310              	.LASF25:
 3311 135a 4359424C 		.ascii	"CYBLE_EVT_GAP_PASSKEY_DISPLAY_REQUEST\000"
 3311      455F4556 
 3311      545F4741 
 3311      505F5041 
 3311      53534B45 
 3312              	.LASF99:
 3313 1380 4359424C 		.ascii	"CYBLE_ERROR_IND_DISABLED\000"
 3313      455F4552 
 3313      524F525F 
 3313      494E445F 
 3313      44495341 
 3314              	.LASF98:
 3315 1399 4359424C 		.ascii	"CYBLE_ERROR_NTF_DISABLED\000"
 3315      455F4552 
ARM GAS  C:\Users\Lonnie\AppData\Local\Temp\ccJOwa1B.s 			page 96


 3315      524F525F 
 3315      4E54465F 
 3315      44495341 
 3316              	.LASF173:
 3317 13b2 4359424C 		.ascii	"CYBLE_GATT_READ_MULTIPLE_REQ\000"
 3317      455F4741 
 3317      54545F52 
 3317      4541445F 
 3317      4D554C54 
 3318              	.LASF44:
 3319 13cf 4359424C 		.ascii	"CYBLE_EVT_GATTC_READ_RSP\000"
 3319      455F4556 
 3319      545F4741 
 3319      5454435F 
 3319      52454144 
 3320              	.LASF196:
 3321 13e8 4359424C 		.ascii	"CYBLE_GATT_ERR_INVALID_OFFSET\000"
 3321      455F4741 
 3321      54545F45 
 3321      52525F49 
 3321      4E56414C 
 3322              	.LASF167:
 3323 1406 4359424C 		.ascii	"CYBLE_GATT_READ_BY_TYPE_REQ\000"
 3323      455F4741 
 3323      54545F52 
 3323      4541445F 
 3323      42595F54 
 3324              	.LASF61:
 3325 1422 4359424C 		.ascii	"CYBLE_EVT_L2CAP_CBFC_CONN_CNF\000"
 3325      455F4556 
 3325      545F4C32 
 3325      4341505F 
 3325      43424643 
 3326              	.LASF214:
 3327 1440 4359424C 		.ascii	"CYBLE_GATT_ERR_OUT_OF_RANGE\000"
 3327      455F4741 
 3327      54545F45 
 3327      52525F4F 
 3327      55545F4F 
 3328              	.LASF165:
 3329 145c 4359424C 		.ascii	"CYBLE_GATT_FIND_BY_TYPE_VALUE_REQ\000"
 3329      455F4741 
 3329      54545F46 
 3329      494E445F 
 3329      42595F54 
 3330              	.LASF104:
 3331 147e 4359424C 		.ascii	"CYBLE_LL_PWR_LVL_NEG_6_DBM\000"
 3331      455F4C4C 
 3331      5F505752 
 3331      5F4C564C 
 3331      5F4E4547 
 3332              	.LASF136:
 3333 1499 4359424C 		.ascii	"CYBLE_GAP_AUTH_ERROR_NONE\000"
 3333      455F4741 
 3333      505F4155 
 3333      54485F45 
 3333      52524F52 
ARM GAS  C:\Users\Lonnie\AppData\Local\Temp\ccJOwa1B.s 			page 97


 3334              	.LASF31:
 3335 14b3 4359424C 		.ascii	"CYBLE_EVT_GAP_ENCRYPT_CHANGE\000"
 3335      455F4556 
 3335      545F4741 
 3335      505F454E 
 3335      43525950 
 3336              	.LASF247:
 3337 14d0 4359424C 		.ascii	"CYBLE_HTS_CHAR_COUNT\000"
 3337      455F4854 
 3337      535F4348 
 3337      41525F43 
 3337      4F554E54 
 3338              	.LASF38:
 3339 14e5 4359424C 		.ascii	"CYBLE_EVT_GATTS_XCNHG_MTU_REQ\000"
 3339      455F4556 
 3339      545F4741 
 3339      5454535F 
 3339      58434E48 
 3340              	.LASF164:
 3341 1503 4359424C 		.ascii	"CYBLE_GATT_FIND_INFO_RSP\000"
 3341      455F4741 
 3341      54545F46 
 3341      494E445F 
 3341      494E464F 
 3342              	.LASF138:
 3343 151c 4359424C 		.ascii	"CYBLE_GAP_AUTH_ERROR_OOB_DATA_NOT_AVAILABLE\000"
 3343      455F4741 
 3343      505F4155 
 3343      54485F45 
 3343      52524F52 
 3344              	.LASF233:
 3345 1548 4359424C 		.ascii	"CYBLE_DIS_MANUFACTURER_NAME\000"
 3345      455F4449 
 3345      535F4D41 
 3345      4E554641 
 3345      43545552 
 3346              	.LASF159:
 3347 1564 4359424C 		.ascii	"CYBLE_GAP_CONN_PARAM_UPDATED_IN_CONTROLLER_T\000"
 3347      455F4741 
 3347      505F434F 
 3347      4E4E5F50 
 3347      4152414D 
 3348              	.LASF7:
 3349 1591 6C6F6E67 		.ascii	"long long unsigned int\000"
 3349      206C6F6E 
 3349      6720756E 
 3349      7369676E 
 3349      65642069 
 3350              	.LASF190:
 3351 15a8 4359424C 		.ascii	"CYBLE_GATT_ERR_INVALID_HANDLE\000"
 3351      455F4741 
 3351      54545F45 
 3351      52525F49 
 3351      4E56414C 
 3352              	.LASF18:
 3353 15c6 4359424C 		.ascii	"CYBLE_EVT_TIMEOUT\000"
 3353      455F4556 
ARM GAS  C:\Users\Lonnie\AppData\Local\Temp\ccJOwa1B.s 			page 98


 3353      545F5449 
 3353      4D454F55 
 3353      5400
 3354              	.LASF266:
 3355 15d8 73666C61 		.ascii	"sflashAddressValid\000"
 3355      73684164 
 3355      64726573 
 3355      7356616C 
 3355      696400
 3356              	.LASF188:
 3357 15eb 4359424C 		.ascii	"CYBLE_GATT_UNKNOWN_PDU_IND\000"
 3357      455F4741 
 3357      54545F55 
 3357      4E4B4E4F 
 3357      574E5F50 
 3358              	.LASF101:
 3359 1606 4359424C 		.ascii	"CYBLE_ERROR_INVALID_STATE\000"
 3359      455F4552 
 3359      524F525F 
 3359      494E5641 
 3359      4C49445F 
 3360              	.LASF216:
 3361 1620 4359424C 		.ascii	"CYBLE_GATT_DB_ATTR_HANDLE_T\000"
 3361      455F4741 
 3361      54545F44 
 3361      425F4154 
 3361      54525F48 
 3362              	.LASF271:
 3363 163c 626C6553 		.ascii	"bleSsPowerLevel\000"
 3363      73506F77 
 3363      65724C65 
 3363      76656C00 
 3364              	.LASF64:
 3365 164c 4359424C 		.ascii	"CYBLE_EVT_L2CAP_CBFC_DATA_READ\000"
 3365      455F4556 
 3365      545F4C32 
 3365      4341505F 
 3365      43424643 
 3366              	.LASF189:
 3367 166b 4359424C 		.ascii	"CYBLE_GATT_ERR_NONE\000"
 3367      455F4741 
 3367      54545F45 
 3367      52525F4E 
 3367      4F4E4500 
 3368              	.LASF222:
 3369 167f 76616C75 		.ascii	"value\000"
 3369      6500
 3370              	.LASF244:
 3371 1685 4359424C 		.ascii	"CYBLE_HTS_TEMP_TYPE\000"
 3371      455F4854 
 3371      535F5445 
 3371      4D505F54 
 3371      59504500 
 3372              	.LASF273:
 3373 1699 4379426C 		.ascii	"CyBle_ApplCallback\000"
 3373      655F4170 
 3373      706C4361 
ARM GAS  C:\Users\Lonnie\AppData\Local\Temp\ccJOwa1B.s 			page 99


 3373      6C6C6261 
 3373      636B00
 3374              	.LASF215:
 3375 16ac 4359424C 		.ascii	"CYBLE_GATT_ERR_CODE_T\000"
 3375      455F4741 
 3375      54545F45 
 3375      52525F43 
 3375      4F44455F 
 3376              	.LASF123:
 3377 16c2 4359424C 		.ascii	"CYBLE_GAP_SCAN_TO\000"
 3377      455F4741 
 3377      505F5343 
 3377      414E5F54 
 3377      4F00
 3378              	.LASF121:
 3379 16d4 4359424C 		.ascii	"CYBLE_GAP_BD_ADDR_T\000"
 3379      455F4741 
 3379      505F4244 
 3379      5F414444 
 3379      525F5400 
 3380              	.LASF171:
 3381 16e8 4359424C 		.ascii	"CYBLE_GATT_READ_BLOB_REQ\000"
 3381      455F4741 
 3381      54545F52 
 3381      4541445F 
 3381      424C4F42 
 3382              	.LASF285:
 3383 1701 474E5520 		.ascii	"GNU C 4.9.3 20150303 (release) [ARM/embedded-4_9-br"
 3383      4320342E 
 3383      392E3320 
 3383      32303135 
 3383      30333033 
 3384 1734 616E6368 		.ascii	"anch revision 221220] -mcpu=cortex-m0 -mthumb -g -O"
 3384      20726576 
 3384      6973696F 
 3384      6E203232 
 3384      31323230 
 3385 1767 30202D66 		.ascii	"0 -ffunction-sections -ffat-lto-objects\000"
 3385      66756E63 
 3385      74696F6E 
 3385      2D736563 
 3385      74696F6E 
 3386              	.LASF230:
 3387 178f 68616E64 		.ascii	"handleValPair\000"
 3387      6C655661 
 3387      6C506169 
 3387      7200
 3388              	.LASF225:
 3389 179d 636F6E6E 		.ascii	"connHandle\000"
 3389      48616E64 
 3389      6C6500
 3390              	.LASF262:
 3391 17a8 4379426C 		.ascii	"CyBle_TimeOutEventHandler\000"
 3391      655F5469 
 3391      6D654F75 
 3391      74457665 
 3391      6E744861 
ARM GAS  C:\Users\Lonnie\AppData\Local\Temp\ccJOwa1B.s 			page 100


 3392              	.LASF141:
 3393 17c2 4359424C 		.ascii	"CYBLE_GAP_AUTH_ERROR_PAIRING_NOT_SUPPORTED\000"
 3393      455F4741 
 3393      505F4155 
 3393      54485F45 
 3393      52524F52 
 3394              	.LASF125:
 3395 17ed 4359424C 		.ascii	"CYBLE_GENERIC_TO\000"
 3395      455F4745 
 3395      4E455249 
 3395      435F544F 
 3395      00
 3396              	.LASF278:
 3397 17fe 6379426C 		.ascii	"cyBle_pendingFlashWrite\000"
 3397      655F7065 
 3397      6E64696E 
 3397      67466C61 
 3397      73685772 
 3398              	.LASF42:
 3399 1816 4359424C 		.ascii	"CYBLE_EVT_GATTC_FIND_INFO_RSP\000"
 3399      455F4556 
 3399      545F4741 
 3399      5454435F 
 3399      46494E44 
 3400              	.LASF41:
 3401 1834 4359424C 		.ascii	"CYBLE_EVT_GATTC_READ_BY_TYPE_RSP\000"
 3401      455F4556 
 3401      545F4741 
 3401      5454435F 
 3401      52454144 
 3402              	.LASF281:
 3403 1855 6379426C 		.ascii	"cyBle_state\000"
 3403      655F7374 
 3403      61746500 
 3404              	.LASF48:
 3405 1861 4359424C 		.ascii	"CYBLE_EVT_GATTC_WRITE_RSP\000"
 3405      455F4556 
 3405      545F4741 
 3405      5454435F 
 3405      57524954 
 3406              	.LASF255:
 3407 187b 4359424C 		.ascii	"CYBLE_STATE_DISCONNECTED\000"
 3407      455F5354 
 3407      4154455F 
 3407      44495343 
 3407      4F4E4E45 
 3408              	.LASF28:
 3409 1894 4359424C 		.ascii	"CYBLE_EVT_GAPP_ADVERTISEMENT_START_STOP\000"
 3409      455F4556 
 3409      545F4741 
 3409      50505F41 
 3409      44564552 
 3410              	.LASF9:
 3411 18bc 75696E74 		.ascii	"uint8\000"
 3411      3800
 3412              	.LASF277:
 3413 18c2 6379426C 		.ascii	"cyBle_authInfo\000"
ARM GAS  C:\Users\Lonnie\AppData\Local\Temp\ccJOwa1B.s 			page 101


 3413      655F6175 
 3413      7468496E 
 3413      666F00
 3414              	.LASF150:
 3415 18d1 73656375 		.ascii	"security\000"
 3415      72697479 
 3415      00
 3416              	.LASF267:
 3417 18da 4379426C 		.ascii	"CyBle_L2Cap_ConnParamUpdateRspEventHandler\000"
 3417      655F4C32 
 3417      4361705F 
 3417      436F6E6E 
 3417      50617261 
 3418              	.LASF177:
 3419 1905 4359424C 		.ascii	"CYBLE_GATT_WRITE_REQ\000"
 3419      455F4741 
 3419      54545F57 
 3419      52495445 
 3419      5F524551 
 3420              	.LASF2:
 3421 191a 73686F72 		.ascii	"short int\000"
 3421      7420696E 
 3421      7400
 3422              	.LASF153:
 3423 1924 61757468 		.ascii	"authErr\000"
 3423      45727200 
 3424              	.LASF208:
 3425 192c 4359424C 		.ascii	"CYBLE_GATT_ERR_CPS_INAPPROPRIATE_CONNECTION_PARAMET"
 3425      455F4741 
 3425      54545F45 
 3425      52525F43 
 3425      50535F49 
 3426 195f 45525300 		.ascii	"ERS\000"
 3427              	.LASF195:
 3428 1963 4359424C 		.ascii	"CYBLE_GATT_ERR_REQUEST_NOT_SUPPORTED\000"
 3428      455F4741 
 3428      54545F45 
 3428      52525F52 
 3428      45515545 
 3429              	.LASF243:
 3430 1988 4359424C 		.ascii	"CYBLE_HTS_TEMP_MEASURE\000"
 3430      455F4854 
 3430      535F5445 
 3430      4D505F4D 
 3430      45415355 
 3431              	.LASF35:
 3432 199f 4359424C 		.ascii	"CYBLE_EVT_GATTC_ERROR_RSP\000"
 3432      455F4556 
 3432      545F4741 
 3432      5454435F 
 3432      4552524F 
 3433              	.LASF135:
 3434 19b9 4359424C 		.ascii	"CYBLE_GAP_IOCAP_KEYBOARD_DISPLAY\000"
 3434      455F4741 
 3434      505F494F 
 3434      4341505F 
 3434      4B455942 
ARM GAS  C:\Users\Lonnie\AppData\Local\Temp\ccJOwa1B.s 			page 102


 3435              	.LASF256:
 3436 19da 4359424C 		.ascii	"CYBLE_STATE_T\000"
 3436      455F5354 
 3436      4154455F 
 3436      5400
 3437              	.LASF60:
 3438 19e8 4359424C 		.ascii	"CYBLE_EVT_L2CAP_CBFC_CONN_IND\000"
 3438      455F4556 
 3438      545F4C32 
 3438      4341505F 
 3438      43424643 
 3439              	.LASF51:
 3440 1a06 4359424C 		.ascii	"CYBLE_EVT_GATTS_EXEC_WRITE_REQ\000"
 3440      455F4556 
 3440      545F4741 
 3440      5454535F 
 3440      45584543 
 3441              	.LASF22:
 3442 1a25 4359424C 		.ascii	"CYBLE_EVT_GAPC_SCAN_PROGRESS_RESULT\000"
 3442      455F4556 
 3442      545F4741 
 3442      50435F53 
 3442      43414E5F 
 3443              	.LASF79:
 3444 1a49 4359424C 		.ascii	"CYBLE_ERROR_GAP_ROLE\000"
 3444      455F4552 
 3444      524F525F 
 3444      4741505F 
 3444      524F4C45 
 3445              	.LASF284:
 3446 1a5e 6379426C 		.ascii	"cyBle_advertisingIntervalType\000"
 3446      655F6164 
 3446      76657274 
 3446      6973696E 
 3446      67496E74 
 3447              	.LASF119:
 3448 1a7c 62644164 		.ascii	"bdAddr\000"
 3448      647200
 3449              	.LASF211:
 3450 1a83 4359424C 		.ascii	"CYBLE_GATT_ERR_ANS_COMMAND_NOT_SUPPORTED\000"
 3450      455F4741 
 3450      54545F45 
 3450      52525F41 
 3450      4E535F43 
 3451              	.LASF268:
 3452 1aac 72657370 		.ascii	"response\000"
 3452      6F6E7365 
 3452      00
 3453              	.LASF170:
 3454 1ab5 4359424C 		.ascii	"CYBLE_GATT_READ_RSP\000"
 3454      455F4741 
 3454      54545F52 
 3454      4541445F 
 3454      52535000 
 3455              	.LASF76:
 3456 1ac9 4359424C 		.ascii	"CYBLE_ERROR_NO_CONNECTION\000"
 3456      455F4552 
ARM GAS  C:\Users\Lonnie\AppData\Local\Temp\ccJOwa1B.s 			page 103


 3456      524F525F 
 3456      4E4F5F43 
 3456      4F4E4E45 
 3457              	.LASF109:
 3458 1ae3 4359424C 		.ascii	"CYBLE_LL_PWR_LVL_0_DBM\000"
 3458      455F4C4C 
 3458      5F505752 
 3458      5F4C564C 
 3458      5F305F44 
 3459              	.LASF112:
 3460 1afa 4359424C 		.ascii	"CYBLE_LL_ADV_CH_TYPE\000"
 3460      455F4C4C 
 3460      5F414456 
 3460      5F43485F 
 3460      54595045 
 3461              	.LASF279:
 3462 1b0f 6379426C 		.ascii	"cyBle_attValuesCCCD\000"
 3462      655F6174 
 3462      7456616C 
 3462      75657343 
 3462      43434400 
 3463              	.LASF54:
 3464 1b23 4359424C 		.ascii	"CYBLE_EVT_GATTC_HANDLE_VALUE_IND\000"
 3464      455F4556 
 3464      545F4741 
 3464      5454435F 
 3464      48414E44 
 3465              	.LASF270:
 3466 1b44 6576656E 		.ascii	"eventCode\000"
 3466      74436F64 
 3466      6500
 3467              	.LASF82:
 3468 1b4e 4359424C 		.ascii	"CYBLE_ERROR_SEC_FAILED\000"
 3468      455F4552 
 3468      524F525F 
 3468      5345435F 
 3468      4641494C 
 3469              	.LASF21:
 3470 1b65 4359424C 		.ascii	"CYBLE_EVT_STACK_BUSY_STATUS\000"
 3470      455F4556 
 3470      545F5354 
 3470      41434B5F 
 3470      42555359 
 3471              	.LASF157:
 3472 1b81 636F6E6E 		.ascii	"connLatency\000"
 3472      4C617465 
 3472      6E637900 
 3473              	.LASF132:
 3474 1b8d 4359424C 		.ascii	"CYBLE_GAP_IOCAP_DISPLAY_YESNO\000"
 3474      455F4741 
 3474      505F494F 
 3474      4341505F 
 3474      44495350 
 3475              	.LASF34:
 3476 1bab 4359424C 		.ascii	"CYBLE_EVT_GAP_KEYINFO_EXCHNGE_CMPLT\000"
 3476      455F4556 
 3476      545F4741 
ARM GAS  C:\Users\Lonnie\AppData\Local\Temp\ccJOwa1B.s 			page 104


 3476      505F4B45 
 3476      59494E46 
 3477              	.LASF182:
 3478 1bcf 4359424C 		.ascii	"CYBLE_GATT_EXECUTE_WRITE_REQ\000"
 3478      455F4741 
 3478      54545F45 
 3478      58454355 
 3478      54455F57 
 3479              	.LASF118:
 3480 1bec 4359424C 		.ascii	"CYBLE_BLESS_PWR_IN_DB_T\000"
 3480      455F424C 
 3480      4553535F 
 3480      5057525F 
 3480      494E5F44 
 3481              	.LASF114:
 3482 1c04 4359424C 		.ascii	"CYBLE_LL_MAX_CH_TYPE\000"
 3482      455F4C4C 
 3482      5F4D4158 
 3482      5F43485F 
 3482      54595045 
 3483              	.LASF57:
 3484 1c19 4359424C 		.ascii	"CYBLE_EVT_L2CAP_CONN_PARAM_UPDATE_REQ\000"
 3484      455F4556 
 3484      545F4C32 
 3484      4341505F 
 3484      434F4E4E 
 3485              	.LASF257:
 3486 1c3f 67617474 		.ascii	"gattErr\000"
 3486      45727200 
 3487              	.LASF96:
 3488 1c47 4359424C 		.ascii	"CYBLE_CHAR_DISC_DONE\000"
 3488      455F4348 
 3488      41525F44 
 3488      4953435F 
 3488      444F4E45 
 3489              	.LASF192:
 3490 1c5c 4359424C 		.ascii	"CYBLE_GATT_ERR_WRITE_NOT_PERMITTED\000"
 3490      455F4741 
 3490      54545F45 
 3490      52525F57 
 3490      52495445 
 3491              	.LASF283:
 3492 1c7f 6379426C 		.ascii	"cyBle_busStatus\000"
 3492      655F6275 
 3492      73537461 
 3492      74757300 
 3493              	.LASF156:
 3494 1c8f 636F6E6E 		.ascii	"connIntv\000"
 3494      496E7476 
 3494      00
 3495              	.LASF3:
 3496 1c98 73686F72 		.ascii	"short unsigned int\000"
 3496      7420756E 
 3496      7369676E 
 3496      65642069 
 3496      6E7400
 3497              	.LASF204:
ARM GAS  C:\Users\Lonnie\AppData\Local\Temp\ccJOwa1B.s 			page 105


 3498 1cab 4359424C 		.ascii	"CYBLE_GATT_ERR_INSUFFICIENT_ENCRYPTION\000"
 3498      455F4741 
 3498      54545F45 
 3498      52525F49 
 3498      4E535546 
 3499              	.LASF253:
 3500 1cd2 4359424C 		.ascii	"CYBLE_STATE_CONNECTED\000"
 3500      455F5354 
 3500      4154455F 
 3500      434F4E4E 
 3500      45435445 
 3501              	.LASF220:
 3502 1ce8 61637475 		.ascii	"actualLen\000"
 3502      616C4C65 
 3502      6E00
 3503              	.LASF175:
 3504 1cf2 4359424C 		.ascii	"CYBLE_GATT_READ_BY_GROUP_REQ\000"
 3504      455F4741 
 3504      54545F52 
 3504      4541445F 
 3504      42595F47 
 3505              	.LASF140:
 3506 1d0f 4359424C 		.ascii	"CYBLE_GAP_AUTH_ERROR_CONFIRM_VALUE_NOT_MATCH\000"
 3506      455F4741 
 3506      505F4155 
 3506      54485F45 
 3506      52524F52 
 3507              	.LASF218:
 3508 1d3c 61747449 		.ascii	"attId\000"
 3508      6400
 3509              	.LASF72:
 3510 1d42 4359424C 		.ascii	"CYBLE_ERROR_INVALID_OPERATION\000"
 3510      455F4552 
 3510      524F525F 
 3510      494E5641 
 3510      4C49445F 
 3511              	.LASF20:
 3512 1d60 4359424C 		.ascii	"CYBLE_EVT_HCI_STATUS\000"
 3512      455F4556 
 3512      545F4843 
 3512      495F5354 
 3512      41545553 
 3513              	.LASF37:
 3514 1d75 4359424C 		.ascii	"CYBLE_EVT_GATT_DISCONNECT_IND\000"
 3514      455F4556 
 3514      545F4741 
 3514      54545F44 
 3514      4953434F 
 3515              	.LASF158:
 3516 1d93 73757065 		.ascii	"supervisionTO\000"
 3516      72766973 
 3516      696F6E54 
 3516      4F00
 3517              	.LASF124:
 3518 1da1 4359424C 		.ascii	"CYBLE_GATT_RSP_TO\000"
 3518      455F4741 
 3518      54545F52 
ARM GAS  C:\Users\Lonnie\AppData\Local\Temp\ccJOwa1B.s 			page 106


 3518      53505F54 
 3518      4F00
 3519              	.LASF67:
 3520 1db3 4359424C 		.ascii	"CYBLE_EVT_L2CAP_CBFC_DATA_WRITE_IND\000"
 3520      455F4556 
 3520      545F4C32 
 3520      4341505F 
 3520      43424643 
 3521              	.LASF30:
 3522 1dd7 4359424C 		.ascii	"CYBLE_EVT_GAP_DEVICE_DISCONNECTED\000"
 3522      455F4556 
 3522      545F4741 
 3522      505F4445 
 3522      56494345 
 3523              	.LASF55:
 3524 1df9 4359424C 		.ascii	"CYBLE_EVT_GATTS_HANDLE_VALUE_CNF\000"
 3524      455F4556 
 3524      545F4741 
 3524      5454535F 
 3524      48414E44 
 3525              	.LASF10:
 3526 1e1a 75696E74 		.ascii	"uint16\000"
 3526      313600
 3527              	.LASF80:
 3528 1e21 4359424C 		.ascii	"CYBLE_ERROR_TX_POWER_READ\000"
 3528      455F4552 
 3528      524F525F 
 3528      54585F50 
 3528      4F574552 
 3529              		.ident	"GCC: (GNU Tools for ARM Embedded Processors) 4.9.3 20150303 (release) [ARM/embedded-4_9-br
