ARM GAS  C:\Users\Lonnie\AppData\Local\Temp\ccrBJHam.s 			page 1


   1              		.cpu cortex-m0
   2              		.fpu softvfp
   3              		.eabi_attribute 20, 1
   4              		.eabi_attribute 21, 1
   5              		.eabi_attribute 23, 3
   6              		.eabi_attribute 24, 1
   7              		.eabi_attribute 25, 1
   8              		.eabi_attribute 26, 1
   9              		.eabi_attribute 30, 6
  10              		.eabi_attribute 34, 0
  11              		.eabi_attribute 18, 4
  12              		.code	16
  13              		.file	"CommonFunctions.c"
  14              		.text
  15              	.Ltext0:
  16              		.cfi_sections	.debug_frame
  17              		.global	SystemFlag
  18              		.bss
  19              		.align	2
  20              		.type	SystemFlag, %object
  21              		.size	SystemFlag, 4
  22              	SystemFlag:
  23 0000 00000000 		.space	4
  24              		.section	.text.InitializeSystem,"ax",%progbits
  25              		.align	2
  26              		.global	InitializeSystem
  27              		.code	16
  28              		.thumb_func
  29              		.type	InitializeSystem, %function
  30              	InitializeSystem:
  31              	.LFB35:
  32              		.file 1 ".\\CommonFunctions.c"
   1:.\CommonFunctions.c **** /****************************************************************************
   2:.\CommonFunctions.c **** * File Name: CommonFunctions.c
   3:.\CommonFunctions.c **** *
   4:.\CommonFunctions.c **** * Version: 1.0
   5:.\CommonFunctions.c **** *
   6:.\CommonFunctions.c **** * Description:
   7:.\CommonFunctions.c **** * This file implements the common functions used by the application.
   8:.\CommonFunctions.c **** *
   9:.\CommonFunctions.c **** * Note:
  10:.\CommonFunctions.c **** * 
  11:.\CommonFunctions.c **** * Owner:
  12:.\CommonFunctions.c **** * PMAD
  13:.\CommonFunctions.c **** *
  14:.\CommonFunctions.c **** ******************************************************************************
  15:.\CommonFunctions.c **** * Copyright (2014), Cypress Semiconductor Corporation.
  16:.\CommonFunctions.c **** ******************************************************************************
  17:.\CommonFunctions.c **** * This software is owned by Cypress Semiconductor Corporation (Cypress) and is
  18:.\CommonFunctions.c **** * protected by and subject to worldwide patent protection (United States and
  19:.\CommonFunctions.c **** * foreign), United States copyright laws and international treaty provisions.
  20:.\CommonFunctions.c **** * Cypress hereby grants to licensee a personal, non-exclusive, non-transferable
  21:.\CommonFunctions.c **** * license to copy, use, modify, create derivative works of, and compile the
  22:.\CommonFunctions.c **** * Cypress Source Code and derivative works for the sole purpose of creating
  23:.\CommonFunctions.c **** * custom software in support of licensee product to be used only in conjunction
  24:.\CommonFunctions.c **** * with a Cypress integrated circuit as specified in the applicable agreement.
  25:.\CommonFunctions.c **** * Any reproduction, modification, translation, compilation, or representation of
ARM GAS  C:\Users\Lonnie\AppData\Local\Temp\ccrBJHam.s 			page 2


  26:.\CommonFunctions.c **** * this software except as specified above is prohibited without the express
  27:.\CommonFunctions.c **** * written permission of Cypress.
  28:.\CommonFunctions.c **** *
  29:.\CommonFunctions.c **** * Disclaimer: CYPRESS MAKES NO WARRANTY OF ANY KIND, EXPRESS OR IMPLIED, WITH
  30:.\CommonFunctions.c **** * REGARD TO THIS MATERIAL, INCLUDING, BUT NOT LIMITED TO, THE IMPLIED
  31:.\CommonFunctions.c **** * WARRANTIES OF MERCHANTABILITY AND FITNESS FOR A PARTICULAR PURPOSE.
  32:.\CommonFunctions.c **** * Cypress reserves the right to make changes without further notice to the
  33:.\CommonFunctions.c **** * materials described herein. Cypress does not assume any liability arising out
  34:.\CommonFunctions.c **** * of the application or use of any product or circuit described herein. Cypress
  35:.\CommonFunctions.c **** * does not authorize its products for use as critical components in life-support
  36:.\CommonFunctions.c **** * systems where a malfunction or failure may reasonably be expected to result in
  37:.\CommonFunctions.c **** * significant injury to the user. The inclusion of Cypress' product in a life-
  38:.\CommonFunctions.c **** * support systems application implies that the manufacturer assumes all risk of
  39:.\CommonFunctions.c **** * such use and in doing so indemnifies Cypress against all charges. Use may be
  40:.\CommonFunctions.c **** * limited by and subject to the applicable Cypress software license agreement.
  41:.\CommonFunctions.c **** *****************************************************************************/
  42:.\CommonFunctions.c **** 
  43:.\CommonFunctions.c **** 
  44:.\CommonFunctions.c **** /*****************************************************************************
  45:.\CommonFunctions.c **** * Included headers
  46:.\CommonFunctions.c **** *****************************************************************************/
  47:.\CommonFunctions.c **** #include "CommonFunctions.h"
  48:.\CommonFunctions.c **** //#include "BLE_HTSS.h"
  49:.\CommonFunctions.c **** 
  50:.\CommonFunctions.c **** /*****************************************************************************
  51:.\CommonFunctions.c **** * Macros and constants
  52:.\CommonFunctions.c **** *****************************************************************************/
  53:.\CommonFunctions.c **** #define             DRIVE_HIGH              (1u)
  54:.\CommonFunctions.c **** #define             DRIVE_LOW               (0u)
  55:.\CommonFunctions.c **** 
  56:.\CommonFunctions.c **** /* System Flag used to indicate system status */
  57:.\CommonFunctions.c **** uint32 SystemFlag = 0;
  58:.\CommonFunctions.c **** 
  59:.\CommonFunctions.c **** /*****************************************************************************
  60:.\CommonFunctions.c **** * Function Definitions
  61:.\CommonFunctions.c **** *****************************************************************************/
  62:.\CommonFunctions.c **** 
  63:.\CommonFunctions.c **** /*****************************************************************************
  64:.\CommonFunctions.c **** * Public Functions
  65:.\CommonFunctions.c **** *****************************************************************************/
  66:.\CommonFunctions.c **** 
  67:.\CommonFunctions.c **** /*****************************************************************************
  68:.\CommonFunctions.c **** * Function Name: InitializeSystem()
  69:.\CommonFunctions.c **** ******************************************************************************
  70:.\CommonFunctions.c **** * Summary:
  71:.\CommonFunctions.c **** * Initializes the complete system resources. 
  72:.\CommonFunctions.c **** *
  73:.\CommonFunctions.c **** * Parameters:
  74:.\CommonFunctions.c **** * None
  75:.\CommonFunctions.c **** *
  76:.\CommonFunctions.c **** * Return:
  77:.\CommonFunctions.c **** * None
  78:.\CommonFunctions.c **** *
  79:.\CommonFunctions.c **** * Theory:
  80:.\CommonFunctions.c **** * Initializes the system resources - enables BLE, starts ADC, clear SW 
  81:.\CommonFunctions.c **** * interrupt and drives the reference signals for temperature measurement. 
  82:.\CommonFunctions.c **** *
ARM GAS  C:\Users\Lonnie\AppData\Local\Temp\ccrBJHam.s 			page 3


  83:.\CommonFunctions.c **** * Side Effects:
  84:.\CommonFunctions.c **** * None
  85:.\CommonFunctions.c **** *
  86:.\CommonFunctions.c **** * Note:
  87:.\CommonFunctions.c **** *
  88:.\CommonFunctions.c **** *****************************************************************************/
  89:.\CommonFunctions.c **** void InitializeSystem (void)
  90:.\CommonFunctions.c **** {
  33              		.loc 1 90 0
  34              		.cfi_startproc
  35 0000 80B5     		push	{r7, lr}
  36              		.cfi_def_cfa_offset 8
  37              		.cfi_offset 7, -8
  38              		.cfi_offset 14, -4
  39 0002 00AF     		add	r7, sp, #0
  40              		.cfi_def_cfa_register 7
  91:.\CommonFunctions.c ****     /* Clear wakeup pin interrupt */
  92:.\CommonFunctions.c ****     SW_ClearInterrupt();
  41              		.loc 1 92 0
  42 0004 FFF7FEFF 		bl	SW_ClearInterrupt
  93:.\CommonFunctions.c ****     
  94:.\CommonFunctions.c ****     /* Generate reference signals for temperature measurement */
  95:.\CommonFunctions.c ****     V_HIGH_Write(DRIVE_HIGH);
  43              		.loc 1 95 0
  44 0008 0120     		mov	r0, #1
  45 000a FFF7FEFF 		bl	V_HIGH_Write
  96:.\CommonFunctions.c ****     V_LOW_Write(DRIVE_LOW);
  46              		.loc 1 96 0
  47 000e 0020     		mov	r0, #0
  48 0010 FFF7FEFF 		bl	V_LOW_Write
  97:.\CommonFunctions.c ****     
  98:.\CommonFunctions.c ****     /* Enable BLE and related resouces */
  99:.\CommonFunctions.c **** //    EnableBLE();
 100:.\CommonFunctions.c ****     
 101:.\CommonFunctions.c ****     /* Enable ADC for temperature measurement */
 102:.\CommonFunctions.c ****     ADC_Start();
  49              		.loc 1 102 0
  50 0014 FFF7FEFF 		bl	ADC_Start
 103:.\CommonFunctions.c ****     UART_Start();
  51              		.loc 1 103 0
  52 0018 FFF7FEFF 		bl	UART_Start
 104:.\CommonFunctions.c ****     Opamp_1_Start();
  53              		.loc 1 104 0
  54 001c FFF7FEFF 		bl	Opamp_1_Start
 105:.\CommonFunctions.c ****     Opamp_2_Start();
  55              		.loc 1 105 0
  56 0020 FFF7FEFF 		bl	Opamp_2_Start
 106:.\CommonFunctions.c **** }
  57              		.loc 1 106 0
  58 0024 BD46     		mov	sp, r7
  59              		@ sp needed
  60 0026 80BD     		pop	{r7, pc}
  61              		.cfi_endproc
  62              	.LFE35:
  63              		.size	InitializeSystem, .-InitializeSystem
  64              		.section	.text.PrepareForDeepSleep,"ax",%progbits
  65              		.align	2
ARM GAS  C:\Users\Lonnie\AppData\Local\Temp\ccrBJHam.s 			page 4


  66              		.global	PrepareForDeepSleep
  67              		.code	16
  68              		.thumb_func
  69              		.type	PrepareForDeepSleep, %function
  70              	PrepareForDeepSleep:
  71              	.LFB36:
 107:.\CommonFunctions.c **** 
 108:.\CommonFunctions.c **** /*****************************************************************************
 109:.\CommonFunctions.c **** * Function Name: PrepareForDeepSleep()
 110:.\CommonFunctions.c **** ******************************************************************************
 111:.\CommonFunctions.c **** * Summary:
 112:.\CommonFunctions.c **** * Prepare the system for deep sleep
 113:.\CommonFunctions.c **** *
 114:.\CommonFunctions.c **** * Parameters:
 115:.\CommonFunctions.c **** * None
 116:.\CommonFunctions.c **** *
 117:.\CommonFunctions.c **** * Return:
 118:.\CommonFunctions.c **** * None
 119:.\CommonFunctions.c **** *
 120:.\CommonFunctions.c **** * Theory:
 121:.\CommonFunctions.c **** * Disables the block to prepare the system for deep sleep 
 122:.\CommonFunctions.c **** *
 123:.\CommonFunctions.c **** * Side Effects:
 124:.\CommonFunctions.c **** * None
 125:.\CommonFunctions.c **** *
 126:.\CommonFunctions.c **** * Note:
 127:.\CommonFunctions.c **** *
 128:.\CommonFunctions.c **** *****************************************************************************/
 129:.\CommonFunctions.c **** void PrepareForDeepSleep (void)
 130:.\CommonFunctions.c **** {
  72              		.loc 1 130 0
  73              		.cfi_startproc
  74 0000 80B5     		push	{r7, lr}
  75              		.cfi_def_cfa_offset 8
  76              		.cfi_offset 7, -8
  77              		.cfi_offset 14, -4
  78 0002 00AF     		add	r7, sp, #0
  79              		.cfi_def_cfa_register 7
 131:.\CommonFunctions.c ****     /* Disable reference signal to ensure no leakage currents */
 132:.\CommonFunctions.c ****     V_HIGH_Write(DRIVE_LOW);
  80              		.loc 1 132 0
  81 0004 0020     		mov	r0, #0
  82 0006 FFF7FEFF 		bl	V_HIGH_Write
 133:.\CommonFunctions.c ****     V_LOW_Write(DRIVE_LOW);
  83              		.loc 1 133 0
  84 000a 0020     		mov	r0, #0
  85 000c FFF7FEFF 		bl	V_LOW_Write
 134:.\CommonFunctions.c ****     
 135:.\CommonFunctions.c ****     /* If ADC is enabled then disable ADC */
 136:.\CommonFunctions.c ****     /* Note: Calling ADC_Sleep twice will disable ADC. ADC_Start function 
 137:.\CommonFunctions.c ****     *  should be called instead of ADC_Wakeup function to re-enable the ADC 
 138:.\CommonFunctions.c ****     */
 139:.\CommonFunctions.c ****     if (ADC_SAR_CTRL_REG  & ADC_ENABLE)
  86              		.loc 1 139 0
  87 0010 034B     		ldr	r3, .L4
  88 0012 1B68     		ldr	r3, [r3]
  89 0014 002B     		cmp	r3, #0
ARM GAS  C:\Users\Lonnie\AppData\Local\Temp\ccrBJHam.s 			page 5


  90 0016 01DA     		bge	.L2
 140:.\CommonFunctions.c ****     {
 141:.\CommonFunctions.c ****         ADC_Sleep();
  91              		.loc 1 141 0
  92 0018 FFF7FEFF 		bl	ADC_Sleep
  93              	.L2:
 142:.\CommonFunctions.c ****     }
 143:.\CommonFunctions.c **** }
  94              		.loc 1 143 0
  95 001c BD46     		mov	sp, r7
  96              		@ sp needed
  97 001e 80BD     		pop	{r7, pc}
  98              	.L5:
  99              		.align	2
 100              	.L4:
 101 0020 00003A40 		.word	1077542912
 102              		.cfi_endproc
 103              	.LFE36:
 104              		.size	PrepareForDeepSleep, .-PrepareForDeepSleep
 105              		.section	.text.WakeupFromDeepSleep,"ax",%progbits
 106              		.align	2
 107              		.global	WakeupFromDeepSleep
 108              		.code	16
 109              		.thumb_func
 110              		.type	WakeupFromDeepSleep, %function
 111              	WakeupFromDeepSleep:
 112              	.LFB37:
 144:.\CommonFunctions.c **** 
 145:.\CommonFunctions.c **** /*****************************************************************************
 146:.\CommonFunctions.c **** * Function Name: WakeupFromDeepSleep()
 147:.\CommonFunctions.c **** ******************************************************************************
 148:.\CommonFunctions.c **** * Summary:
 149:.\CommonFunctions.c **** * Wakes up the system from deep sleep
 150:.\CommonFunctions.c **** *
 151:.\CommonFunctions.c **** * Parameters:
 152:.\CommonFunctions.c **** * None
 153:.\CommonFunctions.c **** *
 154:.\CommonFunctions.c **** * Return:
 155:.\CommonFunctions.c **** * None
 156:.\CommonFunctions.c **** *
 157:.\CommonFunctions.c **** * Theory:
 158:.\CommonFunctions.c **** * Enables the reference signal and start ADC for temperature measurement.
 159:.\CommonFunctions.c **** *
 160:.\CommonFunctions.c **** * Side Effects:
 161:.\CommonFunctions.c **** * None
 162:.\CommonFunctions.c **** *
 163:.\CommonFunctions.c **** * Note:
 164:.\CommonFunctions.c **** *
 165:.\CommonFunctions.c **** *****************************************************************************/
 166:.\CommonFunctions.c **** void WakeupFromDeepSleep (void)
 167:.\CommonFunctions.c **** {
 113              		.loc 1 167 0
 114              		.cfi_startproc
 115 0000 80B5     		push	{r7, lr}
 116              		.cfi_def_cfa_offset 8
 117              		.cfi_offset 7, -8
 118              		.cfi_offset 14, -4
ARM GAS  C:\Users\Lonnie\AppData\Local\Temp\ccrBJHam.s 			page 6


 119 0002 00AF     		add	r7, sp, #0
 120              		.cfi_def_cfa_register 7
 168:.\CommonFunctions.c ****     /* Generate reference signals for temperature measurement */
 169:.\CommonFunctions.c ****     V_HIGH_Write(DRIVE_HIGH);
 121              		.loc 1 169 0
 122 0004 0120     		mov	r0, #1
 123 0006 FFF7FEFF 		bl	V_HIGH_Write
 170:.\CommonFunctions.c ****     V_LOW_Write(DRIVE_LOW);
 124              		.loc 1 170 0
 125 000a 0020     		mov	r0, #0
 126 000c FFF7FEFF 		bl	V_LOW_Write
 171:.\CommonFunctions.c ****     
 172:.\CommonFunctions.c ****     /* Enable ADC for temperature measurement */
 173:.\CommonFunctions.c ****     ADC_Wakeup();
 127              		.loc 1 173 0
 128 0010 FFF7FEFF 		bl	ADC_Wakeup
 174:.\CommonFunctions.c **** }
 129              		.loc 1 174 0
 130 0014 BD46     		mov	sp, r7
 131              		@ sp needed
 132 0016 80BD     		pop	{r7, pc}
 133              		.cfi_endproc
 134              	.LFE37:
 135              		.size	WakeupFromDeepSleep, .-WakeupFromDeepSleep
 136              		.text
 137              	.Letext0:
 138              		.file 2 "Generated_Source\\PSoC4/cytypes.h"