ARM GAS  C:\Users\Lonnie\AppData\Local\Temp\ccW83GUf.s 			page 1


   1              		.cpu cortex-m0
   2              		.fpu softvfp
   3              		.eabi_attribute 20, 1
   4              		.eabi_attribute 21, 1
   5              		.eabi_attribute 23, 3
   6              		.eabi_attribute 24, 1
   7              		.eabi_attribute 25, 1
   8              		.eabi_attribute 26, 1
   9              		.eabi_attribute 30, 6
  10              		.eabi_attribute 34, 0
  11              		.eabi_attribute 18, 4
  12              		.code	16
  13              		.file	"cyfitter_cfg.c"
  14              		.text
  15              	.Ltext0:
  16              		.cfi_sections	.debug_frame
  17              		.section	.text.CYMEMZERO,"ax",%progbits
  18              		.align	2
  19              		.code	16
  20              		.thumb_func
  21              		.type	CYMEMZERO, %function
  22              	CYMEMZERO:
  23              	.LFB2:
  24              		.file 1 ".\\Generated_Source\\PSoC4\\cyfitter_cfg.c"
   1:.\Generated_Source\PSoC4/cyfitter_cfg.c **** /*******************************************************************************
   2:.\Generated_Source\PSoC4/cyfitter_cfg.c **** * File Name: cyfitter_cfg.c
   3:.\Generated_Source\PSoC4/cyfitter_cfg.c **** * 
   4:.\Generated_Source\PSoC4/cyfitter_cfg.c **** * PSoC Creator  3.3
   5:.\Generated_Source\PSoC4/cyfitter_cfg.c **** *
   6:.\Generated_Source\PSoC4/cyfitter_cfg.c **** * Description:
   7:.\Generated_Source\PSoC4/cyfitter_cfg.c **** * This file contains device initialization code.
   8:.\Generated_Source\PSoC4/cyfitter_cfg.c **** * Except for the user defined sections in CyClockStartupError(), this file should not be modified.
   9:.\Generated_Source\PSoC4/cyfitter_cfg.c **** * This file is automatically generated by PSoC Creator.
  10:.\Generated_Source\PSoC4/cyfitter_cfg.c **** *
  11:.\Generated_Source\PSoC4/cyfitter_cfg.c **** ********************************************************************************
  12:.\Generated_Source\PSoC4/cyfitter_cfg.c **** * Copyright (c) 2007-2015 Cypress Semiconductor.  All rights reserved.
  13:.\Generated_Source\PSoC4/cyfitter_cfg.c **** * You may use this file only in accordance with the license, terms, conditions, 
  14:.\Generated_Source\PSoC4/cyfitter_cfg.c **** * disclaimers, and limitations in the end user license agreement accompanying 
  15:.\Generated_Source\PSoC4/cyfitter_cfg.c **** * the software package with which this file was provided.
  16:.\Generated_Source\PSoC4/cyfitter_cfg.c **** ********************************************************************************/
  17:.\Generated_Source\PSoC4/cyfitter_cfg.c **** 
  18:.\Generated_Source\PSoC4/cyfitter_cfg.c **** #include <string.h>
  19:.\Generated_Source\PSoC4/cyfitter_cfg.c **** #include "cytypes.h"
  20:.\Generated_Source\PSoC4/cyfitter_cfg.c **** #include "cydevice_trm.h"
  21:.\Generated_Source\PSoC4/cyfitter_cfg.c **** #include "cyfitter.h"
  22:.\Generated_Source\PSoC4/cyfitter_cfg.c **** #include "CyLib.h"
  23:.\Generated_Source\PSoC4/cyfitter_cfg.c **** #include "cyfitter_cfg.h"
  24:.\Generated_Source\PSoC4/cyfitter_cfg.c **** 
  25:.\Generated_Source\PSoC4/cyfitter_cfg.c **** 
  26:.\Generated_Source\PSoC4/cyfitter_cfg.c **** #if defined(__GNUC__) || defined(__ARMCC_VERSION)
  27:.\Generated_Source\PSoC4/cyfitter_cfg.c ****     #define CYPACKED 
  28:.\Generated_Source\PSoC4/cyfitter_cfg.c ****     #define CYPACKED_ATTR __attribute__ ((packed))
  29:.\Generated_Source\PSoC4/cyfitter_cfg.c ****     #define CYALIGNED __attribute__ ((aligned))
  30:.\Generated_Source\PSoC4/cyfitter_cfg.c ****     #define CY_CFG_UNUSED __attribute__ ((unused))
  31:.\Generated_Source\PSoC4/cyfitter_cfg.c ****     #define CY_CFG_SECTION __attribute__ ((section(".psocinit")))
  32:.\Generated_Source\PSoC4/cyfitter_cfg.c ****     
  33:.\Generated_Source\PSoC4/cyfitter_cfg.c ****     #if defined(__ARMCC_VERSION)
ARM GAS  C:\Users\Lonnie\AppData\Local\Temp\ccW83GUf.s 			page 2


  34:.\Generated_Source\PSoC4/cyfitter_cfg.c ****         #define CY_CFG_MEMORY_BARRIER() __memory_changed()
  35:.\Generated_Source\PSoC4/cyfitter_cfg.c ****     #else
  36:.\Generated_Source\PSoC4/cyfitter_cfg.c ****         #define CY_CFG_MEMORY_BARRIER() __sync_synchronize()
  37:.\Generated_Source\PSoC4/cyfitter_cfg.c ****     #endif
  38:.\Generated_Source\PSoC4/cyfitter_cfg.c ****     
  39:.\Generated_Source\PSoC4/cyfitter_cfg.c **** #elif defined(__ICCARM__)
  40:.\Generated_Source\PSoC4/cyfitter_cfg.c ****     #include <intrinsics.h>
  41:.\Generated_Source\PSoC4/cyfitter_cfg.c **** 
  42:.\Generated_Source\PSoC4/cyfitter_cfg.c ****     #define CYPACKED __packed
  43:.\Generated_Source\PSoC4/cyfitter_cfg.c ****     #define CYPACKED_ATTR 
  44:.\Generated_Source\PSoC4/cyfitter_cfg.c ****     #define CYALIGNED _Pragma("data_alignment=4")
  45:.\Generated_Source\PSoC4/cyfitter_cfg.c ****     #define CY_CFG_UNUSED _Pragma("diag_suppress=Pe177")
  46:.\Generated_Source\PSoC4/cyfitter_cfg.c ****     #define CY_CFG_SECTION _Pragma("location=\".psocinit\"")
  47:.\Generated_Source\PSoC4/cyfitter_cfg.c ****     
  48:.\Generated_Source\PSoC4/cyfitter_cfg.c ****     #define CY_CFG_MEMORY_BARRIER() __DMB()
  49:.\Generated_Source\PSoC4/cyfitter_cfg.c ****     
  50:.\Generated_Source\PSoC4/cyfitter_cfg.c **** #else
  51:.\Generated_Source\PSoC4/cyfitter_cfg.c ****     #error Unsupported toolchain
  52:.\Generated_Source\PSoC4/cyfitter_cfg.c **** #endif
  53:.\Generated_Source\PSoC4/cyfitter_cfg.c **** 
  54:.\Generated_Source\PSoC4/cyfitter_cfg.c **** 
  55:.\Generated_Source\PSoC4/cyfitter_cfg.c **** CY_CFG_UNUSED
  56:.\Generated_Source\PSoC4/cyfitter_cfg.c **** static void CYMEMZERO(void *s, size_t n);
  57:.\Generated_Source\PSoC4/cyfitter_cfg.c **** CY_CFG_UNUSED
  58:.\Generated_Source\PSoC4/cyfitter_cfg.c **** static void CYMEMZERO(void *s, size_t n)
  59:.\Generated_Source\PSoC4/cyfitter_cfg.c **** {
  25              		.loc 1 59 0
  26              		.cfi_startproc
  27 0000 80B5     		push	{r7, lr}
  28              		.cfi_def_cfa_offset 8
  29              		.cfi_offset 7, -8
  30              		.cfi_offset 14, -4
  31 0002 82B0     		sub	sp, sp, #8
  32              		.cfi_def_cfa_offset 16
  33 0004 00AF     		add	r7, sp, #0
  34              		.cfi_def_cfa_register 7
  35 0006 7860     		str	r0, [r7, #4]
  36 0008 3960     		str	r1, [r7]
  60:.\Generated_Source\PSoC4/cyfitter_cfg.c **** 	(void)memset(s, 0, n);
  37              		.loc 1 60 0
  38 000a 7A68     		ldr	r2, [r7, #4]
  39 000c 3B68     		ldr	r3, [r7]
  40 000e 101C     		mov	r0, r2
  41 0010 0021     		mov	r1, #0
  42 0012 1A1C     		mov	r2, r3
  43 0014 FFF7FEFF 		bl	memset
  61:.\Generated_Source\PSoC4/cyfitter_cfg.c **** }
  44              		.loc 1 61 0
  45 0018 BD46     		mov	sp, r7
  46 001a 02B0     		add	sp, sp, #8
  47              		@ sp needed
  48 001c 80BD     		pop	{r7, pc}
  49              		.cfi_endproc
  50              	.LFE2:
  51              		.size	CYMEMZERO, .-CYMEMZERO
  52 001e C046     		.section	.text.CYCONFIGCPY,"ax",%progbits
  53              		.align	2
ARM GAS  C:\Users\Lonnie\AppData\Local\Temp\ccW83GUf.s 			page 3


  54              		.code	16
  55              		.thumb_func
  56              		.type	CYCONFIGCPY, %function
  57              	CYCONFIGCPY:
  58              	.LFB3:
  62:.\Generated_Source\PSoC4/cyfitter_cfg.c **** CY_CFG_UNUSED
  63:.\Generated_Source\PSoC4/cyfitter_cfg.c **** static void CYCONFIGCPY(void *dest, const void *src, size_t n);
  64:.\Generated_Source\PSoC4/cyfitter_cfg.c **** CY_CFG_UNUSED
  65:.\Generated_Source\PSoC4/cyfitter_cfg.c **** static void CYCONFIGCPY(void *dest, const void *src, size_t n)
  66:.\Generated_Source\PSoC4/cyfitter_cfg.c **** {
  59              		.loc 1 66 0
  60              		.cfi_startproc
  61 0000 80B5     		push	{r7, lr}
  62              		.cfi_def_cfa_offset 8
  63              		.cfi_offset 7, -8
  64              		.cfi_offset 14, -4
  65 0002 84B0     		sub	sp, sp, #16
  66              		.cfi_def_cfa_offset 24
  67 0004 00AF     		add	r7, sp, #0
  68              		.cfi_def_cfa_register 7
  69 0006 F860     		str	r0, [r7, #12]
  70 0008 B960     		str	r1, [r7, #8]
  71 000a 7A60     		str	r2, [r7, #4]
  67:.\Generated_Source\PSoC4/cyfitter_cfg.c **** 	(void)memcpy(dest, src, n);
  72              		.loc 1 67 0
  73 000c F968     		ldr	r1, [r7, #12]
  74 000e BA68     		ldr	r2, [r7, #8]
  75 0010 7B68     		ldr	r3, [r7, #4]
  76 0012 081C     		mov	r0, r1
  77 0014 111C     		mov	r1, r2
  78 0016 1A1C     		mov	r2, r3
  79 0018 FFF7FEFF 		bl	memcpy
  68:.\Generated_Source\PSoC4/cyfitter_cfg.c **** }
  80              		.loc 1 68 0
  81 001c BD46     		mov	sp, r7
  82 001e 04B0     		add	sp, sp, #16
  83              		@ sp needed
  84 0020 80BD     		pop	{r7, pc}
  85              		.cfi_endproc
  86              	.LFE3:
  87              		.size	CYCONFIGCPY, .-CYCONFIGCPY
  88 0022 C046     		.section	.text.CYCONFIGCPYCODE,"ax",%progbits
  89              		.align	2
  90              		.code	16
  91              		.thumb_func
  92              		.type	CYCONFIGCPYCODE, %function
  93              	CYCONFIGCPYCODE:
  94              	.LFB4:
  69:.\Generated_Source\PSoC4/cyfitter_cfg.c **** CY_CFG_UNUSED
  70:.\Generated_Source\PSoC4/cyfitter_cfg.c **** static void CYCONFIGCPYCODE(void *dest, const void *src, size_t n);
  71:.\Generated_Source\PSoC4/cyfitter_cfg.c **** CY_CFG_UNUSED
  72:.\Generated_Source\PSoC4/cyfitter_cfg.c **** static void CYCONFIGCPYCODE(void *dest, const void *src, size_t n)
  73:.\Generated_Source\PSoC4/cyfitter_cfg.c **** {
  95              		.loc 1 73 0
  96              		.cfi_startproc
  97 0000 80B5     		push	{r7, lr}
  98              		.cfi_def_cfa_offset 8
ARM GAS  C:\Users\Lonnie\AppData\Local\Temp\ccW83GUf.s 			page 4


  99              		.cfi_offset 7, -8
 100              		.cfi_offset 14, -4
 101 0002 84B0     		sub	sp, sp, #16
 102              		.cfi_def_cfa_offset 24
 103 0004 00AF     		add	r7, sp, #0
 104              		.cfi_def_cfa_register 7
 105 0006 F860     		str	r0, [r7, #12]
 106 0008 B960     		str	r1, [r7, #8]
 107 000a 7A60     		str	r2, [r7, #4]
  74:.\Generated_Source\PSoC4/cyfitter_cfg.c **** 	(void)memcpy(dest, src, n);
 108              		.loc 1 74 0
 109 000c F968     		ldr	r1, [r7, #12]
 110 000e BA68     		ldr	r2, [r7, #8]
 111 0010 7B68     		ldr	r3, [r7, #4]
 112 0012 081C     		mov	r0, r1
 113 0014 111C     		mov	r1, r2
 114 0016 1A1C     		mov	r2, r3
 115 0018 FFF7FEFF 		bl	memcpy
  75:.\Generated_Source\PSoC4/cyfitter_cfg.c **** }
 116              		.loc 1 75 0
 117 001c BD46     		mov	sp, r7
 118 001e 04B0     		add	sp, sp, #16
 119              		@ sp needed
 120 0020 80BD     		pop	{r7, pc}
 121              		.cfi_endproc
 122              	.LFE4:
 123              		.size	CYCONFIGCPYCODE, .-CYCONFIGCPYCODE
 124 0022 C046     		.section	.text.cfg_write_bytes32,"ax",%progbits
 125              		.align	2
 126              		.code	16
 127              		.thumb_func
 128              		.type	cfg_write_bytes32, %function
 129              	cfg_write_bytes32:
 130              	.LFB5:
  76:.\Generated_Source\PSoC4/cyfitter_cfg.c **** 
  77:.\Generated_Source\PSoC4/cyfitter_cfg.c **** 
  78:.\Generated_Source\PSoC4/cyfitter_cfg.c **** 
  79:.\Generated_Source\PSoC4/cyfitter_cfg.c **** /* Clock startup error codes                                                   */
  80:.\Generated_Source\PSoC4/cyfitter_cfg.c **** #define CYCLOCKSTART_NO_ERROR    0u
  81:.\Generated_Source\PSoC4/cyfitter_cfg.c **** #define CYCLOCKSTART_XTAL_ERROR  1u
  82:.\Generated_Source\PSoC4/cyfitter_cfg.c **** #define CYCLOCKSTART_32KHZ_ERROR 2u
  83:.\Generated_Source\PSoC4/cyfitter_cfg.c **** #define CYCLOCKSTART_PLL_ERROR   3u
  84:.\Generated_Source\PSoC4/cyfitter_cfg.c **** 
  85:.\Generated_Source\PSoC4/cyfitter_cfg.c **** #ifdef CY_NEED_CYCLOCKSTARTUPERROR
  86:.\Generated_Source\PSoC4/cyfitter_cfg.c **** /*******************************************************************************
  87:.\Generated_Source\PSoC4/cyfitter_cfg.c **** * Function Name: CyClockStartupError
  88:.\Generated_Source\PSoC4/cyfitter_cfg.c **** ********************************************************************************
  89:.\Generated_Source\PSoC4/cyfitter_cfg.c **** * Summary:
  90:.\Generated_Source\PSoC4/cyfitter_cfg.c **** *  If an error is encountered during clock configuration (crystal startup error,
  91:.\Generated_Source\PSoC4/cyfitter_cfg.c **** *  PLL lock error, etc.), the system will end up here.  Unless reimplemented by
  92:.\Generated_Source\PSoC4/cyfitter_cfg.c **** *  the customer, this function will stop in an infinite loop.
  93:.\Generated_Source\PSoC4/cyfitter_cfg.c **** *
  94:.\Generated_Source\PSoC4/cyfitter_cfg.c **** * Parameters:
  95:.\Generated_Source\PSoC4/cyfitter_cfg.c **** *   void
  96:.\Generated_Source\PSoC4/cyfitter_cfg.c **** *
  97:.\Generated_Source\PSoC4/cyfitter_cfg.c **** * Return:
  98:.\Generated_Source\PSoC4/cyfitter_cfg.c **** *   void
ARM GAS  C:\Users\Lonnie\AppData\Local\Temp\ccW83GUf.s 			page 5


  99:.\Generated_Source\PSoC4/cyfitter_cfg.c **** *
 100:.\Generated_Source\PSoC4/cyfitter_cfg.c **** *******************************************************************************/
 101:.\Generated_Source\PSoC4/cyfitter_cfg.c **** CY_CFG_UNUSED
 102:.\Generated_Source\PSoC4/cyfitter_cfg.c **** static void CyClockStartupError(uint8 errorCode);
 103:.\Generated_Source\PSoC4/cyfitter_cfg.c **** CY_CFG_UNUSED
 104:.\Generated_Source\PSoC4/cyfitter_cfg.c **** static void CyClockStartupError(uint8 errorCode)
 105:.\Generated_Source\PSoC4/cyfitter_cfg.c **** {
 106:.\Generated_Source\PSoC4/cyfitter_cfg.c ****     /* To remove the compiler warning if errorCode not used.                */
 107:.\Generated_Source\PSoC4/cyfitter_cfg.c ****     errorCode = errorCode;
 108:.\Generated_Source\PSoC4/cyfitter_cfg.c **** 
 109:.\Generated_Source\PSoC4/cyfitter_cfg.c ****     /* `#START CyClockStartupError` */
 110:.\Generated_Source\PSoC4/cyfitter_cfg.c **** 
 111:.\Generated_Source\PSoC4/cyfitter_cfg.c ****     /* If we have a clock startup error (bad MHz crystal, PLL lock, etc.),  */
 112:.\Generated_Source\PSoC4/cyfitter_cfg.c ****     /* we will end up here to allow the customer to implement something to  */
 113:.\Generated_Source\PSoC4/cyfitter_cfg.c ****     /* deal with the clock condition.                                       */
 114:.\Generated_Source\PSoC4/cyfitter_cfg.c **** 
 115:.\Generated_Source\PSoC4/cyfitter_cfg.c ****     /* `#END` */
 116:.\Generated_Source\PSoC4/cyfitter_cfg.c **** 
 117:.\Generated_Source\PSoC4/cyfitter_cfg.c ****     /* If nothing else, stop here since the clocks have not started         */
 118:.\Generated_Source\PSoC4/cyfitter_cfg.c ****     /* correctly.                                                           */
 119:.\Generated_Source\PSoC4/cyfitter_cfg.c ****     while(1) {}
 120:.\Generated_Source\PSoC4/cyfitter_cfg.c **** }
 121:.\Generated_Source\PSoC4/cyfitter_cfg.c **** #endif
 122:.\Generated_Source\PSoC4/cyfitter_cfg.c **** 
 123:.\Generated_Source\PSoC4/cyfitter_cfg.c **** #define CY_CFG_BASE_ADDR_COUNT 5u
 124:.\Generated_Source\PSoC4/cyfitter_cfg.c **** CYPACKED typedef struct
 125:.\Generated_Source\PSoC4/cyfitter_cfg.c **** {
 126:.\Generated_Source\PSoC4/cyfitter_cfg.c **** 	uint8 offset;
 127:.\Generated_Source\PSoC4/cyfitter_cfg.c **** 	uint8 value;
 128:.\Generated_Source\PSoC4/cyfitter_cfg.c **** } CYPACKED_ATTR cy_cfg_addrvalue_t;
 129:.\Generated_Source\PSoC4/cyfitter_cfg.c **** 
 130:.\Generated_Source\PSoC4/cyfitter_cfg.c **** 
 131:.\Generated_Source\PSoC4/cyfitter_cfg.c **** 
 132:.\Generated_Source\PSoC4/cyfitter_cfg.c **** /*******************************************************************************
 133:.\Generated_Source\PSoC4/cyfitter_cfg.c **** * Function Name: cfg_write_bytes32
 134:.\Generated_Source\PSoC4/cyfitter_cfg.c **** ********************************************************************************
 135:.\Generated_Source\PSoC4/cyfitter_cfg.c **** * Summary:
 136:.\Generated_Source\PSoC4/cyfitter_cfg.c **** *  This function is used for setting up the chip configuration areas that
 137:.\Generated_Source\PSoC4/cyfitter_cfg.c **** *  contain relatively sparse data.
 138:.\Generated_Source\PSoC4/cyfitter_cfg.c **** *
 139:.\Generated_Source\PSoC4/cyfitter_cfg.c **** * Parameters:
 140:.\Generated_Source\PSoC4/cyfitter_cfg.c **** *   void
 141:.\Generated_Source\PSoC4/cyfitter_cfg.c **** *
 142:.\Generated_Source\PSoC4/cyfitter_cfg.c **** * Return:
 143:.\Generated_Source\PSoC4/cyfitter_cfg.c **** *   void
 144:.\Generated_Source\PSoC4/cyfitter_cfg.c **** *
 145:.\Generated_Source\PSoC4/cyfitter_cfg.c **** *******************************************************************************/
 146:.\Generated_Source\PSoC4/cyfitter_cfg.c **** static void cfg_write_bytes32(const uint32 addr_table[], const cy_cfg_addrvalue_t data_table[]);
 147:.\Generated_Source\PSoC4/cyfitter_cfg.c **** static void cfg_write_bytes32(const uint32 addr_table[], const cy_cfg_addrvalue_t data_table[])
 148:.\Generated_Source\PSoC4/cyfitter_cfg.c **** {
 131              		.loc 1 148 0
 132              		.cfi_startproc
 133 0000 80B5     		push	{r7, lr}
 134              		.cfi_def_cfa_offset 8
 135              		.cfi_offset 7, -8
 136              		.cfi_offset 14, -4
 137 0002 86B0     		sub	sp, sp, #24
ARM GAS  C:\Users\Lonnie\AppData\Local\Temp\ccW83GUf.s 			page 6


 138              		.cfi_def_cfa_offset 32
 139 0004 00AF     		add	r7, sp, #0
 140              		.cfi_def_cfa_register 7
 141 0006 7860     		str	r0, [r7, #4]
 142 0008 3960     		str	r1, [r7]
 149:.\Generated_Source\PSoC4/cyfitter_cfg.c **** 	/* For 32-bit little-endian architectures */
 150:.\Generated_Source\PSoC4/cyfitter_cfg.c **** 	uint32 i, j = 0u;
 143              		.loc 1 150 0
 144 000a 0023     		mov	r3, #0
 145 000c 3B61     		str	r3, [r7, #16]
 151:.\Generated_Source\PSoC4/cyfitter_cfg.c **** 	for (i = 0u; i < CY_CFG_BASE_ADDR_COUNT; i++)
 146              		.loc 1 151 0
 147 000e 0023     		mov	r3, #0
 148 0010 7B61     		str	r3, [r7, #20]
 149 0012 2FE0     		b	.L5
 150              	.L8:
 151              	.LBB2:
 152:.\Generated_Source\PSoC4/cyfitter_cfg.c **** 	{
 153:.\Generated_Source\PSoC4/cyfitter_cfg.c **** 		uint32 baseAddr = addr_table[i];
 152              		.loc 1 153 0
 153 0014 7B69     		ldr	r3, [r7, #20]
 154 0016 9B00     		lsl	r3, r3, #2
 155 0018 7A68     		ldr	r2, [r7, #4]
 156 001a D318     		add	r3, r2, r3
 157 001c 1B68     		ldr	r3, [r3]
 158 001e BB60     		str	r3, [r7, #8]
 154:.\Generated_Source\PSoC4/cyfitter_cfg.c **** 		uint8 count = (uint8)baseAddr;
 159              		.loc 1 154 0
 160 0020 0F23     		mov	r3, #15
 161 0022 FB18     		add	r3, r7, r3
 162 0024 BA68     		ldr	r2, [r7, #8]
 163 0026 1A70     		strb	r2, [r3]
 155:.\Generated_Source\PSoC4/cyfitter_cfg.c **** 		baseAddr &= 0xFFFFFF00u;
 164              		.loc 1 155 0
 165 0028 BB68     		ldr	r3, [r7, #8]
 166 002a FF22     		mov	r2, #255
 167 002c 9343     		bic	r3, r2
 168 002e BB60     		str	r3, [r7, #8]
 156:.\Generated_Source\PSoC4/cyfitter_cfg.c **** 		while (count != 0u)
 169              		.loc 1 156 0
 170 0030 18E0     		b	.L6
 171              	.L7:
 157:.\Generated_Source\PSoC4/cyfitter_cfg.c **** 		{
 158:.\Generated_Source\PSoC4/cyfitter_cfg.c **** 			CY_SET_XTND_REG8((void CYFAR *)(baseAddr + data_table[j].offset), data_table[j].value);
 172              		.loc 1 158 0
 173 0032 3B69     		ldr	r3, [r7, #16]
 174 0034 5B00     		lsl	r3, r3, #1
 175 0036 3A68     		ldr	r2, [r7]
 176 0038 D318     		add	r3, r2, r3
 177 003a 1B78     		ldrb	r3, [r3]
 178 003c 1A1C     		mov	r2, r3
 179 003e BB68     		ldr	r3, [r7, #8]
 180 0040 D318     		add	r3, r2, r3
 181 0042 191C     		mov	r1, r3
 182 0044 3B69     		ldr	r3, [r7, #16]
 183 0046 5B00     		lsl	r3, r3, #1
 184 0048 3A68     		ldr	r2, [r7]
ARM GAS  C:\Users\Lonnie\AppData\Local\Temp\ccW83GUf.s 			page 7


 185 004a D318     		add	r3, r2, r3
 186 004c 5B78     		ldrb	r3, [r3, #1]
 187 004e 0B70     		strb	r3, [r1]
 159:.\Generated_Source\PSoC4/cyfitter_cfg.c **** 			j++;
 188              		.loc 1 159 0
 189 0050 3B69     		ldr	r3, [r7, #16]
 190 0052 0133     		add	r3, r3, #1
 191 0054 3B61     		str	r3, [r7, #16]
 160:.\Generated_Source\PSoC4/cyfitter_cfg.c **** 			count--;
 192              		.loc 1 160 0
 193 0056 0F23     		mov	r3, #15
 194 0058 FB18     		add	r3, r7, r3
 195 005a 1A78     		ldrb	r2, [r3]
 196 005c 0F23     		mov	r3, #15
 197 005e FB18     		add	r3, r7, r3
 198 0060 013A     		sub	r2, r2, #1
 199 0062 1A70     		strb	r2, [r3]
 200              	.L6:
 156:.\Generated_Source\PSoC4/cyfitter_cfg.c **** 		{
 201              		.loc 1 156 0
 202 0064 0F23     		mov	r3, #15
 203 0066 FB18     		add	r3, r7, r3
 204 0068 1B78     		ldrb	r3, [r3]
 205 006a 002B     		cmp	r3, #0
 206 006c E1D1     		bne	.L7
 207              	.LBE2:
 151:.\Generated_Source\PSoC4/cyfitter_cfg.c **** 	{
 208              		.loc 1 151 0 discriminator 2
 209 006e 7B69     		ldr	r3, [r7, #20]
 210 0070 0133     		add	r3, r3, #1
 211 0072 7B61     		str	r3, [r7, #20]
 212              	.L5:
 151:.\Generated_Source\PSoC4/cyfitter_cfg.c **** 	{
 213              		.loc 1 151 0 is_stmt 0 discriminator 1
 214 0074 7B69     		ldr	r3, [r7, #20]
 215 0076 042B     		cmp	r3, #4
 216 0078 CCD9     		bls	.L8
 161:.\Generated_Source\PSoC4/cyfitter_cfg.c **** 		}
 162:.\Generated_Source\PSoC4/cyfitter_cfg.c **** 	}
 163:.\Generated_Source\PSoC4/cyfitter_cfg.c **** }
 217              		.loc 1 163 0 is_stmt 1
 218 007a BD46     		mov	sp, r7
 219 007c 06B0     		add	sp, sp, #24
 220              		@ sp needed
 221 007e 80BD     		pop	{r7, pc}
 222              		.cfi_endproc
 223              	.LFE5:
 224              		.size	cfg_write_bytes32, .-cfg_write_bytes32
 225              		.section	.psocinit,"ax",%progbits
 226              		.align	2
 227              		.code	16
 228              		.thumb_func
 229              		.type	ClockSetup, %function
 230              	ClockSetup:
 231              	.LFB6:
 164:.\Generated_Source\PSoC4/cyfitter_cfg.c **** 
 165:.\Generated_Source\PSoC4/cyfitter_cfg.c **** 
ARM GAS  C:\Users\Lonnie\AppData\Local\Temp\ccW83GUf.s 			page 8


 166:.\Generated_Source\PSoC4/cyfitter_cfg.c **** /*******************************************************************************
 167:.\Generated_Source\PSoC4/cyfitter_cfg.c **** * Function Name: ClockSetup
 168:.\Generated_Source\PSoC4/cyfitter_cfg.c **** ********************************************************************************
 169:.\Generated_Source\PSoC4/cyfitter_cfg.c **** *
 170:.\Generated_Source\PSoC4/cyfitter_cfg.c **** * Summary:
 171:.\Generated_Source\PSoC4/cyfitter_cfg.c **** *   Performs the initialization of all of the clocks in the device based on the
 172:.\Generated_Source\PSoC4/cyfitter_cfg.c **** *   settings in the Clock tab of the DWR.  This includes enabling the requested
 173:.\Generated_Source\PSoC4/cyfitter_cfg.c **** *   clocks and setting the necessary dividers to produce the desired frequency. 
 174:.\Generated_Source\PSoC4/cyfitter_cfg.c **** *
 175:.\Generated_Source\PSoC4/cyfitter_cfg.c **** * Parameters:
 176:.\Generated_Source\PSoC4/cyfitter_cfg.c **** *   void
 177:.\Generated_Source\PSoC4/cyfitter_cfg.c **** *
 178:.\Generated_Source\PSoC4/cyfitter_cfg.c **** * Return:
 179:.\Generated_Source\PSoC4/cyfitter_cfg.c **** *   void
 180:.\Generated_Source\PSoC4/cyfitter_cfg.c **** *
 181:.\Generated_Source\PSoC4/cyfitter_cfg.c **** *******************************************************************************/
 182:.\Generated_Source\PSoC4/cyfitter_cfg.c **** static void ClockSetup(void);
 183:.\Generated_Source\PSoC4/cyfitter_cfg.c **** CY_CFG_SECTION
 184:.\Generated_Source\PSoC4/cyfitter_cfg.c **** static void ClockSetup(void)
 185:.\Generated_Source\PSoC4/cyfitter_cfg.c **** {
 232              		.loc 1 185 0
 233              		.cfi_startproc
 234 0000 80B5     		push	{r7, lr}
 235              		.cfi_def_cfa_offset 8
 236              		.cfi_offset 7, -8
 237              		.cfi_offset 14, -4
 238 0002 00AF     		add	r7, sp, #0
 239              		.cfi_def_cfa_register 7
 186:.\Generated_Source\PSoC4/cyfitter_cfg.c **** 
 187:.\Generated_Source\PSoC4/cyfitter_cfg.c **** 	/* Set Flash Cycles based on max possible frequency in case a glitch occurs during ClockSetup(). *
 188:.\Generated_Source\PSoC4/cyfitter_cfg.c **** 	CY_SET_REG32((void CYXDATA *)(CYREG_CPUSS_FLASH_CTL), (0x0012u));
 240              		.loc 1 188 0
 241 0004 274B     		ldr	r3, .L10
 242 0006 1222     		mov	r2, #18
 243 0008 1A60     		str	r2, [r3]
 189:.\Generated_Source\PSoC4/cyfitter_cfg.c **** 
 190:.\Generated_Source\PSoC4/cyfitter_cfg.c **** 	/* Start the WCO */
 191:.\Generated_Source\PSoC4/cyfitter_cfg.c **** 	CySysClkWcoStart();
 244              		.loc 1 191 0
 245 000a FFF7FEFF 		bl	CySysClkWcoStart
 192:.\Generated_Source\PSoC4/cyfitter_cfg.c **** 	CyDelayCycles(12000000u); /* WCO may take up to 500ms to start */
 246              		.loc 1 192 0
 247 000e 264B     		ldr	r3, .L10+4
 248 0010 181C     		mov	r0, r3
 249 0012 FFF7FEFF 		bl	CyDelayCycles
 193:.\Generated_Source\PSoC4/cyfitter_cfg.c **** 	(void)CySysClkWcoSetPowerMode(CY_SYS_CLK_WCO_LPM);    /* Switch to the low power mode */
 250              		.loc 1 193 0
 251 0016 0120     		mov	r0, #1
 252 0018 FFF7FEFF 		bl	CySysClkWcoSetPowerMode
 194:.\Generated_Source\PSoC4/cyfitter_cfg.c **** 
 195:.\Generated_Source\PSoC4/cyfitter_cfg.c **** 	/* Setup and trim IMO based on desired frequency. */
 196:.\Generated_Source\PSoC4/cyfitter_cfg.c **** 	CySysClkWriteImoFreq(24u);
 253              		.loc 1 196 0
 254 001c 1820     		mov	r0, #24
 255 001e FFF7FEFF 		bl	CySysClkWriteImoFreq
 197:.\Generated_Source\PSoC4/cyfitter_cfg.c **** 	/* CYDEV_CLK_ILO_CONFIG Starting address: CYDEV_CLK_ILO_CONFIG */
 198:.\Generated_Source\PSoC4/cyfitter_cfg.c **** 	CY_SET_XTND_REG32((void CYFAR *)(CYREG_CLK_ILO_CONFIG), 0x80000006u);
ARM GAS  C:\Users\Lonnie\AppData\Local\Temp\ccW83GUf.s 			page 9


 256              		.loc 1 198 0
 257 0022 224B     		ldr	r3, .L10+8
 258 0024 224A     		ldr	r2, .L10+12
 259 0026 1A60     		str	r2, [r3]
 199:.\Generated_Source\PSoC4/cyfitter_cfg.c **** 
 200:.\Generated_Source\PSoC4/cyfitter_cfg.c **** 	/* CYDEV_WDT_CONFIG Starting address: CYDEV_WDT_CONFIG */
 201:.\Generated_Source\PSoC4/cyfitter_cfg.c **** 	CY_SET_XTND_REG32((void CYFAR *)(CYREG_WDT_CONFIG), 0x40000000u);
 260              		.loc 1 201 0
 261 0028 224B     		ldr	r3, .L10+16
 262 002a 8022     		mov	r2, #128
 263 002c D205     		lsl	r2, r2, #23
 264 002e 1A60     		str	r2, [r3]
 202:.\Generated_Source\PSoC4/cyfitter_cfg.c **** 
 203:.\Generated_Source\PSoC4/cyfitter_cfg.c **** 
 204:.\Generated_Source\PSoC4/cyfitter_cfg.c **** 	/* Enable fast start mode for XO */
 205:.\Generated_Source\PSoC4/cyfitter_cfg.c **** 	CY_SET_REG32((void*)CYREG_BLE_BLERD_BB_XO, CY_GET_REG32((void*)CYREG_BLE_BLERD_BB_XO) | (uint32)0x
 265              		.loc 1 205 0
 266 0030 214B     		ldr	r3, .L10+20
 267 0032 214A     		ldr	r2, .L10+20
 268 0034 1268     		ldr	r2, [r2]
 269 0036 0221     		mov	r1, #2
 270 0038 0A43     		orr	r2, r1
 271 003a 1A60     		str	r2, [r3]
 206:.\Generated_Source\PSoC4/cyfitter_cfg.c **** 	CY_SET_XTND_REG32((void CYFAR *)(CYREG_BLE_BLERD_BB_XO_CAPTRIM), 0x00002D6Au);
 272              		.loc 1 206 0
 273 003c 1F4B     		ldr	r3, .L10+24
 274 003e 204A     		ldr	r2, .L10+28
 275 0040 1A60     		str	r2, [r3]
 207:.\Generated_Source\PSoC4/cyfitter_cfg.c **** 	/* Disable Crystal Stable Interrupt before enabling ECO */
 208:.\Generated_Source\PSoC4/cyfitter_cfg.c **** 	CY_SET_REG32((void*)CYREG_BLE_BLESS_LL_DSM_CTRL, CY_GET_REG32((void*)CYREG_BLE_BLESS_LL_DSM_CTRL) 
 276              		.loc 1 208 0
 277 0042 204B     		ldr	r3, .L10+32
 278 0044 1F4A     		ldr	r2, .L10+32
 279 0046 1268     		ldr	r2, [r2]
 280 0048 0821     		mov	r1, #8
 281 004a 8A43     		bic	r2, r1
 282 004c 1A60     		str	r2, [r3]
 209:.\Generated_Source\PSoC4/cyfitter_cfg.c **** 	/* Start the ECO and do not check status since it is not needed for HFCLK */
 210:.\Generated_Source\PSoC4/cyfitter_cfg.c **** 	(void)CySysClkEcoStart(2000u);
 283              		.loc 1 210 0
 284 004e FA23     		mov	r3, #250
 285 0050 DB00     		lsl	r3, r3, #3
 286 0052 181C     		mov	r0, r3
 287 0054 FFF7FEFF 		bl	CySysClkEcoStart
 211:.\Generated_Source\PSoC4/cyfitter_cfg.c **** 	CyDelayUs(1500u); /* Wait to stabalize */
 288              		.loc 1 211 0
 289 0058 1B4B     		ldr	r3, .L10+36
 290 005a 181C     		mov	r0, r3
 291 005c FFF7FEFF 		bl	CyDelayUs
 212:.\Generated_Source\PSoC4/cyfitter_cfg.c **** 
 213:.\Generated_Source\PSoC4/cyfitter_cfg.c **** 	/* Setup phase aligned clocks */
 214:.\Generated_Source\PSoC4/cyfitter_cfg.c **** 	CY_SET_REG32((void *)CYREG_PERI_DIV_16_CTL1, 0x00000E00u);
 292              		.loc 1 214 0
 293 0060 1A4B     		ldr	r3, .L10+40
 294 0062 E022     		mov	r2, #224
 295 0064 1201     		lsl	r2, r2, #4
 296 0066 1A60     		str	r2, [r3]
ARM GAS  C:\Users\Lonnie\AppData\Local\Temp\ccW83GUf.s 			page 10


 215:.\Generated_Source\PSoC4/cyfitter_cfg.c **** 	CY_SET_REG32((void *)CYREG_PERI_DIV_CMD, 0x8000FF41u);
 297              		.loc 1 215 0
 298 0068 194B     		ldr	r3, .L10+44
 299 006a 1A4A     		ldr	r2, .L10+48
 300 006c 1A60     		str	r2, [r3]
 216:.\Generated_Source\PSoC4/cyfitter_cfg.c **** 	CY_SET_REG32((void *)CYREG_PERI_DIV_16_CTL0, 0x00000C00u);
 301              		.loc 1 216 0
 302 006e 1A4B     		ldr	r3, .L10+52
 303 0070 C022     		mov	r2, #192
 304 0072 1201     		lsl	r2, r2, #4
 305 0074 1A60     		str	r2, [r3]
 217:.\Generated_Source\PSoC4/cyfitter_cfg.c **** 	CY_SET_REG32((void *)CYREG_PERI_DIV_CMD, 0x8000FF40u);
 306              		.loc 1 217 0
 307 0076 164B     		ldr	r3, .L10+44
 308 0078 184A     		ldr	r2, .L10+56
 309 007a 1A60     		str	r2, [r3]
 218:.\Generated_Source\PSoC4/cyfitter_cfg.c **** 
 219:.\Generated_Source\PSoC4/cyfitter_cfg.c **** 	/* CYDEV_CLK_IMO_CONFIG Starting address: CYDEV_CLK_IMO_CONFIG */
 220:.\Generated_Source\PSoC4/cyfitter_cfg.c **** 	CY_SET_XTND_REG32((void CYFAR *)(CYREG_CLK_IMO_CONFIG), 0x82000000u);
 310              		.loc 1 220 0
 311 007c 184B     		ldr	r3, .L10+60
 312 007e 8222     		mov	r2, #130
 313 0080 1206     		lsl	r2, r2, #24
 314 0082 1A60     		str	r2, [r3]
 221:.\Generated_Source\PSoC4/cyfitter_cfg.c **** 
 222:.\Generated_Source\PSoC4/cyfitter_cfg.c **** 	/* CYDEV_PERI_PCLK_CTL6 Starting address: CYDEV_PERI_PCLK_CTL6 */
 223:.\Generated_Source\PSoC4/cyfitter_cfg.c **** 	CY_SET_XTND_REG32((void CYFAR *)(CYREG_PERI_PCLK_CTL6), 0x00000041u);
 315              		.loc 1 223 0
 316 0084 174B     		ldr	r3, .L10+64
 317 0086 4122     		mov	r2, #65
 318 0088 1A60     		str	r2, [r3]
 224:.\Generated_Source\PSoC4/cyfitter_cfg.c **** 
 225:.\Generated_Source\PSoC4/cyfitter_cfg.c **** 	/* CYDEV_PERI_PCLK_CTL1 Starting address: CYDEV_PERI_PCLK_CTL1 */
 226:.\Generated_Source\PSoC4/cyfitter_cfg.c **** 	CY_SET_XTND_REG32((void CYFAR *)(CYREG_PERI_PCLK_CTL1), 0x00000040u);
 319              		.loc 1 226 0
 320 008a 174B     		ldr	r3, .L10+68
 321 008c 4022     		mov	r2, #64
 322 008e 1A60     		str	r2, [r3]
 227:.\Generated_Source\PSoC4/cyfitter_cfg.c **** 
 228:.\Generated_Source\PSoC4/cyfitter_cfg.c **** 	CY_SET_XTND_REG32((void CYFAR *)(CYREG_WDT_CONFIG), 0x40000000u);
 323              		.loc 1 228 0
 324 0090 084B     		ldr	r3, .L10+16
 325 0092 8022     		mov	r2, #128
 326 0094 D205     		lsl	r2, r2, #23
 327 0096 1A60     		str	r2, [r3]
 229:.\Generated_Source\PSoC4/cyfitter_cfg.c **** 	/* Set Flash Cycles based on newly configured 24.00MHz HFCLK. */
 230:.\Generated_Source\PSoC4/cyfitter_cfg.c **** 	CY_SET_REG32((void CYXDATA *)(CYREG_CPUSS_FLASH_CTL), (0x0011u));
 328              		.loc 1 230 0
 329 0098 024B     		ldr	r3, .L10
 330 009a 1122     		mov	r2, #17
 331 009c 1A60     		str	r2, [r3]
 231:.\Generated_Source\PSoC4/cyfitter_cfg.c **** }
 332              		.loc 1 231 0
 333 009e BD46     		mov	sp, r7
 334              		@ sp needed
 335 00a0 80BD     		pop	{r7, pc}
 336              	.L11:
ARM GAS  C:\Users\Lonnie\AppData\Local\Temp\ccW83GUf.s 			page 11


 337 00a2 C046     		.align	2
 338              	.L10:
 339 00a4 30001040 		.word	1074790448
 340 00a8 001BB700 		.word	12000000
 341 00ac 04010B40 		.word	1074462980
 342 00b0 06000080 		.word	-2147483642
 343 00b4 0C020B40 		.word	1074463244
 344 00b8 78002E40 		.word	1076756600
 345 00bc 7C002E40 		.word	1076756604
 346 00c0 6A2D0000 		.word	11626
 347 00c4 6CF02E40 		.word	1076818028
 348 00c8 DC050000 		.word	1500
 349 00cc 04030140 		.word	1073808132
 350 00d0 00000140 		.word	1073807360
 351 00d4 41FF0080 		.word	-2147418303
 352 00d8 00030140 		.word	1073808128
 353 00dc 40FF0080 		.word	-2147418304
 354 00e0 08010B40 		.word	1074462984
 355 00e4 18010140 		.word	1073807640
 356 00e8 04010140 		.word	1073807620
 357              		.cfi_endproc
 358              	.LFE6:
 359              		.size	ClockSetup, .-ClockSetup
 360              		.section	.text.AnalogSetDefault,"ax",%progbits
 361              		.align	2
 362              		.code	16
 363              		.thumb_func
 364              		.type	AnalogSetDefault, %function
 365              	AnalogSetDefault:
 366              	.LFB7:
 232:.\Generated_Source\PSoC4/cyfitter_cfg.c **** 
 233:.\Generated_Source\PSoC4/cyfitter_cfg.c **** 
 234:.\Generated_Source\PSoC4/cyfitter_cfg.c **** /* Analog API Functions */
 235:.\Generated_Source\PSoC4/cyfitter_cfg.c **** 
 236:.\Generated_Source\PSoC4/cyfitter_cfg.c **** 
 237:.\Generated_Source\PSoC4/cyfitter_cfg.c **** /*******************************************************************************
 238:.\Generated_Source\PSoC4/cyfitter_cfg.c **** * Function Name: AnalogSetDefault
 239:.\Generated_Source\PSoC4/cyfitter_cfg.c **** ********************************************************************************
 240:.\Generated_Source\PSoC4/cyfitter_cfg.c **** *
 241:.\Generated_Source\PSoC4/cyfitter_cfg.c **** * Summary:
 242:.\Generated_Source\PSoC4/cyfitter_cfg.c **** *  Sets up the analog portions of the chip to default values based on chip
 243:.\Generated_Source\PSoC4/cyfitter_cfg.c **** *  configuration options from the project.
 244:.\Generated_Source\PSoC4/cyfitter_cfg.c **** *
 245:.\Generated_Source\PSoC4/cyfitter_cfg.c **** * Parameters:
 246:.\Generated_Source\PSoC4/cyfitter_cfg.c **** *  void
 247:.\Generated_Source\PSoC4/cyfitter_cfg.c **** *
 248:.\Generated_Source\PSoC4/cyfitter_cfg.c **** * Return:
 249:.\Generated_Source\PSoC4/cyfitter_cfg.c **** *  void
 250:.\Generated_Source\PSoC4/cyfitter_cfg.c **** *
 251:.\Generated_Source\PSoC4/cyfitter_cfg.c **** *******************************************************************************/
 252:.\Generated_Source\PSoC4/cyfitter_cfg.c **** static void AnalogSetDefault(void);
 253:.\Generated_Source\PSoC4/cyfitter_cfg.c **** static void AnalogSetDefault(void)
 254:.\Generated_Source\PSoC4/cyfitter_cfg.c **** {
 367              		.loc 1 254 0
 368              		.cfi_startproc
 369 0000 80B5     		push	{r7, lr}
 370              		.cfi_def_cfa_offset 8
ARM GAS  C:\Users\Lonnie\AppData\Local\Temp\ccW83GUf.s 			page 12


 371              		.cfi_offset 7, -8
 372              		.cfi_offset 14, -4
 373 0002 00AF     		add	r7, sp, #0
 374              		.cfi_def_cfa_register 7
 255:.\Generated_Source\PSoC4/cyfitter_cfg.c **** 	CY_SET_XTND_REG32((void CYFAR *)CYREG_CTBM0_CTB_CTRL, 0x80000000u);
 375              		.loc 1 255 0
 376 0004 0E4B     		ldr	r3, .L13
 377 0006 8022     		mov	r2, #128
 378 0008 1206     		lsl	r2, r2, #24
 379 000a 1A60     		str	r2, [r3]
 256:.\Generated_Source\PSoC4/cyfitter_cfg.c **** 	CY_SET_XTND_REG32((void CYFAR *)CYREG_CTBM0_DFT_CTRL, 0x00000003u);
 380              		.loc 1 256 0
 381 000c 0D4B     		ldr	r3, .L13+4
 382 000e 0322     		mov	r2, #3
 383 0010 1A60     		str	r2, [r3]
 257:.\Generated_Source\PSoC4/cyfitter_cfg.c **** 	CY_SET_XTND_REG32((void CYFAR *)CYREG_CTBM0_OA0_SW, 0x00000101u);
 384              		.loc 1 257 0
 385 0012 0D4B     		ldr	r3, .L13+8
 386 0014 0222     		mov	r2, #2
 387 0016 FF32     		add	r2, r2, #255
 388 0018 1A60     		str	r2, [r3]
 258:.\Generated_Source\PSoC4/cyfitter_cfg.c **** 	CY_SET_XTND_REG32((void CYFAR *)CYREG_CTBM0_OA1_SW, 0x00000102u);
 389              		.loc 1 258 0
 390 001a 0C4B     		ldr	r3, .L13+12
 391 001c 8122     		mov	r2, #129
 392 001e 5200     		lsl	r2, r2, #1
 393 0020 1A60     		str	r2, [r3]
 259:.\Generated_Source\PSoC4/cyfitter_cfg.c **** 	CY_SET_XTND_REG32((void CYFAR *)CYREG_CTBM1_DFT_CTRL, 0x00000003u);
 394              		.loc 1 259 0
 395 0022 0B4B     		ldr	r3, .L13+16
 396 0024 0322     		mov	r2, #3
 397 0026 1A60     		str	r2, [r3]
 260:.\Generated_Source\PSoC4/cyfitter_cfg.c **** 	CY_SET_XTND_REG32((void CYFAR *)CYREG_SAR_CTRL, 0x08000000u);
 398              		.loc 1 260 0
 399 0028 0A4B     		ldr	r3, .L13+20
 400 002a 8022     		mov	r2, #128
 401 002c 1205     		lsl	r2, r2, #20
 402 002e 1A60     		str	r2, [r3]
 261:.\Generated_Source\PSoC4/cyfitter_cfg.c **** 	CY_SET_XTND_REG32((void CYFAR *)CYREG_PASS_DSAB_DSAB_CTRL, 0x00000000u);
 403              		.loc 1 261 0
 404 0030 094B     		ldr	r3, .L13+24
 405 0032 0022     		mov	r2, #0
 406 0034 1A60     		str	r2, [r3]
 262:.\Generated_Source\PSoC4/cyfitter_cfg.c **** 	SetAnalogRoutingPumps(1);
 407              		.loc 1 262 0
 408 0036 0120     		mov	r0, #1
 409 0038 FFF7FEFF 		bl	SetAnalogRoutingPumps
 263:.\Generated_Source\PSoC4/cyfitter_cfg.c **** }
 410              		.loc 1 263 0
 411 003c BD46     		mov	sp, r7
 412              		@ sp needed
 413 003e 80BD     		pop	{r7, pc}
 414              	.L14:
 415              		.align	2
 416              	.L13:
 417 0040 00003040 		.word	1076887552
 418 0044 30003040 		.word	1076887600
ARM GAS  C:\Users\Lonnie\AppData\Local\Temp\ccW83GUf.s 			page 13


 419 0048 80003040 		.word	1076887680
 420 004c 88003040 		.word	1076887688
 421 0050 30003140 		.word	1076953136
 422 0054 00003A40 		.word	1077542912
 423 0058 000E3F40 		.word	1077874176
 424              		.cfi_endproc
 425              	.LFE7:
 426              		.size	AnalogSetDefault, .-AnalogSetDefault
 427              		.section	.text.SetAnalogRoutingPumps,"ax",%progbits
 428              		.align	2
 429              		.global	SetAnalogRoutingPumps
 430              		.code	16
 431              		.thumb_func
 432              		.type	SetAnalogRoutingPumps, %function
 433              	SetAnalogRoutingPumps:
 434              	.LFB8:
 264:.\Generated_Source\PSoC4/cyfitter_cfg.c **** 
 265:.\Generated_Source\PSoC4/cyfitter_cfg.c **** 
 266:.\Generated_Source\PSoC4/cyfitter_cfg.c **** /*******************************************************************************
 267:.\Generated_Source\PSoC4/cyfitter_cfg.c **** * Function Name: SetAnalogRoutingPumps
 268:.\Generated_Source\PSoC4/cyfitter_cfg.c **** ********************************************************************************
 269:.\Generated_Source\PSoC4/cyfitter_cfg.c **** *
 270:.\Generated_Source\PSoC4/cyfitter_cfg.c **** * Summary:
 271:.\Generated_Source\PSoC4/cyfitter_cfg.c **** * Enables or disables the analog pumps feeding analog routing switches.
 272:.\Generated_Source\PSoC4/cyfitter_cfg.c **** * Intended to be called at startup, based on the Vdda system configuration;
 273:.\Generated_Source\PSoC4/cyfitter_cfg.c **** * may be called during operation when the user informs us that the Vdda voltage crossed the pump th
 274:.\Generated_Source\PSoC4/cyfitter_cfg.c **** *
 275:.\Generated_Source\PSoC4/cyfitter_cfg.c **** * Parameters:
 276:.\Generated_Source\PSoC4/cyfitter_cfg.c **** *  enabled - 1 to enable the pumps, 0 to disable the pumps
 277:.\Generated_Source\PSoC4/cyfitter_cfg.c **** *
 278:.\Generated_Source\PSoC4/cyfitter_cfg.c **** * Return:
 279:.\Generated_Source\PSoC4/cyfitter_cfg.c **** *  void
 280:.\Generated_Source\PSoC4/cyfitter_cfg.c **** *
 281:.\Generated_Source\PSoC4/cyfitter_cfg.c **** *******************************************************************************/
 282:.\Generated_Source\PSoC4/cyfitter_cfg.c **** void SetAnalogRoutingPumps(uint8 enabled)
 283:.\Generated_Source\PSoC4/cyfitter_cfg.c **** {
 435              		.loc 1 283 0
 436              		.cfi_startproc
 437 0000 80B5     		push	{r7, lr}
 438              		.cfi_def_cfa_offset 8
 439              		.cfi_offset 7, -8
 440              		.cfi_offset 14, -4
 441 0002 84B0     		sub	sp, sp, #16
 442              		.cfi_def_cfa_offset 24
 443 0004 00AF     		add	r7, sp, #0
 444              		.cfi_def_cfa_register 7
 445 0006 021C     		mov	r2, r0
 446 0008 FB1D     		add	r3, r7, #7
 447 000a 1A70     		strb	r2, [r3]
 284:.\Generated_Source\PSoC4/cyfitter_cfg.c **** 	uint32 regValue = CY_GET_XTND_REG32((void *)(CYREG_SAR_PUMP_CTRL));
 448              		.loc 1 284 0
 449 000c 0B4B     		ldr	r3, .L18
 450 000e 1B68     		ldr	r3, [r3]
 451 0010 FB60     		str	r3, [r7, #12]
 285:.\Generated_Source\PSoC4/cyfitter_cfg.c **** 	if (enabled != 0u)
 452              		.loc 1 285 0
 453 0012 FB1D     		add	r3, r7, #7
ARM GAS  C:\Users\Lonnie\AppData\Local\Temp\ccW83GUf.s 			page 14


 454 0014 1B78     		ldrb	r3, [r3]
 455 0016 002B     		cmp	r3, #0
 456 0018 05D0     		beq	.L16
 286:.\Generated_Source\PSoC4/cyfitter_cfg.c **** 	{
 287:.\Generated_Source\PSoC4/cyfitter_cfg.c **** 		regValue |= 0x80000000u;
 457              		.loc 1 287 0
 458 001a FB68     		ldr	r3, [r7, #12]
 459 001c 8022     		mov	r2, #128
 460 001e 1206     		lsl	r2, r2, #24
 461 0020 1343     		orr	r3, r2
 462 0022 FB60     		str	r3, [r7, #12]
 463 0024 03E0     		b	.L17
 464              	.L16:
 288:.\Generated_Source\PSoC4/cyfitter_cfg.c **** 	}
 289:.\Generated_Source\PSoC4/cyfitter_cfg.c **** 	else
 290:.\Generated_Source\PSoC4/cyfitter_cfg.c **** 	{
 291:.\Generated_Source\PSoC4/cyfitter_cfg.c **** 		regValue &= ~0x80000000u;
 465              		.loc 1 291 0
 466 0026 FB68     		ldr	r3, [r7, #12]
 467 0028 5B00     		lsl	r3, r3, #1
 468 002a 5B08     		lsr	r3, r3, #1
 469 002c FB60     		str	r3, [r7, #12]
 470              	.L17:
 292:.\Generated_Source\PSoC4/cyfitter_cfg.c **** 	}
 293:.\Generated_Source\PSoC4/cyfitter_cfg.c **** 	CY_SET_XTND_REG32((void *)(CYREG_SAR_PUMP_CTRL), regValue);
 471              		.loc 1 293 0
 472 002e 034B     		ldr	r3, .L18
 473 0030 FA68     		ldr	r2, [r7, #12]
 474 0032 1A60     		str	r2, [r3]
 294:.\Generated_Source\PSoC4/cyfitter_cfg.c **** }
 475              		.loc 1 294 0
 476 0034 BD46     		mov	sp, r7
 477 0036 04B0     		add	sp, sp, #16
 478              		@ sp needed
 479 0038 80BD     		pop	{r7, pc}
 480              	.L19:
 481 003a C046     		.align	2
 482              	.L18:
 483 003c 80033A40 		.word	1077543808
 484              		.cfi_endproc
 485              	.LFE8:
 486              		.size	SetAnalogRoutingPumps, .-SetAnalogRoutingPumps
 487              		.global	AMuxSeq_CYAMUXSIDE_A_curChannel
 488              		.data
 489              		.type	AMuxSeq_CYAMUXSIDE_A_curChannel, %object
 490              		.size	AMuxSeq_CYAMUXSIDE_A_curChannel, 1
 491              	AMuxSeq_CYAMUXSIDE_A_curChannel:
 492 0000 FF       		.byte	-1
 493              		.section	.text.AMuxSeq_CYAMUXSIDE_A_DisconnectAll,"ax",%progbits
 494              		.align	2
 495              		.global	AMuxSeq_CYAMUXSIDE_A_DisconnectAll
 496              		.code	16
 497              		.thumb_func
 498              		.type	AMuxSeq_CYAMUXSIDE_A_DisconnectAll, %function
 499              	AMuxSeq_CYAMUXSIDE_A_DisconnectAll:
 500              	.LFB9:
 295:.\Generated_Source\PSoC4/cyfitter_cfg.c **** 
ARM GAS  C:\Users\Lonnie\AppData\Local\Temp\ccW83GUf.s 			page 15


 296:.\Generated_Source\PSoC4/cyfitter_cfg.c **** #define CY_AMUX_UNUSED CYREG_CM0_ROM_DWT
 297:.\Generated_Source\PSoC4/cyfitter_cfg.c **** int8 AMuxSeq_CYAMUXSIDE_A_curChannel = -1;
 298:.\Generated_Source\PSoC4/cyfitter_cfg.c **** 
 299:.\Generated_Source\PSoC4/cyfitter_cfg.c **** void AMuxSeq_CYAMUXSIDE_A_DisconnectAll(void)
 300:.\Generated_Source\PSoC4/cyfitter_cfg.c **** {
 501              		.loc 1 300 0
 502              		.cfi_startproc
 503 0000 80B5     		push	{r7, lr}
 504              		.cfi_def_cfa_offset 8
 505              		.cfi_offset 7, -8
 506              		.cfi_offset 14, -4
 507 0002 00AF     		add	r7, sp, #0
 508              		.cfi_def_cfa_register 7
 301:.\Generated_Source\PSoC4/cyfitter_cfg.c **** 	AMuxSeq_CYAMUXSIDE_A_curChannel = -1;
 509              		.loc 1 301 0
 510 0004 064B     		ldr	r3, .L21
 511 0006 FF22     		mov	r2, #255
 512 0008 1A70     		strb	r2, [r3]
 302:.\Generated_Source\PSoC4/cyfitter_cfg.c **** 	CY_SET_REG32((void CYXDATA *)CYREG_SAR_MUX_SWITCH_CLEAR0, (0x01u));
 513              		.loc 1 302 0
 514 000a 064B     		ldr	r3, .L21+4
 515 000c 0122     		mov	r2, #1
 516 000e 1A60     		str	r2, [r3]
 303:.\Generated_Source\PSoC4/cyfitter_cfg.c **** 	CY_SET_REG32((void CYXDATA *)CYREG_SAR_MUX_SWITCH_CLEAR0, (0x20u));
 517              		.loc 1 303 0
 518 0010 044B     		ldr	r3, .L21+4
 519 0012 2022     		mov	r2, #32
 520 0014 1A60     		str	r2, [r3]
 304:.\Generated_Source\PSoC4/cyfitter_cfg.c **** 	CY_SET_REG32((void CYXDATA *)CYREG_SAR_MUX_SWITCH_CLEAR0, (0x04u));
 521              		.loc 1 304 0
 522 0016 034B     		ldr	r3, .L21+4
 523 0018 0422     		mov	r2, #4
 524 001a 1A60     		str	r2, [r3]
 305:.\Generated_Source\PSoC4/cyfitter_cfg.c **** }
 525              		.loc 1 305 0
 526 001c BD46     		mov	sp, r7
 527              		@ sp needed
 528 001e 80BD     		pop	{r7, pc}
 529              	.L22:
 530              		.align	2
 531              	.L21:
 532 0020 00000000 		.word	AMuxSeq_CYAMUXSIDE_A_curChannel
 533 0024 04033A40 		.word	1077543684
 534              		.cfi_endproc
 535              	.LFE9:
 536              		.size	AMuxSeq_CYAMUXSIDE_A_DisconnectAll, .-AMuxSeq_CYAMUXSIDE_A_DisconnectAll
 537              		.section	.text.AMuxSeq_CYAMUXSIDE_A_Next,"ax",%progbits
 538              		.align	2
 539              		.global	AMuxSeq_CYAMUXSIDE_A_Next
 540              		.code	16
 541              		.thumb_func
 542              		.type	AMuxSeq_CYAMUXSIDE_A_Next, %function
 543              	AMuxSeq_CYAMUXSIDE_A_Next:
 544              	.LFB10:
 306:.\Generated_Source\PSoC4/cyfitter_cfg.c **** 
 307:.\Generated_Source\PSoC4/cyfitter_cfg.c **** void AMuxSeq_CYAMUXSIDE_A_Next(void)
 308:.\Generated_Source\PSoC4/cyfitter_cfg.c **** {
ARM GAS  C:\Users\Lonnie\AppData\Local\Temp\ccW83GUf.s 			page 16


 545              		.loc 1 308 0
 546              		.cfi_startproc
 547 0000 80B5     		push	{r7, lr}
 548              		.cfi_def_cfa_offset 8
 549              		.cfi_offset 7, -8
 550              		.cfi_offset 14, -4
 551 0002 00AF     		add	r7, sp, #0
 552              		.cfi_def_cfa_register 7
 309:.\Generated_Source\PSoC4/cyfitter_cfg.c **** 	AMuxSeq_CYAMUXSIDE_A_curChannel++;
 553              		.loc 1 309 0
 554 0004 1C4B     		ldr	r3, .L34
 555 0006 1B78     		ldrb	r3, [r3]
 556 0008 DBB2     		uxtb	r3, r3
 557 000a DBB2     		uxtb	r3, r3
 558 000c 0133     		add	r3, r3, #1
 559 000e DBB2     		uxtb	r3, r3
 560 0010 DAB2     		uxtb	r2, r3
 561 0012 194B     		ldr	r3, .L34
 562 0014 1A70     		strb	r2, [r3]
 310:.\Generated_Source\PSoC4/cyfitter_cfg.c **** 	switch (AMuxSeq_CYAMUXSIDE_A_curChannel)
 563              		.loc 1 310 0
 564 0016 184B     		ldr	r3, .L34
 565 0018 1B78     		ldrb	r3, [r3]
 566 001a 5BB2     		sxtb	r3, r3
 567 001c 072B     		cmp	r3, #7
 568 001e 10D8     		bhi	.L24
 569 0020 9A00     		lsl	r2, r3, #2
 570 0022 164B     		ldr	r3, .L34+4
 571 0024 D318     		add	r3, r2, r3
 572 0026 1B68     		ldr	r3, [r3]
 573 0028 9F46     		mov	pc, r3
 574              		.section	.rodata
 575              		.align	2
 576              	.L26:
 577 0000 48000000 		.word	.L25
 578 0004 56000000 		.word	.L27
 579 0008 64000000 		.word	.L28
 580 000c 42000000 		.word	.L24
 581 0010 2A000000 		.word	.L29
 582 0014 30000000 		.word	.L30
 583 0018 36000000 		.word	.L31
 584 001c 3C000000 		.word	.L32
 585              		.section	.text.AMuxSeq_CYAMUXSIDE_A_Next
 586              	.L29:
 311:.\Generated_Source\PSoC4/cyfitter_cfg.c **** 	{
 312:.\Generated_Source\PSoC4/cyfitter_cfg.c **** 	case 4: /* to force jump table (not executed) */
 313:.\Generated_Source\PSoC4/cyfitter_cfg.c **** 		AMuxSeq_CYAMUXSIDE_A_curChannel = 4;
 587              		.loc 1 313 0
 588 002a 134B     		ldr	r3, .L34
 589 002c 0422     		mov	r2, #4
 590 002e 1A70     		strb	r2, [r3]
 591              	.L30:
 314:.\Generated_Source\PSoC4/cyfitter_cfg.c **** 	case 5: /* to force jump table (not executed) */
 315:.\Generated_Source\PSoC4/cyfitter_cfg.c **** 		AMuxSeq_CYAMUXSIDE_A_curChannel = 5;
 592              		.loc 1 315 0
 593 0030 114B     		ldr	r3, .L34
 594 0032 0522     		mov	r2, #5
ARM GAS  C:\Users\Lonnie\AppData\Local\Temp\ccW83GUf.s 			page 17


 595 0034 1A70     		strb	r2, [r3]
 596              	.L31:
 316:.\Generated_Source\PSoC4/cyfitter_cfg.c **** 	case 6: /* to force jump table (not executed) */
 317:.\Generated_Source\PSoC4/cyfitter_cfg.c **** 		AMuxSeq_CYAMUXSIDE_A_curChannel = 6;
 597              		.loc 1 317 0
 598 0036 104B     		ldr	r3, .L34
 599 0038 0622     		mov	r2, #6
 600 003a 1A70     		strb	r2, [r3]
 601              	.L32:
 318:.\Generated_Source\PSoC4/cyfitter_cfg.c **** 	case 7: /* to force jump table (not executed) */
 319:.\Generated_Source\PSoC4/cyfitter_cfg.c **** 		AMuxSeq_CYAMUXSIDE_A_curChannel = 7;
 602              		.loc 1 319 0
 603 003c 0E4B     		ldr	r3, .L34
 604 003e 0722     		mov	r2, #7
 605 0040 1A70     		strb	r2, [r3]
 606              	.L24:
 320:.\Generated_Source\PSoC4/cyfitter_cfg.c **** 	case 3:
 321:.\Generated_Source\PSoC4/cyfitter_cfg.c **** 	default:
 322:.\Generated_Source\PSoC4/cyfitter_cfg.c **** 		AMuxSeq_CYAMUXSIDE_A_curChannel = 0;
 607              		.loc 1 322 0
 608 0042 0D4B     		ldr	r3, .L34
 609 0044 0022     		mov	r2, #0
 610 0046 1A70     		strb	r2, [r3]
 611              	.L25:
 323:.\Generated_Source\PSoC4/cyfitter_cfg.c **** 	case 0:
 324:.\Generated_Source\PSoC4/cyfitter_cfg.c **** 		CY_SET_REG32((void CYXDATA *)CYREG_SAR_MUX_SWITCH_CLEAR0, (0x04u));
 612              		.loc 1 324 0
 613 0048 0D4B     		ldr	r3, .L34+8
 614 004a 0422     		mov	r2, #4
 615 004c 1A60     		str	r2, [r3]
 325:.\Generated_Source\PSoC4/cyfitter_cfg.c **** 		CY_SET_REG32((void CYXDATA *)CYREG_SAR_MUX_SWITCH0, (0x01u));
 616              		.loc 1 325 0
 617 004e 0D4B     		ldr	r3, .L34+12
 618 0050 0122     		mov	r2, #1
 619 0052 1A60     		str	r2, [r3]
 326:.\Generated_Source\PSoC4/cyfitter_cfg.c **** 		break;
 620              		.loc 1 326 0
 621 0054 0DE0     		b	.L23
 622              	.L27:
 327:.\Generated_Source\PSoC4/cyfitter_cfg.c **** 	case 1:
 328:.\Generated_Source\PSoC4/cyfitter_cfg.c **** 		CY_SET_REG32((void CYXDATA *)CYREG_SAR_MUX_SWITCH_CLEAR0, (0x01u));
 623              		.loc 1 328 0
 624 0056 0A4B     		ldr	r3, .L34+8
 625 0058 0122     		mov	r2, #1
 626 005a 1A60     		str	r2, [r3]
 329:.\Generated_Source\PSoC4/cyfitter_cfg.c **** 		CY_SET_REG32((void CYXDATA *)CYREG_SAR_MUX_SWITCH0, (0x20u));
 627              		.loc 1 329 0
 628 005c 094B     		ldr	r3, .L34+12
 629 005e 2022     		mov	r2, #32
 630 0060 1A60     		str	r2, [r3]
 330:.\Generated_Source\PSoC4/cyfitter_cfg.c **** 		break;
 631              		.loc 1 330 0
 632 0062 06E0     		b	.L23
 633              	.L28:
 331:.\Generated_Source\PSoC4/cyfitter_cfg.c **** 	case 2:
 332:.\Generated_Source\PSoC4/cyfitter_cfg.c **** 		CY_SET_REG32((void CYXDATA *)CYREG_SAR_MUX_SWITCH_CLEAR0, (0x20u));
 634              		.loc 1 332 0
ARM GAS  C:\Users\Lonnie\AppData\Local\Temp\ccW83GUf.s 			page 18


 635 0064 064B     		ldr	r3, .L34+8
 636 0066 2022     		mov	r2, #32
 637 0068 1A60     		str	r2, [r3]
 333:.\Generated_Source\PSoC4/cyfitter_cfg.c **** 		CY_SET_REG32((void CYXDATA *)CYREG_SAR_MUX_SWITCH0, (0x04u));
 638              		.loc 1 333 0
 639 006a 064B     		ldr	r3, .L34+12
 640 006c 0422     		mov	r2, #4
 641 006e 1A60     		str	r2, [r3]
 334:.\Generated_Source\PSoC4/cyfitter_cfg.c **** 		break;
 642              		.loc 1 334 0
 643 0070 C046     		mov	r8, r8
 644              	.L23:
 335:.\Generated_Source\PSoC4/cyfitter_cfg.c **** 	}
 336:.\Generated_Source\PSoC4/cyfitter_cfg.c **** }
 645              		.loc 1 336 0
 646 0072 BD46     		mov	sp, r7
 647              		@ sp needed
 648 0074 80BD     		pop	{r7, pc}
 649              	.L35:
 650 0076 C046     		.align	2
 651              	.L34:
 652 0078 00000000 		.word	AMuxSeq_CYAMUXSIDE_A_curChannel
 653 007c 00000000 		.word	.L26
 654 0080 04033A40 		.word	1077543684
 655 0084 00033A40 		.word	1077543680
 656              		.cfi_endproc
 657              	.LFE10:
 658              		.size	AMuxSeq_CYAMUXSIDE_A_Next, .-AMuxSeq_CYAMUXSIDE_A_Next
 659              		.global	AMuxSeq_CYAMUXSIDE_B_curChannel
 660              		.data
 661              		.type	AMuxSeq_CYAMUXSIDE_B_curChannel, %object
 662              		.size	AMuxSeq_CYAMUXSIDE_B_curChannel, 1
 663              	AMuxSeq_CYAMUXSIDE_B_curChannel:
 664 0001 FF       		.byte	-1
 665              		.section	.text.AMuxSeq_CYAMUXSIDE_B_DisconnectAll,"ax",%progbits
 666              		.align	2
 667              		.global	AMuxSeq_CYAMUXSIDE_B_DisconnectAll
 668              		.code	16
 669              		.thumb_func
 670              		.type	AMuxSeq_CYAMUXSIDE_B_DisconnectAll, %function
 671              	AMuxSeq_CYAMUXSIDE_B_DisconnectAll:
 672              	.LFB11:
 337:.\Generated_Source\PSoC4/cyfitter_cfg.c **** 
 338:.\Generated_Source\PSoC4/cyfitter_cfg.c **** int8 AMuxSeq_CYAMUXSIDE_B_curChannel = -1;
 339:.\Generated_Source\PSoC4/cyfitter_cfg.c **** 
 340:.\Generated_Source\PSoC4/cyfitter_cfg.c **** void AMuxSeq_CYAMUXSIDE_B_DisconnectAll(void)
 341:.\Generated_Source\PSoC4/cyfitter_cfg.c **** {
 673              		.loc 1 341 0
 674              		.cfi_startproc
 675 0000 80B5     		push	{r7, lr}
 676              		.cfi_def_cfa_offset 8
 677              		.cfi_offset 7, -8
 678              		.cfi_offset 14, -4
 679 0002 00AF     		add	r7, sp, #0
 680              		.cfi_def_cfa_register 7
 342:.\Generated_Source\PSoC4/cyfitter_cfg.c **** 	AMuxSeq_CYAMUXSIDE_B_curChannel = -1;
 681              		.loc 1 342 0
ARM GAS  C:\Users\Lonnie\AppData\Local\Temp\ccW83GUf.s 			page 19


 682 0004 084B     		ldr	r3, .L37
 683 0006 FF22     		mov	r2, #255
 684 0008 1A70     		strb	r2, [r3]
 343:.\Generated_Source\PSoC4/cyfitter_cfg.c **** 	CY_SET_REG32((void CYXDATA *)CYREG_SAR_MUX_SWITCH_CLEAR0, (0x400u));
 685              		.loc 1 343 0
 686 000a 084B     		ldr	r3, .L37+4
 687 000c 8022     		mov	r2, #128
 688 000e D200     		lsl	r2, r2, #3
 689 0010 1A60     		str	r2, [r3]
 344:.\Generated_Source\PSoC4/cyfitter_cfg.c **** 	CY_SET_REG32((void CYXDATA *)CYREG_SAR_MUX_SWITCH_CLEAR0, (0x1000u));
 690              		.loc 1 344 0
 691 0012 064B     		ldr	r3, .L37+4
 692 0014 8022     		mov	r2, #128
 693 0016 5201     		lsl	r2, r2, #5
 694 0018 1A60     		str	r2, [r3]
 345:.\Generated_Source\PSoC4/cyfitter_cfg.c **** 	CY_SET_REG32((void CYXDATA *)CYREG_SAR_MUX_SWITCH_CLEAR0, (0x400u));
 695              		.loc 1 345 0
 696 001a 044B     		ldr	r3, .L37+4
 697 001c 8022     		mov	r2, #128
 698 001e D200     		lsl	r2, r2, #3
 699 0020 1A60     		str	r2, [r3]
 346:.\Generated_Source\PSoC4/cyfitter_cfg.c **** }
 700              		.loc 1 346 0
 701 0022 BD46     		mov	sp, r7
 702              		@ sp needed
 703 0024 80BD     		pop	{r7, pc}
 704              	.L38:
 705 0026 C046     		.align	2
 706              	.L37:
 707 0028 00000000 		.word	AMuxSeq_CYAMUXSIDE_B_curChannel
 708 002c 04033A40 		.word	1077543684
 709              		.cfi_endproc
 710              	.LFE11:
 711              		.size	AMuxSeq_CYAMUXSIDE_B_DisconnectAll, .-AMuxSeq_CYAMUXSIDE_B_DisconnectAll
 712              		.section	.text.AMuxSeq_CYAMUXSIDE_B_Next,"ax",%progbits
 713              		.align	2
 714              		.global	AMuxSeq_CYAMUXSIDE_B_Next
 715              		.code	16
 716              		.thumb_func
 717              		.type	AMuxSeq_CYAMUXSIDE_B_Next, %function
 718              	AMuxSeq_CYAMUXSIDE_B_Next:
 719              	.LFB12:
 347:.\Generated_Source\PSoC4/cyfitter_cfg.c **** 
 348:.\Generated_Source\PSoC4/cyfitter_cfg.c **** void AMuxSeq_CYAMUXSIDE_B_Next(void)
 349:.\Generated_Source\PSoC4/cyfitter_cfg.c **** {
 720              		.loc 1 349 0
 721              		.cfi_startproc
 722 0000 80B5     		push	{r7, lr}
 723              		.cfi_def_cfa_offset 8
 724              		.cfi_offset 7, -8
 725              		.cfi_offset 14, -4
 726 0002 00AF     		add	r7, sp, #0
 727              		.cfi_def_cfa_register 7
 350:.\Generated_Source\PSoC4/cyfitter_cfg.c **** 	AMuxSeq_CYAMUXSIDE_B_curChannel++;
 728              		.loc 1 350 0
 729 0004 1F4B     		ldr	r3, .L50
 730 0006 1B78     		ldrb	r3, [r3]
ARM GAS  C:\Users\Lonnie\AppData\Local\Temp\ccW83GUf.s 			page 20


 731 0008 DBB2     		uxtb	r3, r3
 732 000a DBB2     		uxtb	r3, r3
 733 000c 0133     		add	r3, r3, #1
 734 000e DBB2     		uxtb	r3, r3
 735 0010 DAB2     		uxtb	r2, r3
 736 0012 1C4B     		ldr	r3, .L50
 737 0014 1A70     		strb	r2, [r3]
 351:.\Generated_Source\PSoC4/cyfitter_cfg.c **** 	switch (AMuxSeq_CYAMUXSIDE_B_curChannel)
 738              		.loc 1 351 0
 739 0016 1B4B     		ldr	r3, .L50
 740 0018 1B78     		ldrb	r3, [r3]
 741 001a 5BB2     		sxtb	r3, r3
 742 001c 072B     		cmp	r3, #7
 743 001e 10D8     		bhi	.L40
 744 0020 9A00     		lsl	r2, r3, #2
 745 0022 194B     		ldr	r3, .L50+4
 746 0024 D318     		add	r3, r2, r3
 747 0026 1B68     		ldr	r3, [r3]
 748 0028 9F46     		mov	pc, r3
 749              		.section	.rodata
 750              		.align	2
 751              	.L42:
 752 0020 48000000 		.word	.L41
 753 0024 5A000000 		.word	.L43
 754 0028 6C000000 		.word	.L44
 755 002c 42000000 		.word	.L40
 756 0030 2A000000 		.word	.L45
 757 0034 30000000 		.word	.L46
 758 0038 36000000 		.word	.L47
 759 003c 3C000000 		.word	.L48
 760              		.section	.text.AMuxSeq_CYAMUXSIDE_B_Next
 761              	.L45:
 352:.\Generated_Source\PSoC4/cyfitter_cfg.c **** 	{
 353:.\Generated_Source\PSoC4/cyfitter_cfg.c **** 	case 4: /* to force jump table (not executed) */
 354:.\Generated_Source\PSoC4/cyfitter_cfg.c **** 		AMuxSeq_CYAMUXSIDE_B_curChannel = 4;
 762              		.loc 1 354 0
 763 002a 164B     		ldr	r3, .L50
 764 002c 0422     		mov	r2, #4
 765 002e 1A70     		strb	r2, [r3]
 766              	.L46:
 355:.\Generated_Source\PSoC4/cyfitter_cfg.c **** 	case 5: /* to force jump table (not executed) */
 356:.\Generated_Source\PSoC4/cyfitter_cfg.c **** 		AMuxSeq_CYAMUXSIDE_B_curChannel = 5;
 767              		.loc 1 356 0
 768 0030 144B     		ldr	r3, .L50
 769 0032 0522     		mov	r2, #5
 770 0034 1A70     		strb	r2, [r3]
 771              	.L47:
 357:.\Generated_Source\PSoC4/cyfitter_cfg.c **** 	case 6: /* to force jump table (not executed) */
 358:.\Generated_Source\PSoC4/cyfitter_cfg.c **** 		AMuxSeq_CYAMUXSIDE_B_curChannel = 6;
 772              		.loc 1 358 0
 773 0036 134B     		ldr	r3, .L50
 774 0038 0622     		mov	r2, #6
 775 003a 1A70     		strb	r2, [r3]
 776              	.L48:
 359:.\Generated_Source\PSoC4/cyfitter_cfg.c **** 	case 7: /* to force jump table (not executed) */
 360:.\Generated_Source\PSoC4/cyfitter_cfg.c **** 		AMuxSeq_CYAMUXSIDE_B_curChannel = 7;
 777              		.loc 1 360 0
ARM GAS  C:\Users\Lonnie\AppData\Local\Temp\ccW83GUf.s 			page 21


 778 003c 114B     		ldr	r3, .L50
 779 003e 0722     		mov	r2, #7
 780 0040 1A70     		strb	r2, [r3]
 781              	.L40:
 361:.\Generated_Source\PSoC4/cyfitter_cfg.c **** 	case 3:
 362:.\Generated_Source\PSoC4/cyfitter_cfg.c **** 	default:
 363:.\Generated_Source\PSoC4/cyfitter_cfg.c **** 		AMuxSeq_CYAMUXSIDE_B_curChannel = 0;
 782              		.loc 1 363 0
 783 0042 104B     		ldr	r3, .L50
 784 0044 0022     		mov	r2, #0
 785 0046 1A70     		strb	r2, [r3]
 786              	.L41:
 364:.\Generated_Source\PSoC4/cyfitter_cfg.c **** 	case 0:
 365:.\Generated_Source\PSoC4/cyfitter_cfg.c **** 		CY_SET_REG32((void CYXDATA *)CYREG_SAR_MUX_SWITCH_CLEAR0, (0x400u));
 787              		.loc 1 365 0
 788 0048 104B     		ldr	r3, .L50+8
 789 004a 8022     		mov	r2, #128
 790 004c D200     		lsl	r2, r2, #3
 791 004e 1A60     		str	r2, [r3]
 366:.\Generated_Source\PSoC4/cyfitter_cfg.c **** 		CY_SET_REG32((void CYXDATA *)CYREG_SAR_MUX_SWITCH0, (0x400u));
 792              		.loc 1 366 0
 793 0050 0F4B     		ldr	r3, .L50+12
 794 0052 8022     		mov	r2, #128
 795 0054 D200     		lsl	r2, r2, #3
 796 0056 1A60     		str	r2, [r3]
 367:.\Generated_Source\PSoC4/cyfitter_cfg.c **** 		break;
 797              		.loc 1 367 0
 798 0058 11E0     		b	.L39
 799              	.L43:
 368:.\Generated_Source\PSoC4/cyfitter_cfg.c **** 	case 1:
 369:.\Generated_Source\PSoC4/cyfitter_cfg.c **** 		CY_SET_REG32((void CYXDATA *)CYREG_SAR_MUX_SWITCH_CLEAR0, (0x400u));
 800              		.loc 1 369 0
 801 005a 0C4B     		ldr	r3, .L50+8
 802 005c 8022     		mov	r2, #128
 803 005e D200     		lsl	r2, r2, #3
 804 0060 1A60     		str	r2, [r3]
 370:.\Generated_Source\PSoC4/cyfitter_cfg.c **** 		CY_SET_REG32((void CYXDATA *)CYREG_SAR_MUX_SWITCH0, (0x1000u));
 805              		.loc 1 370 0
 806 0062 0B4B     		ldr	r3, .L50+12
 807 0064 8022     		mov	r2, #128
 808 0066 5201     		lsl	r2, r2, #5
 809 0068 1A60     		str	r2, [r3]
 371:.\Generated_Source\PSoC4/cyfitter_cfg.c **** 		break;
 810              		.loc 1 371 0
 811 006a 08E0     		b	.L39
 812              	.L44:
 372:.\Generated_Source\PSoC4/cyfitter_cfg.c **** 	case 2:
 373:.\Generated_Source\PSoC4/cyfitter_cfg.c **** 		CY_SET_REG32((void CYXDATA *)CYREG_SAR_MUX_SWITCH_CLEAR0, (0x1000u));
 813              		.loc 1 373 0
 814 006c 074B     		ldr	r3, .L50+8
 815 006e 8022     		mov	r2, #128
 816 0070 5201     		lsl	r2, r2, #5
 817 0072 1A60     		str	r2, [r3]
 374:.\Generated_Source\PSoC4/cyfitter_cfg.c **** 		CY_SET_REG32((void CYXDATA *)CYREG_SAR_MUX_SWITCH0, (0x400u));
 818              		.loc 1 374 0
 819 0074 064B     		ldr	r3, .L50+12
 820 0076 8022     		mov	r2, #128
ARM GAS  C:\Users\Lonnie\AppData\Local\Temp\ccW83GUf.s 			page 22


 821 0078 D200     		lsl	r2, r2, #3
 822 007a 1A60     		str	r2, [r3]
 375:.\Generated_Source\PSoC4/cyfitter_cfg.c **** 		break;
 823              		.loc 1 375 0
 824 007c C046     		mov	r8, r8
 825              	.L39:
 376:.\Generated_Source\PSoC4/cyfitter_cfg.c **** 	}
 377:.\Generated_Source\PSoC4/cyfitter_cfg.c **** }
 826              		.loc 1 377 0
 827 007e BD46     		mov	sp, r7
 828              		@ sp needed
 829 0080 80BD     		pop	{r7, pc}
 830              	.L51:
 831 0082 C046     		.align	2
 832              	.L50:
 833 0084 00000000 		.word	AMuxSeq_CYAMUXSIDE_B_curChannel
 834 0088 20000000 		.word	.L42
 835 008c 04033A40 		.word	1077543684
 836 0090 00033A40 		.word	1077543680
 837              		.cfi_endproc
 838              	.LFE12:
 839              		.size	AMuxSeq_CYAMUXSIDE_B_Next, .-AMuxSeq_CYAMUXSIDE_B_Next
 840              		.section	.psocinit
 841              		.align	2
 842              		.global	cyfitter_cfg
 843              		.code	16
 844              		.thumb_func
 845              		.type	cyfitter_cfg, %function
 846              	cyfitter_cfg:
 847              	.LFB13:
 378:.\Generated_Source\PSoC4/cyfitter_cfg.c **** 
 379:.\Generated_Source\PSoC4/cyfitter_cfg.c **** 
 380:.\Generated_Source\PSoC4/cyfitter_cfg.c **** 
 381:.\Generated_Source\PSoC4/cyfitter_cfg.c **** /*******************************************************************************
 382:.\Generated_Source\PSoC4/cyfitter_cfg.c **** * Function Name: cyfitter_cfg
 383:.\Generated_Source\PSoC4/cyfitter_cfg.c **** ********************************************************************************
 384:.\Generated_Source\PSoC4/cyfitter_cfg.c **** * Summary:
 385:.\Generated_Source\PSoC4/cyfitter_cfg.c **** *  This function is called by the start-up code for the selected device. It
 386:.\Generated_Source\PSoC4/cyfitter_cfg.c **** *  performs all of the necessary device configuration based on the design
 387:.\Generated_Source\PSoC4/cyfitter_cfg.c **** *  settings.  This includes settings from the Design Wide Resources (DWR) such
 388:.\Generated_Source\PSoC4/cyfitter_cfg.c **** *  as Clocks and Pins as well as any component configuration that is necessary.
 389:.\Generated_Source\PSoC4/cyfitter_cfg.c **** *
 390:.\Generated_Source\PSoC4/cyfitter_cfg.c **** * Parameters:  
 391:.\Generated_Source\PSoC4/cyfitter_cfg.c **** *   void
 392:.\Generated_Source\PSoC4/cyfitter_cfg.c **** *
 393:.\Generated_Source\PSoC4/cyfitter_cfg.c **** * Return:
 394:.\Generated_Source\PSoC4/cyfitter_cfg.c **** *   void
 395:.\Generated_Source\PSoC4/cyfitter_cfg.c **** *
 396:.\Generated_Source\PSoC4/cyfitter_cfg.c **** *******************************************************************************/
 397:.\Generated_Source\PSoC4/cyfitter_cfg.c **** CY_CFG_SECTION
 398:.\Generated_Source\PSoC4/cyfitter_cfg.c **** void cyfitter_cfg(void)
 399:.\Generated_Source\PSoC4/cyfitter_cfg.c **** {
 848              		.loc 1 399 0
 849              		.cfi_startproc
 850 00ec 80B5     		push	{r7, lr}
 851              		.cfi_def_cfa_offset 8
 852              		.cfi_offset 7, -8
ARM GAS  C:\Users\Lonnie\AppData\Local\Temp\ccW83GUf.s 			page 23


 853              		.cfi_offset 14, -4
 854 00ee 82B0     		sub	sp, sp, #8
 855              		.cfi_def_cfa_offset 16
 856 00f0 00AF     		add	r7, sp, #0
 857              		.cfi_def_cfa_register 7
 400:.\Generated_Source\PSoC4/cyfitter_cfg.c **** 	/* Disable interrupts by default. Let user enable if/when they want. */
 401:.\Generated_Source\PSoC4/cyfitter_cfg.c **** 	CyGlobalIntDisable;
 858              		.loc 1 401 0
 859              	@ 401 ".\Generated_Source\PSoC4\cyfitter_cfg.c" 1
 860 00f2 72B6     		CPSID   i
 861              	@ 0 "" 2
 402:.\Generated_Source\PSoC4/cyfitter_cfg.c **** 
 403:.\Generated_Source\PSoC4/cyfitter_cfg.c **** 	CY_SET_XTND_REG32((void CYFAR *)(CYREG_BLE_BLESS_LL_DSM_CTRL), 0x00000000u);
 862              		.loc 1 403 0
 863              		.code	16
 864 00f4 504B     		ldr	r3, .L55
 865 00f6 0022     		mov	r2, #0
 866 00f8 1A60     		str	r2, [r3]
 867              	.LBB3:
 404:.\Generated_Source\PSoC4/cyfitter_cfg.c **** 
 405:.\Generated_Source\PSoC4/cyfitter_cfg.c **** 	{
 406:.\Generated_Source\PSoC4/cyfitter_cfg.c **** 		static const uint32 CYCODE cy_cfg_addr_table[] = {
 407:.\Generated_Source\PSoC4/cyfitter_cfg.c **** 			0x400F3004u, /* Base address: 0x400F3000 Count: 4 */
 408:.\Generated_Source\PSoC4/cyfitter_cfg.c **** 			0x400F3101u, /* Base address: 0x400F3100 Count: 1 */
 409:.\Generated_Source\PSoC4/cyfitter_cfg.c **** 			0x400F3301u, /* Base address: 0x400F3300 Count: 1 */
 410:.\Generated_Source\PSoC4/cyfitter_cfg.c **** 			0x400F4305u, /* Base address: 0x400F4300 Count: 5 */
 411:.\Generated_Source\PSoC4/cyfitter_cfg.c **** 			0x400F6002u, /* Base address: 0x400F6000 Count: 2 */
 412:.\Generated_Source\PSoC4/cyfitter_cfg.c **** 		};
 413:.\Generated_Source\PSoC4/cyfitter_cfg.c **** 
 414:.\Generated_Source\PSoC4/cyfitter_cfg.c **** 		static const cy_cfg_addrvalue_t CYCODE cy_cfg_data_table[] = {
 415:.\Generated_Source\PSoC4/cyfitter_cfg.c **** 			{0x34u, 0x01u},
 416:.\Generated_Source\PSoC4/cyfitter_cfg.c **** 			{0x3Eu, 0x10u},
 417:.\Generated_Source\PSoC4/cyfitter_cfg.c **** 			{0x58u, 0x04u},
 418:.\Generated_Source\PSoC4/cyfitter_cfg.c **** 			{0x5Fu, 0x01u},
 419:.\Generated_Source\PSoC4/cyfitter_cfg.c **** 			{0x18u, 0x04u},
 420:.\Generated_Source\PSoC4/cyfitter_cfg.c **** 			{0xB4u, 0x04u},
 421:.\Generated_Source\PSoC4/cyfitter_cfg.c **** 			{0x54u, 0x02u},
 422:.\Generated_Source\PSoC4/cyfitter_cfg.c **** 			{0xA0u, 0x02u},
 423:.\Generated_Source\PSoC4/cyfitter_cfg.c **** 			{0xB4u, 0x02u},
 424:.\Generated_Source\PSoC4/cyfitter_cfg.c **** 			{0xD6u, 0x04u},
 425:.\Generated_Source\PSoC4/cyfitter_cfg.c **** 			{0xECu, 0x02u},
 426:.\Generated_Source\PSoC4/cyfitter_cfg.c **** 			{0x02u, 0x01u},
 427:.\Generated_Source\PSoC4/cyfitter_cfg.c **** 			{0x11u, 0x01u},
 428:.\Generated_Source\PSoC4/cyfitter_cfg.c **** 		};
 429:.\Generated_Source\PSoC4/cyfitter_cfg.c **** 
 430:.\Generated_Source\PSoC4/cyfitter_cfg.c **** 
 431:.\Generated_Source\PSoC4/cyfitter_cfg.c **** 
 432:.\Generated_Source\PSoC4/cyfitter_cfg.c **** 		CYPACKED typedef struct {
 433:.\Generated_Source\PSoC4/cyfitter_cfg.c **** 			void CYFAR *address;
 434:.\Generated_Source\PSoC4/cyfitter_cfg.c **** 			uint16 size;
 435:.\Generated_Source\PSoC4/cyfitter_cfg.c **** 		} CYPACKED_ATTR cfg_memset_t;
 436:.\Generated_Source\PSoC4/cyfitter_cfg.c **** 
 437:.\Generated_Source\PSoC4/cyfitter_cfg.c **** 		static const cfg_memset_t CYCODE cfg_memset_list [] = {
 438:.\Generated_Source\PSoC4/cyfitter_cfg.c **** 			/* address, size */
 439:.\Generated_Source\PSoC4/cyfitter_cfg.c **** 			{(void CYFAR *)(CYDEV_UDB_P0_U0_BASE), 1024u},
 440:.\Generated_Source\PSoC4/cyfitter_cfg.c **** 			{(void CYFAR *)(CYDEV_UDB_DSI0_BASE), 1024u},
 441:.\Generated_Source\PSoC4/cyfitter_cfg.c **** 		};
ARM GAS  C:\Users\Lonnie\AppData\Local\Temp\ccW83GUf.s 			page 24


 442:.\Generated_Source\PSoC4/cyfitter_cfg.c **** 
 443:.\Generated_Source\PSoC4/cyfitter_cfg.c **** 		uint8 CYDATA i;
 444:.\Generated_Source\PSoC4/cyfitter_cfg.c **** 
 445:.\Generated_Source\PSoC4/cyfitter_cfg.c **** 		/* Zero out critical memory blocks before beginning configuration */
 446:.\Generated_Source\PSoC4/cyfitter_cfg.c **** 		for (i = 0u; i < (sizeof(cfg_memset_list)/sizeof(cfg_memset_list[0])); i++)
 868              		.loc 1 446 0
 869 00fa FB1D     		add	r3, r7, #7
 870 00fc 0022     		mov	r2, #0
 871 00fe 1A70     		strb	r2, [r3]
 872 0100 23E0     		b	.L53
 873              	.L54:
 874              	.LBB4:
 447:.\Generated_Source\PSoC4/cyfitter_cfg.c **** 		{
 448:.\Generated_Source\PSoC4/cyfitter_cfg.c **** 			const cfg_memset_t CYCODE * CYDATA ms = &cfg_memset_list[i];
 875              		.loc 1 448 0 discriminator 3
 876 0102 FB1D     		add	r3, r7, #7
 877 0104 1A78     		ldrb	r2, [r3]
 878 0106 131C     		mov	r3, r2
 879 0108 5B00     		lsl	r3, r3, #1
 880 010a 9B18     		add	r3, r3, r2
 881 010c 5B00     		lsl	r3, r3, #1
 882 010e 4B4A     		ldr	r2, .L55+4
 883 0110 9B18     		add	r3, r3, r2
 884 0112 3B60     		str	r3, [r7]
 449:.\Generated_Source\PSoC4/cyfitter_cfg.c **** 			CYMEMZERO(ms->address, (size_t)(uint32)(ms->size));
 885              		.loc 1 449 0 discriminator 3
 886 0114 3B68     		ldr	r3, [r7]
 887 0116 1A78     		ldrb	r2, [r3]
 888 0118 5978     		ldrb	r1, [r3, #1]
 889 011a 0902     		lsl	r1, r1, #8
 890 011c 0A43     		orr	r2, r1
 891 011e 9978     		ldrb	r1, [r3, #2]
 892 0120 0904     		lsl	r1, r1, #16
 893 0122 0A43     		orr	r2, r1
 894 0124 DB78     		ldrb	r3, [r3, #3]
 895 0126 1B06     		lsl	r3, r3, #24
 896 0128 1343     		orr	r3, r2
 897 012a 191C     		mov	r1, r3
 898 012c 3B68     		ldr	r3, [r7]
 899 012e 1A79     		ldrb	r2, [r3, #4]
 900 0130 5B79     		ldrb	r3, [r3, #5]
 901 0132 1B02     		lsl	r3, r3, #8
 902 0134 1343     		orr	r3, r2
 903 0136 9BB2     		uxth	r3, r3
 904 0138 081C     		mov	r0, r1
 905 013a 191C     		mov	r1, r3
 906 013c FFF7FEFF 		bl	CYMEMZERO
 907              	.LBE4:
 446:.\Generated_Source\PSoC4/cyfitter_cfg.c **** 		{
 908              		.loc 1 446 0 discriminator 3
 909 0140 FB1D     		add	r3, r7, #7
 910 0142 1A78     		ldrb	r2, [r3]
 911 0144 FB1D     		add	r3, r7, #7
 912 0146 0132     		add	r2, r2, #1
 913 0148 1A70     		strb	r2, [r3]
 914              	.L53:
 446:.\Generated_Source\PSoC4/cyfitter_cfg.c **** 		{
ARM GAS  C:\Users\Lonnie\AppData\Local\Temp\ccW83GUf.s 			page 25


 915              		.loc 1 446 0 is_stmt 0 discriminator 1
 916 014a FB1D     		add	r3, r7, #7
 917 014c 1B78     		ldrb	r3, [r3]
 918 014e 012B     		cmp	r3, #1
 919 0150 D7D9     		bls	.L54
 450:.\Generated_Source\PSoC4/cyfitter_cfg.c **** 		}
 451:.\Generated_Source\PSoC4/cyfitter_cfg.c **** 
 452:.\Generated_Source\PSoC4/cyfitter_cfg.c **** 		cfg_write_bytes32(cy_cfg_addr_table, cy_cfg_data_table);
 920              		.loc 1 452 0 is_stmt 1
 921 0152 3B4A     		ldr	r2, .L55+8
 922 0154 3B4B     		ldr	r3, .L55+12
 923 0156 101C     		mov	r0, r2
 924 0158 191C     		mov	r1, r3
 925 015a FFF7FEFF 		bl	cfg_write_bytes32
 453:.\Generated_Source\PSoC4/cyfitter_cfg.c **** 
 454:.\Generated_Source\PSoC4/cyfitter_cfg.c **** 		/* HSIOM Starting address: CYDEV_HSIOM_BASE */
 455:.\Generated_Source\PSoC4/cyfitter_cfg.c **** 		CY_SET_XTND_REG32((void CYFAR *)(CYDEV_HSIOM_BASE), 0xEE000000u);
 926              		.loc 1 455 0
 927 015e 3A4B     		ldr	r3, .L55+16
 928 0160 EE22     		mov	r2, #238
 929 0162 1206     		lsl	r2, r2, #24
 930 0164 1A60     		str	r2, [r3]
 456:.\Generated_Source\PSoC4/cyfitter_cfg.c **** 		CY_SET_XTND_REG32((void CYFAR *)(CYREG_HSIOM_PORT_SEL1), 0x00990000u);
 931              		.loc 1 456 0
 932 0166 394B     		ldr	r3, .L55+20
 933 0168 9922     		mov	r2, #153
 934 016a 1204     		lsl	r2, r2, #16
 935 016c 1A60     		str	r2, [r3]
 457:.\Generated_Source\PSoC4/cyfitter_cfg.c **** 		CY_SET_XTND_REG32((void CYFAR *)(CYREG_HSIOM_PORT_SEL3), 0x00006000u);
 936              		.loc 1 457 0
 937 016e 384B     		ldr	r3, .L55+24
 938 0170 C022     		mov	r2, #192
 939 0172 D201     		lsl	r2, r2, #7
 940 0174 1A60     		str	r2, [r3]
 458:.\Generated_Source\PSoC4/cyfitter_cfg.c **** 
 459:.\Generated_Source\PSoC4/cyfitter_cfg.c **** 		/* UDB_PA_0 Starting address: CYDEV_UDB_PA0_BASE */
 460:.\Generated_Source\PSoC4/cyfitter_cfg.c **** 		CY_SET_XTND_REG32((void CYFAR *)(CYDEV_UDB_PA0_BASE), 0x00990000u);
 941              		.loc 1 460 0
 942 0176 374B     		ldr	r3, .L55+28
 943 0178 9922     		mov	r2, #153
 944 017a 1204     		lsl	r2, r2, #16
 945 017c 1A60     		str	r2, [r3]
 461:.\Generated_Source\PSoC4/cyfitter_cfg.c **** 
 462:.\Generated_Source\PSoC4/cyfitter_cfg.c **** 		/* UDB_PA_1 Starting address: CYDEV_UDB_PA1_BASE */
 463:.\Generated_Source\PSoC4/cyfitter_cfg.c **** 		CY_SET_XTND_REG32((void CYFAR *)(CYDEV_UDB_PA1_BASE), 0x00990000u);
 946              		.loc 1 463 0
 947 017e 364B     		ldr	r3, .L55+32
 948 0180 9922     		mov	r2, #153
 949 0182 1204     		lsl	r2, r2, #16
 950 0184 1A60     		str	r2, [r3]
 464:.\Generated_Source\PSoC4/cyfitter_cfg.c **** 
 465:.\Generated_Source\PSoC4/cyfitter_cfg.c **** 		/* UDB_PA_2 Starting address: CYDEV_UDB_PA2_BASE */
 466:.\Generated_Source\PSoC4/cyfitter_cfg.c **** 		CY_SET_XTND_REG32((void CYFAR *)(CYDEV_UDB_PA2_BASE), 0x00990000u);
 951              		.loc 1 466 0
 952 0186 354B     		ldr	r3, .L55+36
 953 0188 9922     		mov	r2, #153
 954 018a 1204     		lsl	r2, r2, #16
ARM GAS  C:\Users\Lonnie\AppData\Local\Temp\ccW83GUf.s 			page 26


 955 018c 1A60     		str	r2, [r3]
 467:.\Generated_Source\PSoC4/cyfitter_cfg.c **** 		CY_SET_XTND_REG32((void CYFAR *)(CYREG_UDB_PA2_CFG4), 0x80000000u);
 956              		.loc 1 467 0
 957 018e 344B     		ldr	r3, .L55+40
 958 0190 8022     		mov	r2, #128
 959 0192 1206     		lsl	r2, r2, #24
 960 0194 1A60     		str	r2, [r3]
 468:.\Generated_Source\PSoC4/cyfitter_cfg.c **** 
 469:.\Generated_Source\PSoC4/cyfitter_cfg.c **** 		/* UDB_PA_3 Starting address: CYDEV_UDB_PA3_BASE */
 470:.\Generated_Source\PSoC4/cyfitter_cfg.c **** 		CY_SET_XTND_REG32((void CYFAR *)(CYDEV_UDB_PA3_BASE), 0x00990000u);
 961              		.loc 1 470 0
 962 0196 334B     		ldr	r3, .L55+44
 963 0198 9922     		mov	r2, #153
 964 019a 1204     		lsl	r2, r2, #16
 965 019c 1A60     		str	r2, [r3]
 471:.\Generated_Source\PSoC4/cyfitter_cfg.c **** 		CY_SET_XTND_REG32((void CYFAR *)(CYREG_UDB_PA3_CFG8), 0x00C00000u);
 966              		.loc 1 471 0
 967 019e 324B     		ldr	r3, .L55+48
 968 01a0 C022     		mov	r2, #192
 969 01a2 1204     		lsl	r2, r2, #16
 970 01a4 1A60     		str	r2, [r3]
 472:.\Generated_Source\PSoC4/cyfitter_cfg.c **** 
 473:.\Generated_Source\PSoC4/cyfitter_cfg.c **** 		/* Enable digital routing */
 474:.\Generated_Source\PSoC4/cyfitter_cfg.c **** 		CY_SET_XTND_REG8((void *)CYREG_UDB_UDBIF_BANK_CTL, CY_GET_XTND_REG8((void *)CYREG_UDB_UDBIF_BANK_
 971              		.loc 1 474 0
 972 01a6 314A     		ldr	r2, .L55+52
 973 01a8 304B     		ldr	r3, .L55+52
 974 01aa 1B78     		ldrb	r3, [r3]
 975 01ac DBB2     		uxtb	r3, r3
 976 01ae 0221     		mov	r1, #2
 977 01b0 0B43     		orr	r3, r1
 978 01b2 DBB2     		uxtb	r3, r3
 979 01b4 1370     		strb	r3, [r2]
 475:.\Generated_Source\PSoC4/cyfitter_cfg.c **** 
 476:.\Generated_Source\PSoC4/cyfitter_cfg.c **** 		/* Enable UDB array */
 477:.\Generated_Source\PSoC4/cyfitter_cfg.c **** 		CY_SET_XTND_REG8((void *)CYREG_UDB_UDBIF_WAIT_CFG, (uint8)((CY_GET_XTND_REG8((void *)CYREG_UDB_UD
 980              		.loc 1 477 0
 981 01b6 2E4A     		ldr	r2, .L55+56
 982 01b8 2D4B     		ldr	r3, .L55+56
 983 01ba 1B78     		ldrb	r3, [r3]
 984 01bc DBB2     		uxtb	r3, r3
 985 01be 3C21     		mov	r1, #60
 986 01c0 8B43     		bic	r3, r1
 987 01c2 DBB2     		uxtb	r3, r3
 988 01c4 1421     		mov	r1, #20
 989 01c6 0B43     		orr	r3, r1
 990 01c8 DBB2     		uxtb	r3, r3
 991 01ca 1370     		strb	r3, [r2]
 478:.\Generated_Source\PSoC4/cyfitter_cfg.c **** 		CY_SET_XTND_REG8((void *)CYREG_UDB_UDBIF_BANK_CTL, (uint8)(CY_GET_XTND_REG8((void *)CYREG_UDB_UDB
 992              		.loc 1 478 0
 993 01cc 274A     		ldr	r2, .L55+52
 994 01ce 274B     		ldr	r3, .L55+52
 995 01d0 1B78     		ldrb	r3, [r3]
 996 01d2 DBB2     		uxtb	r3, r3
 997 01d4 1621     		mov	r1, #22
 998 01d6 0B43     		orr	r3, r1
 999 01d8 DBB2     		uxtb	r3, r3
ARM GAS  C:\Users\Lonnie\AppData\Local\Temp\ccW83GUf.s 			page 27


 1000 01da 1370     		strb	r3, [r2]
 1001              	.LBE3:
 479:.\Generated_Source\PSoC4/cyfitter_cfg.c **** 	}
 480:.\Generated_Source\PSoC4/cyfitter_cfg.c **** 
 481:.\Generated_Source\PSoC4/cyfitter_cfg.c **** 	/* Perform second pass device configuration. These items must be configured in specific order afte
 482:.\Generated_Source\PSoC4/cyfitter_cfg.c **** 	/* IOPINS0_0 Starting address: CYDEV_GPIO_PRT0_BASE */
 483:.\Generated_Source\PSoC4/cyfitter_cfg.c **** 	CY_SET_XTND_REG32((void CYFAR *)(CYREG_GPIO_PRT0_PC), 0x00D80000u);
 1002              		.loc 1 483 0
 1003 01dc 254B     		ldr	r3, .L55+60
 1004 01de D822     		mov	r2, #216
 1005 01e0 1204     		lsl	r2, r2, #16
 1006 01e2 1A60     		str	r2, [r3]
 484:.\Generated_Source\PSoC4/cyfitter_cfg.c **** 
 485:.\Generated_Source\PSoC4/cyfitter_cfg.c **** 	/* IOPINS0_1 Starting address: CYDEV_GPIO_PRT1_BASE */
 486:.\Generated_Source\PSoC4/cyfitter_cfg.c **** 	CY_SET_XTND_REG32((void CYFAR *)(CYDEV_GPIO_PRT1_BASE), 0x00000020u);
 1007              		.loc 1 486 0
 1008 01e4 244B     		ldr	r3, .L55+64
 1009 01e6 2022     		mov	r2, #32
 1010 01e8 1A60     		str	r2, [r3]
 487:.\Generated_Source\PSoC4/cyfitter_cfg.c **** 	CY_SET_XTND_REG32((void CYFAR *)(CYREG_GPIO_PRT1_PC), 0x00031000u);
 1011              		.loc 1 487 0
 1012 01ea 244B     		ldr	r3, .L55+68
 1013 01ec C422     		mov	r2, #196
 1014 01ee 9202     		lsl	r2, r2, #10
 1015 01f0 1A60     		str	r2, [r3]
 488:.\Generated_Source\PSoC4/cyfitter_cfg.c **** 	CY_SET_XTND_REG32((void CYFAR *)(CYREG_GPIO_PRT1_PC2), 0x00000020u);
 1016              		.loc 1 488 0
 1017 01f2 234B     		ldr	r3, .L55+72
 1018 01f4 2022     		mov	r2, #32
 1019 01f6 1A60     		str	r2, [r3]
 489:.\Generated_Source\PSoC4/cyfitter_cfg.c **** 
 490:.\Generated_Source\PSoC4/cyfitter_cfg.c **** 	/* IOPINS0_2 Starting address: CYDEV_GPIO_PRT2_BASE */
 491:.\Generated_Source\PSoC4/cyfitter_cfg.c **** 	CY_SET_XTND_REG32((void CYFAR *)(CYDEV_GPIO_PRT2_BASE), 0x000000BEu);
 1020              		.loc 1 491 0
 1021 01f8 224B     		ldr	r3, .L55+76
 1022 01fa BE22     		mov	r2, #190
 1023 01fc 1A60     		str	r2, [r3]
 492:.\Generated_Source\PSoC4/cyfitter_cfg.c **** 	CY_SET_XTND_REG32((void CYFAR *)(CYREG_GPIO_PRT2_PC), 0x00400000u);
 1024              		.loc 1 492 0
 1025 01fe 224B     		ldr	r3, .L55+80
 1026 0200 8022     		mov	r2, #128
 1027 0202 D203     		lsl	r2, r2, #15
 1028 0204 1A60     		str	r2, [r3]
 493:.\Generated_Source\PSoC4/cyfitter_cfg.c **** 	CY_SET_XTND_REG32((void CYFAR *)(CYREG_GPIO_PRT2_INTR_CFG), 0x00008000u);
 1029              		.loc 1 493 0
 1030 0206 214B     		ldr	r3, .L55+84
 1031 0208 8022     		mov	r2, #128
 1032 020a 1202     		lsl	r2, r2, #8
 1033 020c 1A60     		str	r2, [r3]
 494:.\Generated_Source\PSoC4/cyfitter_cfg.c **** 	CY_SET_XTND_REG32((void CYFAR *)(CYREG_GPIO_PRT2_PC2), 0x0000003Eu);
 1034              		.loc 1 494 0
 1035 020e 204B     		ldr	r3, .L55+88
 1036 0210 3E22     		mov	r2, #62
 1037 0212 1A60     		str	r2, [r3]
 495:.\Generated_Source\PSoC4/cyfitter_cfg.c **** 
 496:.\Generated_Source\PSoC4/cyfitter_cfg.c **** 	/* IOPINS0_3 Starting address: CYDEV_GPIO_PRT3_BASE */
 497:.\Generated_Source\PSoC4/cyfitter_cfg.c **** 	CY_SET_XTND_REG32((void CYFAR *)(CYDEV_GPIO_PRT3_BASE), 0x00000038u);
ARM GAS  C:\Users\Lonnie\AppData\Local\Temp\ccW83GUf.s 			page 28


 1038              		.loc 1 497 0
 1039 0214 1F4B     		ldr	r3, .L55+92
 1040 0216 3822     		mov	r2, #56
 1041 0218 1A60     		str	r2, [r3]
 498:.\Generated_Source\PSoC4/cyfitter_cfg.c **** 	CY_SET_XTND_REG32((void CYFAR *)(CYREG_GPIO_PRT3_PC), 0x00000186u);
 1042              		.loc 1 498 0
 1043 021a 1F4B     		ldr	r3, .L55+96
 1044 021c C322     		mov	r2, #195
 1045 021e 5200     		lsl	r2, r2, #1
 1046 0220 1A60     		str	r2, [r3]
 499:.\Generated_Source\PSoC4/cyfitter_cfg.c **** 	CY_SET_XTND_REG32((void CYFAR *)(CYREG_GPIO_PRT3_PC2), 0x00000038u);
 1047              		.loc 1 499 0
 1048 0222 1E4B     		ldr	r3, .L55+100
 1049 0224 3822     		mov	r2, #56
 1050 0226 1A60     		str	r2, [r3]
 500:.\Generated_Source\PSoC4/cyfitter_cfg.c **** 
 501:.\Generated_Source\PSoC4/cyfitter_cfg.c **** 	/* Setup clocks based on selections from Clock DWR */
 502:.\Generated_Source\PSoC4/cyfitter_cfg.c **** 	ClockSetup();
 1051              		.loc 1 502 0
 1052 0228 FFF7EAFE 		bl	ClockSetup
 503:.\Generated_Source\PSoC4/cyfitter_cfg.c **** 
 504:.\Generated_Source\PSoC4/cyfitter_cfg.c **** 	/* Perform basic analog initialization to defaults */
 505:.\Generated_Source\PSoC4/cyfitter_cfg.c **** 	AnalogSetDefault();
 1053              		.loc 1 505 0
 1054 022c FFF7FEFF 		bl	AnalogSetDefault
 506:.\Generated_Source\PSoC4/cyfitter_cfg.c **** 
 507:.\Generated_Source\PSoC4/cyfitter_cfg.c **** }
 1055              		.loc 1 507 0
 1056 0230 BD46     		mov	sp, r7
 1057 0232 02B0     		add	sp, sp, #8
 1058              		@ sp needed
 1059 0234 80BD     		pop	{r7, pc}
 1060              	.L56:
 1061 0236 C046     		.align	2
 1062              	.L55:
 1063 0238 6CF02E40 		.word	1076818028
 1064 023c 40000000 		.word	cfg_memset_list.4791
 1065 0240 4C000000 		.word	cy_cfg_addr_table.4785
 1066 0244 60000000 		.word	cy_cfg_data_table.4786
 1067 0248 00000240 		.word	1073872896
 1068 024c 00010240 		.word	1073873152
 1069 0250 00030240 		.word	1073873664
 1070 0254 00500F40 		.word	1074745344
 1071 0258 10500F40 		.word	1074745360
 1072 025c 20500F40 		.word	1074745376
 1073 0260 24500F40 		.word	1074745380
 1074 0264 30500F40 		.word	1074745392
 1075 0268 38500F40 		.word	1074745400
 1076 026c 00700F40 		.word	1074753536
 1077 0270 01700F40 		.word	1074753537
 1078 0274 08000440 		.word	1074003976
 1079 0278 00010440 		.word	1074004224
 1080 027c 08010440 		.word	1074004232
 1081 0280 18010440 		.word	1074004248
 1082 0284 00020440 		.word	1074004480
 1083 0288 08020440 		.word	1074004488
 1084 028c 0C020440 		.word	1074004492
ARM GAS  C:\Users\Lonnie\AppData\Local\Temp\ccW83GUf.s 			page 29


 1085 0290 18020440 		.word	1074004504
 1086 0294 00030440 		.word	1074004736
 1087 0298 08030440 		.word	1074004744
 1088 029c 18030440 		.word	1074004760
 1089              		.cfi_endproc
 1090              	.LFE13:
 1091              		.size	cyfitter_cfg, .-cyfitter_cfg
 1092              		.section	.rodata
 1093              		.align	2
 1094              		.type	cfg_memset_list.4791, %object
 1095              		.size	cfg_memset_list.4791, 12
 1096              	cfg_memset_list.4791:
 1097 0040 00300F40 		.word	1074737152
 1098 0044 0004     		.short	1024
 1099 0046 00400F40 		.4byte	1074741248
 1100 004a 0004     		.short	1024
 1101              		.align	2
 1102              		.type	cy_cfg_addr_table.4785, %object
 1103              		.size	cy_cfg_addr_table.4785, 20
 1104              	cy_cfg_addr_table.4785:
 1105 004c 04300F40 		.word	1074737156
 1106 0050 01310F40 		.word	1074737409
 1107 0054 01330F40 		.word	1074737921
 1108 0058 05430F40 		.word	1074742021
 1109 005c 02600F40 		.word	1074749442
 1110              		.align	2
 1111              		.type	cy_cfg_data_table.4786, %object
 1112              		.size	cy_cfg_data_table.4786, 26
 1113              	cy_cfg_data_table.4786:
 1114 0060 34       		.byte	52
 1115 0061 01       		.byte	1
 1116 0062 3E       		.byte	62
 1117 0063 10       		.byte	16
 1118 0064 58       		.byte	88
 1119 0065 04       		.byte	4
 1120 0066 5F       		.byte	95
 1121 0067 01       		.byte	1
 1122 0068 18       		.byte	24
 1123 0069 04       		.byte	4
 1124 006a B4       		.byte	-76
 1125 006b 04       		.byte	4
 1126 006c 54       		.byte	84
 1127 006d 02       		.byte	2
 1128 006e A0       		.byte	-96
 1129 006f 02       		.byte	2
 1130 0070 B4       		.byte	-76
 1131 0071 02       		.byte	2
 1132 0072 D6       		.byte	-42
 1133 0073 04       		.byte	4
 1134 0074 EC       		.byte	-20
 1135 0075 02       		.byte	2
 1136 0076 02       		.byte	2
 1137 0077 01       		.byte	1
 1138 0078 11       		.byte	17
 1139 0079 01       		.byte	1
 1140 007a 0000     		.text
 1141              	.Letext0:
ARM GAS  C:\Users\Lonnie\AppData\Local\Temp\ccW83GUf.s 			page 30


 1142              		.file 2 "c:\\program files (x86)\\cypress\\psoc creator\\3.3\\psoc creator\\import\\gnu\\arm\\4.9.
 1143              		.file 3 ".\\Generated_Source\\PSoC4\\cytypes.h"