ARM GAS  C:\Users\Lonnie\AppData\Local\Temp\ccxCcX9b.s 			page 1


   1              		.cpu cortex-m0
   2              		.fpu softvfp
   3              		.eabi_attribute 20, 1
   4              		.eabi_attribute 21, 1
   5              		.eabi_attribute 23, 3
   6              		.eabi_attribute 24, 1
   7              		.eabi_attribute 25, 1
   8              		.eabi_attribute 26, 1
   9              		.eabi_attribute 30, 6
  10              		.eabi_attribute 34, 0
  11              		.eabi_attribute 18, 4
  12              		.code	16
  13              		.file	"main.c"
  14              		.text
  15              	.Ltext0:
  16              		.cfi_sections	.debug_frame
  17              		.section	.text.putdata,"ax",%progbits
  18              		.align	2
  19              		.global	putdata
  20              		.code	16
  21              		.thumb_func
  22              		.type	putdata, %function
  23              	putdata:
  24              	.LFB35:
  25              		.file 1 ".\\main.c"
   1:.\main.c      **** /****************************************************************************
   2:.\main.c      **** * File Name: main.c
   3:.\main.c      **** *
   4:.\main.c      **** * Version: 1.0
   5:.\main.c      **** *
   6:.\main.c      **** * Description:
   7:.\main.c      **** * This file implements the system functions.
   8:.\main.c      **** *
   9:.\main.c      **** * Note:
  10:.\main.c      **** * 
  11:.\main.c      **** * Owner:
  12:.\main.c      **** * PMAD
  13:.\main.c      **** *
  14:.\main.c      **** ******************************************************************************
  15:.\main.c      **** * Copyright (2014), Cypress Semiconductor Corporation.
  16:.\main.c      **** ******************************************************************************
  17:.\main.c      **** * This software is owned by Cypress Semiconductor Corporation (Cypress) and is
  18:.\main.c      **** * protected by and subject to worldwide patent protection (United States and
  19:.\main.c      **** * foreign), United States copyright laws and international treaty provisions.
  20:.\main.c      **** * Cypress hereby grants to licensee a personal, non-exclusive, non-transferable
  21:.\main.c      **** * license to copy, use, modify, create derivative works of, and compile the
  22:.\main.c      **** * Cypress Source Code and derivative works for the sole purpose of creating
  23:.\main.c      **** * custom software in support of licensee product to be used only in conjunction
  24:.\main.c      **** * with a Cypress integrated circuit as specified in the applicable agreement.
  25:.\main.c      **** * Any reproduction, modification, translation, compilation, or representation of
  26:.\main.c      **** * this software except as specified above is prohibited without the express
  27:.\main.c      **** * written permission of Cypress.
  28:.\main.c      **** *
  29:.\main.c      **** * Disclaimer: CYPRESS MAKES NO WARRANTY OF ANY KIND, EXPRESS OR IMPLIED, WITH
  30:.\main.c      **** * REGARD TO THIS MATERIAL, INCLUDING, BUT NOT LIMITED TO, THE IMPLIED
  31:.\main.c      **** * WARRANTIES OF MERCHANTABILITY AND FITNESS FOR A PARTICULAR PURPOSE.
  32:.\main.c      **** * Cypress reserves the right to make changes without further notice to the
ARM GAS  C:\Users\Lonnie\AppData\Local\Temp\ccxCcX9b.s 			page 2


  33:.\main.c      **** * materials described herein. Cypress does not assume any liability arising out
  34:.\main.c      **** * of the application or use of any product or circuit described herein. Cypress
  35:.\main.c      **** * does not authorize its products for use as critical components in life-support
  36:.\main.c      **** * systems where a malfunction or failure may reasonably be expected to result in
  37:.\main.c      **** * significant injury to the user. The inclusion of Cypress' product in a life-
  38:.\main.c      **** * support systems application implies that the manufacturer assumes all risk of
  39:.\main.c      **** * such use and in doing so indemnifies Cypress against all charges. Use may be
  40:.\main.c      **** * limited by and subject to the applicable Cypress software license agreement.
  41:.\main.c      **** *****************************************************************************/
  42:.\main.c      **** 
  43:.\main.c      **** 
  44:.\main.c      **** /*****************************************************************************
  45:.\main.c      **** * Included headers
  46:.\main.c      **** *****************************************************************************/
  47:.\main.c      **** #include <project.h>
  48:.\main.c      **** #include "CommonFunctions.h"
  49:.\main.c      **** #include "Temperature.h"
  50:.\main.c      **** #include "printf.h"
  51:.\main.c      **** //#include "BLE_HTSS.h"
  52:.\main.c      **** void putdata (void* p, char c)
  53:.\main.c      **** {
  26              		.loc 1 53 0
  27              		.cfi_startproc
  28 0000 80B5     		push	{r7, lr}
  29              		.cfi_def_cfa_offset 8
  30              		.cfi_offset 7, -8
  31              		.cfi_offset 14, -4
  32 0002 82B0     		sub	sp, sp, #8
  33              		.cfi_def_cfa_offset 16
  34 0004 00AF     		add	r7, sp, #0
  35              		.cfi_def_cfa_register 7
  36 0006 7860     		str	r0, [r7, #4]
  37 0008 0A1C     		mov	r2, r1
  38 000a FB1C     		add	r3, r7, #3
  39 000c 1A70     		strb	r2, [r3]
  54:.\main.c      **** 
  55:.\main.c      **** UART_UartPutChar(c);
  40              		.loc 1 55 0
  41 000e FB1C     		add	r3, r7, #3
  42 0010 1B78     		ldrb	r3, [r3]
  43 0012 181C     		mov	r0, r3
  44 0014 FFF7FEFF 		bl	UART_SpiUartWriteTxData
  56:.\main.c      **** 
  57:.\main.c      **** }
  45              		.loc 1 57 0
  46 0018 BD46     		mov	sp, r7
  47 001a 02B0     		add	sp, sp, #8
  48              		@ sp needed
  49 001c 80BD     		pop	{r7, pc}
  50              		.cfi_endproc
  51              	.LFE35:
  52              		.size	putdata, .-putdata
  53 001e C046     		.section	.rodata
  54              		.align	2
  55              	.LC1:
  56 0000 0D0A2A2A 		.ascii	"\015\012*******************************************"
  56      2A2A2A2A 
ARM GAS  C:\Users\Lonnie\AppData\Local\Temp\ccxCcX9b.s 			page 3


  56      2A2A2A2A 
  56      2A2A2A2A 
  56      2A2A2A2A 
  57 002d 2A2A2A2A 		.ascii	"*************************************\015\012\000"
  57      2A2A2A2A 
  57      2A2A2A2A 
  57      2A2A2A2A 
  57      2A2A2A2A 
  58 0055 000000   		.align	2
  59              	.LC3:
  60 0058 594F4E4F 		.ascii	"YONO Internal Testing\015\012\000"
  60      20496E74 
  60      65726E61 
  60      6C205465 
  60      7374696E 
  61              		.align	2
  62              	.LC5:
  63 0070 5343425F 		.ascii	"SCB_UART Successful\015\012\000"
  63      55415254 
  63      20537563 
  63      63657373 
  63      66756C0D 
  64 0086 0000     		.align	2
  65              	.LC7:
  66 0088 53746172 		.ascii	"Starting to Transmit Temperature\015\012\000"
  66      74696E67 
  66      20746F20 
  66      5472616E 
  66      736D6974 
  67 00ab 00       		.align	2
  68              	.LC9:
  69 00ac 0D0A00   		.ascii	"\015\012\000"
  70 00af 00       		.align	2
  71              	.LC11:
  72 00b0 54656D70 		.ascii	"Temperature=\000"
  72      65726174 
  72      7572653D 
  72      00
  73 00bd 000000   		.align	2
  74              	.LC13:
  75 00c0 256400   		.ascii	"%d\000"
  76 00c3 00       		.align	2
  77              	.LC15:
  78 00c4 4300     		.ascii	"C\000"
  79 00c6 0000     		.section	.text.main,"ax",%progbits
  80              		.align	2
  81              		.global	main
  82              		.code	16
  83              		.thumb_func
  84              		.type	main, %function
  85              	main:
  86              	.LFB36:
  58:.\main.c      **** /*****************************************************************************
  59:.\main.c      **** * Function Name: main()
  60:.\main.c      **** ******************************************************************************
  61:.\main.c      **** * Summary:
  62:.\main.c      **** * Central function which controls the application flow
ARM GAS  C:\Users\Lonnie\AppData\Local\Temp\ccxCcX9b.s 			page 4


  63:.\main.c      **** *
  64:.\main.c      **** * Parameters:
  65:.\main.c      **** * None
  66:.\main.c      **** *
  67:.\main.c      **** * Return:
  68:.\main.c      **** * None
  69:.\main.c      **** *
  70:.\main.c      **** * Theory:
  71:.\main.c      **** * Central function which is entered on power up. This function controls
  72:.\main.c      **** * the complete application which includes BLE processing, temperature 
  73:.\main.c      **** * measurement and power mode transitions.
  74:.\main.c      **** *
  75:.\main.c      **** * Side Effects:
  76:.\main.c      **** * None
  77:.\main.c      **** *
  78:.\main.c      **** * Note:
  79:.\main.c      **** *
  80:.\main.c      **** *****************************************************************************/
  81:.\main.c      **** int main()
  82:.\main.c      **** {
  87              		.loc 1 82 0
  88              		.cfi_startproc
  89 0000 80B5     		push	{r7, lr}
  90              		.cfi_def_cfa_offset 8
  91              		.cfi_offset 7, -8
  92              		.cfi_offset 14, -4
  93 0002 8AB0     		sub	sp, sp, #40
  94              		.cfi_def_cfa_offset 48
  95 0004 00AF     		add	r7, sp, #0
  96              		.cfi_def_cfa_register 7
  83:.\main.c      ****     /* Powerstate indicators of BLESS */
  84:.\main.c      ****  //   CYBLE_LP_MODE_T lpMode = CYBLE_BLESS_DEEPSLEEP;
  85:.\main.c      ****    // CYBLE_BLESS_STATE_T blessState = CYBLE_BLESS_STATE_DEEPSLEEP;
  86:.\main.c      ****     
  87:.\main.c      ****     /* Local variable used to store temperature information */
  88:.\main.c      ****     int32 temperature;
  89:.\main.c      ****     int temp;
  90:.\main.c      ****     char Out_String[30];
  91:.\main.c      ****     /* Enable global interrupt, required for BLESS operation */
  92:.\main.c      ****    // CyGlobalIntEnable; 
  93:.\main.c      ****     
  94:.\main.c      ****     /* Initialize the complete system */
  95:.\main.c      ****     InitializeSystem();
  97              		.loc 1 95 0
  98 0006 FFF7FEFF 		bl	InitializeSystem
  96:.\main.c      ****     
  97:.\main.c      ****     
  98:.\main.c      ****     init_printf(NULL,putdata);
  99              		.loc 1 98 0
 100 000a 1D4B     		ldr	r3, .L4
 101 000c 0020     		mov	r0, #0
 102 000e 191C     		mov	r1, r3
 103 0010 FFF7FEFF 		bl	init_printf
  99:.\main.c      ****     UART_UartPutString("\r\n***********************************************************************
 104              		.loc 1 99 0
 105 0014 1B4B     		ldr	r3, .L4+4
 106 0016 181C     		mov	r0, r3
ARM GAS  C:\Users\Lonnie\AppData\Local\Temp\ccxCcX9b.s 			page 5


 107 0018 FFF7FEFF 		bl	UART_UartPutString
 100:.\main.c      ****     UART_UartPutString("YONO Internal Testing\r\n");
 108              		.loc 1 100 0
 109 001c 1A4B     		ldr	r3, .L4+8
 110 001e 181C     		mov	r0, r3
 111 0020 FFF7FEFF 		bl	UART_UartPutString
 101:.\main.c      ****     UART_UartPutString("SCB_UART Successful\r\n");
 112              		.loc 1 101 0
 113 0024 194B     		ldr	r3, .L4+12
 114 0026 181C     		mov	r0, r3
 115 0028 FFF7FEFF 		bl	UART_UartPutString
 102:.\main.c      ****     UART_UartPutString("Starting to Transmit Temperature\r\n");
 116              		.loc 1 102 0
 117 002c 184B     		ldr	r3, .L4+16
 118 002e 181C     		mov	r0, r3
 119 0030 FFF7FEFF 		bl	UART_UartPutString
 103:.\main.c      ****     UART_UartPutString("\r\n");
 120              		.loc 1 103 0
 121 0034 174B     		ldr	r3, .L4+20
 122 0036 181C     		mov	r0, r3
 123 0038 FFF7FEFF 		bl	UART_UartPutString
 124              	.L3:
 104:.\main.c      ****     /* Infinite loop */
 105:.\main.c      ****     for(;;)
 106:.\main.c      ****     {
 107:.\main.c      ****         /* Process all pending BLE events in the stack */
 108:.\main.c      ****   //      CyBle_ProcessEvents();
 109:.\main.c      ****         
 110:.\main.c      ****         /***********************************************************************
 111:.\main.c      ****         * Wait for connection established with Central device
 112:.\main.c      ****         ***********************************************************************/
 113:.\main.c      ****   //      if(CyBle_GetState() == CYBLE_STATE_CONNECTED)
 114:.\main.c      ****    //     {
 115:.\main.c      ****             /* Process all pending BLE events in the stack */
 116:.\main.c      ****         //    CyBle_ProcessEvents();
 117:.\main.c      ****             /* Periodically measure temperature and send results to the Client */
 118:.\main.c      ****       //      if(SystemFlag & WAKEUP_SOURCE_WDT)
 119:.\main.c      ****       //      {
 120:.\main.c      ****                 /* Clear WDT wakeup source flag */
 121:.\main.c      ****     //            SystemFlag &= ~WAKEUP_SOURCE_WDT;
 122:.\main.c      ****                 /* Wakeup the system from deep sleep */
 123:.\main.c      ****    //             WakeupFromDeepSleep();
 124:.\main.c      ****                 /* Measure temperature */
 125:.\main.c      **** 
 126:.\main.c      ****         
 127:.\main.c      **** temperature = ProcessTemperature();
 125              		.loc 1 127 0 discriminator 1
 126 003c FFF7FEFF 		bl	ProcessTemperature
 127 0040 031C     		mov	r3, r0
 128 0042 7B62     		str	r3, [r7, #36]
 128:.\main.c      **** temp=(int)temperature;
 129              		.loc 1 128 0 discriminator 1
 130 0044 7B6A     		ldr	r3, [r7, #36]
 131 0046 3B62     		str	r3, [r7, #32]
 129:.\main.c      **** UART_UartPutString("Temperature=");
 132              		.loc 1 129 0 discriminator 1
 133 0048 134B     		ldr	r3, .L4+24
ARM GAS  C:\Users\Lonnie\AppData\Local\Temp\ccxCcX9b.s 			page 6


 134 004a 181C     		mov	r0, r3
 135 004c FFF7FEFF 		bl	UART_UartPutString
 130:.\main.c      **** printf("%d",temperature);
 136              		.loc 1 130 0 discriminator 1
 137 0050 124A     		ldr	r2, .L4+28
 138 0052 7B6A     		ldr	r3, [r7, #36]
 139 0054 101C     		mov	r0, r2
 140 0056 191C     		mov	r1, r3
 141 0058 FFF7FEFF 		bl	tfp_printf
 131:.\main.c      **** UART_UartPutString(Out_String);
 142              		.loc 1 131 0 discriminator 1
 143 005c 3B1C     		mov	r3, r7
 144 005e 181C     		mov	r0, r3
 145 0060 FFF7FEFF 		bl	UART_UartPutString
 132:.\main.c      **** UART_UartPutString("C");
 146              		.loc 1 132 0 discriminator 1
 147 0064 0E4B     		ldr	r3, .L4+32
 148 0066 181C     		mov	r0, r3
 149 0068 FFF7FEFF 		bl	UART_UartPutString
 133:.\main.c      **** UART_UartPutString("\r\n");
 150              		.loc 1 133 0 discriminator 1
 151 006c 094B     		ldr	r3, .L4+20
 152 006e 181C     		mov	r0, r3
 153 0070 FFF7FEFF 		bl	UART_UartPutString
 134:.\main.c      **** CyDelay(2000);
 154              		.loc 1 134 0 discriminator 1
 155 0074 FA23     		mov	r3, #250
 156 0076 DB00     		lsl	r3, r3, #3
 157 0078 181C     		mov	r0, r3
 158 007a FFF7FEFF 		bl	CyDelay
 135:.\main.c      **** 
 136:.\main.c      **** 
 137:.\main.c      **** 
 138:.\main.c      ****                 /* Send temperature information over BLE */
 139:.\main.c      ****    //             ProcessBLE(temperature);
 140:.\main.c      ****             //}
 141:.\main.c      ****        // }
 142:.\main.c      ****         
 143:.\main.c      ****         /* If BLE is successfully initialized, then execute the low power routine */
 144:.\main.c      ****    //     if(CyBle_GetState() != CYBLE_STATE_INITIALIZING)
 145:.\main.c      ****     //    {
 146:.\main.c      ****             /* Disable all hardware blocks */
 147:.\main.c      ****      //       PrepareForDeepSleep();
 148:.\main.c      ****             /* Enter Deep Sleep mode between connection intervals */
 149:.\main.c      ****     //        lpMode = CyBle_EnterLPM(CYBLE_BLESS_DEEPSLEEP);
 150:.\main.c      ****             
 151:.\main.c      ****             /* Disable global interrupts to avoid race condition */
 152:.\main.c      ****        //     CyGlobalIntDisable;
 153:.\main.c      ****      //       blessState = CyBle_GetBleSsState();
 154:.\main.c      **** 
 155:.\main.c      ****             /* Try putting system in DeepSleep mode if BLESS succesfully entered Deep Sleep mode*/
 156:.\main.c      ****     //        if(lpMode == CYBLE_BLESS_DEEPSLEEP) 
 157:.\main.c      ****     //        {   
 158:.\main.c      ****                 /* If BLESS is in Deep Sleep or is in the process of waking up from Deep Sleep,
 159:.\main.c      ****                  * put system in Deep Sleep mode */
 160:.\main.c      ****     //            if(blessState == CYBLE_BLESS_STATE_ECO_ON || blessState == CYBLE_BLESS_STATE_DEEP
 161:.\main.c      ****      //           {
ARM GAS  C:\Users\Lonnie\AppData\Local\Temp\ccxCcX9b.s 			page 7


 162:.\main.c      ****      //              CySysPmDeepSleep();
 163:.\main.c      ****      ///           }
 164:.\main.c      ****      //      }
 165:.\main.c      ****             /* If BLESS is in Active state */
 166:.\main.c      ****       //      else
 167:.\main.c      ****       //      {
 168:.\main.c      ****                 /* If BLESS Tx/Rx Event is not complete, reduce IMO and put CPU to Sleep */
 169:.\main.c      ****      //           if(blessState != CYBLE_BLESS_STATE_EVENT_CLOSE)
 170:.\main.c      ****      //           {
 171:.\main.c      ****       //              CySysClkWriteImoFreq(IMO_FREQUENCY_3MHZ);
 172:.\main.c      ****         //         CySysPmSleep();
 173:.\main.c      ****         //            CySysClkWriteImoFreq(IMO_FREQUENCY_12MHZ);
 174:.\main.c      ****          //       }
 175:.\main.c      ****           //  }
 176:.\main.c      ****             /* Enable interrupts for normal operation */
 177:.\main.c      ****         //    CyGlobalIntEnable;
 178:.\main.c      ****        // }
 179:.\main.c      ****         
 180:.\main.c      ****         /* If Hibernate is enabled then put system in hibernate state */
 181:.\main.c      ****     //    if(SystemFlag & ENABLE_HIBERNATE)
 182:.\main.c      ****     //    {
 183:.\main.c      ****             /* Enable ISR for the pin to wakeup the device from hibernate */
 184:.\main.c      ****     //  Wakeup_ISR_Start();
 185:.\main.c      ****             
 186:.\main.c      ****             /* Put sytem to hibernate */
 187:.\main.c      ****      //       CySysPmHibernate();
 188:.\main.c      ****         //}
 189:.\main.c      ****    // }
 190:.\main.c      **** }
 159              		.loc 1 190 0 discriminator 1
 160 007e DDE7     		b	.L3
 161              	.L5:
 162              		.align	2
 163              	.L4:
 164 0080 00000000 		.word	putdata
 165 0084 00000000 		.word	.LC1
 166 0088 58000000 		.word	.LC3
 167 008c 70000000 		.word	.LC5
 168 0090 88000000 		.word	.LC7
 169 0094 AC000000 		.word	.LC9
 170 0098 B0000000 		.word	.LC11
 171 009c C0000000 		.word	.LC13
 172 00a0 C4000000 		.word	.LC15
 173              		.cfi_endproc
 174              	.LFE36:
 175              		.size	main, .-main
 176              		.text
 177              	.Letext0:
 178              		.file 2 "Generated_Source\\PSoC4/cytypes.h"