ARM GAS  C:\Users\Lonnie\AppData\Local\Temp\cc271nEg.s 			page 1


   1              		.cpu cortex-m0
   2              		.fpu softvfp
   3              		.eabi_attribute 20, 1
   4              		.eabi_attribute 21, 1
   5              		.eabi_attribute 23, 3
   6              		.eabi_attribute 24, 1
   7              		.eabi_attribute 25, 1
   8              		.eabi_attribute 26, 1
   9              		.eabi_attribute 30, 6
  10              		.eabi_attribute 34, 0
  11              		.eabi_attribute 18, 4
  12              		.code	16
  13              		.file	"Temperature.c"
  14              		.text
  15              	.Ltext0:
  16              		.cfi_sections	.debug_frame
  17              		.section	.text.MeasureSensorVoltage,"ax",%progbits
  18              		.align	2
  19              		.code	16
  20              		.thumb_func
  21              		.type	MeasureSensorVoltage, %function
  22              	MeasureSensorVoltage:
  23              	.LFB35:
  24              		.file 1 ".\\Temperature.c"
   1:.\Temperature.c **** /****************************************************************************
   2:.\Temperature.c **** * File Name: Temperature.c
   3:.\Temperature.c **** *
   4:.\Temperature.c **** * Version: 1.0
   5:.\Temperature.c **** *
   6:.\Temperature.c **** * Description:
   7:.\Temperature.c **** * This file implements functions related to temperature measurement.
   8:.\Temperature.c **** *
   9:.\Temperature.c **** * Note:
  10:.\Temperature.c **** * 
  11:.\Temperature.c **** * Owner:
  12:.\Temperature.c **** * PMAD
  13:.\Temperature.c **** *
  14:.\Temperature.c **** ******************************************************************************
  15:.\Temperature.c **** * Copyright (2014), Cypress Semiconductor Corporation.
  16:.\Temperature.c **** ******************************************************************************
  17:.\Temperature.c **** * This software is owned by Cypress Semiconductor Corporation (Cypress) and is
  18:.\Temperature.c **** * protected by and subject to worldwide patent protection (United States and
  19:.\Temperature.c **** * foreign), United States copyright laws and international treaty provisions.
  20:.\Temperature.c **** * Cypress hereby grants to licensee a personal, non-exclusive, non-transferable
  21:.\Temperature.c **** * license to copy, use, modify, create derivative works of, and compile the
  22:.\Temperature.c **** * Cypress Source Code and derivative works for the sole purpose of creating
  23:.\Temperature.c **** * custom software in support of licensee product to be used only in conjunction
  24:.\Temperature.c **** * with a Cypress integrated circuit as specified in the applicable agreement.
  25:.\Temperature.c **** * Any reproduction, modification, translation, compilation, or representation of
  26:.\Temperature.c **** * this software except as specified above is prohibited without the express
  27:.\Temperature.c **** * written permission of Cypress.
  28:.\Temperature.c **** *
  29:.\Temperature.c **** * Disclaimer: CYPRESS MAKES NO WARRANTY OF ANY KIND, EXPRESS OR IMPLIED, WITH
  30:.\Temperature.c **** * REGARD TO THIS MATERIAL, INCLUDING, BUT NOT LIMITED TO, THE IMPLIED
  31:.\Temperature.c **** * WARRANTIES OF MERCHANTABILITY AND FITNESS FOR A PARTICULAR PURPOSE.
  32:.\Temperature.c **** * Cypress reserves the right to make changes without further notice to the
  33:.\Temperature.c **** * materials described herein. Cypress does not assume any liability arising out
ARM GAS  C:\Users\Lonnie\AppData\Local\Temp\cc271nEg.s 			page 2


  34:.\Temperature.c **** * of the application or use of any product or circuit described herein. Cypress
  35:.\Temperature.c **** * does not authorize its products for use as critical components in life-support
  36:.\Temperature.c **** * systems where a malfunction or failure may reasonably be expected to result in
  37:.\Temperature.c **** * significant injury to the user. The inclusion of Cypress' product in a life-
  38:.\Temperature.c **** * support systems application implies that the manufacturer assumes all risk of
  39:.\Temperature.c **** * such use and in doing so indemnifies Cypress against all charges. Use may be
  40:.\Temperature.c **** * limited by and subject to the applicable Cypress software license agreement.
  41:.\Temperature.c **** *****************************************************************************/
  42:.\Temperature.c **** 
  43:.\Temperature.c **** 
  44:.\Temperature.c **** /*****************************************************************************
  45:.\Temperature.c **** * Included headers
  46:.\Temperature.c **** *****************************************************************************/
  47:.\Temperature.c **** #include "CommonFunctions.h"
  48:.\Temperature.c **** #include "Temperature.h"
  49:.\Temperature.c **** #include "printf.h"
  50:.\Temperature.c **** /*****************************************************************************
  51:.\Temperature.c **** * Static Functions
  52:.\Temperature.c **** *****************************************************************************/
  53:.\Temperature.c **** 
  54:.\Temperature.c **** /*****************************************************************************
  55:.\Temperature.c **** * Function Name: MeasureSensorVoltage()
  56:.\Temperature.c **** ******************************************************************************
  57:.\Temperature.c **** * Summary:
  58:.\Temperature.c **** * Measures the voltage connected at ADC input. 
  59:.\Temperature.c **** *
  60:.\Temperature.c **** * Parameters:
  61:.\Temperature.c **** * None
  62:.\Temperature.c **** *
  63:.\Temperature.c **** * Return:
  64:.\Temperature.c **** * uint16 - Measured voltage
  65:.\Temperature.c **** *
  66:.\Temperature.c **** * Theory:
  67:.\Temperature.c **** * This functions sequences the AMux to next channel and connects reference 
  68:.\Temperature.c **** * signal or thermistor or offset signal at ADC input. It then triggers the ADC
  69:.\Temperature.c **** * and measures the signal.
  70:.\Temperature.c **** *
  71:.\Temperature.c **** * Side Effects:
  72:.\Temperature.c **** * None
  73:.\Temperature.c **** *
  74:.\Temperature.c **** * Note:
  75:.\Temperature.c **** *
  76:.\Temperature.c **** *****************************************************************************/
  77:.\Temperature.c **** static uint16 MeasureSensorVoltage ()
  78:.\Temperature.c **** {
  25              		.loc 1 78 0
  26              		.cfi_startproc
  27 0000 80B5     		push	{r7, lr}
  28              		.cfi_def_cfa_offset 8
  29              		.cfi_offset 7, -8
  30              		.cfi_offset 14, -4
  31 0002 00AF     		add	r7, sp, #0
  32              		.cfi_def_cfa_register 7
  79:.\Temperature.c ****     /* Connect next channel available at AMux input to Amux output */
  80:.\Temperature.c ****     /* Note: If no channels are connected, channel 0 gets connected by this 
  81:.\Temperature.c ****     *  fucntion */
  82:.\Temperature.c ****     AMuxSeq_Next();
ARM GAS  C:\Users\Lonnie\AppData\Local\Temp\cc271nEg.s 			page 3


  33              		.loc 1 82 0
  34 0004 FFF7FEFF 		bl	AMuxSeq_Next
  83:.\Temperature.c ****     
  84:.\Temperature.c ****     /* Start sample conversion */
  85:.\Temperature.c ****     ADC_StartConvert();
  35              		.loc 1 85 0
  36 0008 FFF7FEFF 		bl	ADC_StartConvert
  86:.\Temperature.c ****     
  87:.\Temperature.c ****     /* Wait till end of two conversions and drop one sample for signal to settle 
  88:.\Temperature.c ****     *  down, it's not required if reference is continuously available.  
  89:.\Temperature.c ****     *  To reduce current consumption, CPU can be put to sleep while ADC conversion
  90:.\Temperature.c ****     *  is in process. */
  91:.\Temperature.c ****     ADC_IsEndConversion(ADC_WAIT_FOR_RESULT);
  37              		.loc 1 91 0
  38 000c 0220     		mov	r0, #2
  39 000e FFF7FEFF 		bl	ADC_IsEndConversion
  92:.\Temperature.c ****     ADC_IsEndConversion(ADC_WAIT_FOR_RESULT);
  40              		.loc 1 92 0
  41 0012 0220     		mov	r0, #2
  42 0014 FFF7FEFF 		bl	ADC_IsEndConversion
  93:.\Temperature.c ****     
  94:.\Temperature.c ****     /* Stop ADC coversion */ 
  95:.\Temperature.c ****     ADC_StopConvert();
  43              		.loc 1 95 0
  44 0018 FFF7FEFF 		bl	ADC_StopConvert
  96:.\Temperature.c ****     
  97:.\Temperature.c ****     /* Return 16 bit measured value */
  98:.\Temperature.c ****     return (ADC_GetResult16(0));
  45              		.loc 1 98 0
  46 001c 0020     		mov	r0, #0
  47 001e FFF7FEFF 		bl	ADC_GetResult16
  48 0022 031C     		mov	r3, r0
  49 0024 9BB2     		uxth	r3, r3
  99:.\Temperature.c **** }
  50              		.loc 1 99 0
  51 0026 181C     		mov	r0, r3
  52 0028 BD46     		mov	sp, r7
  53              		@ sp needed
  54 002a 80BD     		pop	{r7, pc}
  55              		.cfi_endproc
  56              	.LFE35:
  57              		.size	MeasureSensorVoltage, .-MeasureSensorVoltage
  58              		.section	.rodata
  59              		.align	2
  60              	.LC0:
  61 0000 56545F41 		.ascii	"VT_ADC_Count=\000"
  61      44435F43 
  61      6F756E74 
  61      3D00
  62 000e 0000     		.align	2
  63              	.LC2:
  64 0010 256400   		.ascii	"%d\000"
  65 0013 00       		.align	2
  66              	.LC4:
  67 0014 202000   		.ascii	"  \000"
  68 0017 00       		.align	2
  69              	.LC6:
ARM GAS  C:\Users\Lonnie\AppData\Local\Temp\cc271nEg.s 			page 4


  70 0018 56525F41 		.ascii	"VR_ADC_Count=\000"
  70      44435F43 
  70      6F756E74 
  70      3D00
  71              		.global	__aeabi_i2f
  72              		.global	__aeabi_f2iz
  73 0026 0000     		.section	.text.ProcessTemperature,"ax",%progbits
  74              		.align	2
  75              		.global	ProcessTemperature
  76              		.code	16
  77              		.thumb_func
  78              		.type	ProcessTemperature, %function
  79              	ProcessTemperature:
  80              	.LFB36:
 100:.\Temperature.c **** 
 101:.\Temperature.c **** /*****************************************************************************
 102:.\Temperature.c **** * Public Functions
 103:.\Temperature.c **** *****************************************************************************/
 104:.\Temperature.c **** 
 105:.\Temperature.c **** /*****************************************************************************
 106:.\Temperature.c **** * Function Name: ProcessTemperature()
 107:.\Temperature.c **** ******************************************************************************
 108:.\Temperature.c **** * Summary:
 109:.\Temperature.c **** * Measures the current temperature. 
 110:.\Temperature.c **** *
 111:.\Temperature.c **** * Parameters:
 112:.\Temperature.c **** * None
 113:.\Temperature.c **** *
 114:.\Temperature.c **** * Return:
 115:.\Temperature.c **** * uint32 - Measured temperature
 116:.\Temperature.c **** *
 117:.\Temperature.c **** * Theory:
 118:.\Temperature.c **** * This function measures the reference voltage, thermistor voltage and 
 119:.\Temperature.c **** * offset voltage. 
 120:.\Temperature.c **** 
 121:.\Temperature.c **** * Channel 0 - Reference voltage
 122:.\Temperature.c **** * Channel 1 - Thermistor voltage
 123:.\Temperature.c **** * Channel 2 - Offset voltage
 124:.\Temperature.c **** * 
 125:.\Temperature.c **** * This function removes offset via correlated double sampling and then
 126:.\Temperature.c **** * measures the temperature.
 127:.\Temperature.c **** *
 128:.\Temperature.c **** * Side Effects:
 129:.\Temperature.c **** * None
 130:.\Temperature.c **** *
 131:.\Temperature.c **** * Note:
 132:.\Temperature.c **** *
 133:.\Temperature.c **** *****************************************************************************/
 134:.\Temperature.c **** int32 ProcessTemperature (void)
 135:.\Temperature.c **** {
  81              		.loc 1 135 0
  82              		.cfi_startproc
  83 0000 80B5     		push	{r7, lr}
  84              		.cfi_def_cfa_offset 8
  85              		.cfi_offset 7, -8
  86              		.cfi_offset 14, -4
  87 0002 84B0     		sub	sp, sp, #16
ARM GAS  C:\Users\Lonnie\AppData\Local\Temp\cc271nEg.s 			page 5


  88              		.cfi_def_cfa_offset 24
  89 0004 00AF     		add	r7, sp, #0
  90              		.cfi_def_cfa_register 7
 136:.\Temperature.c ****     /* Local variables used for temperature measurement */
 137:.\Temperature.c ****     static float temperature = 0;
 138:.\Temperature.c ****     #if (SIMULATE_TEMPERATURE_SENSOR)
 139:.\Temperature.c ****         
 140:.\Temperature.c ****     int32 thermistorResistance = 0;
  91              		.loc 1 140 0
  92 0006 0023     		mov	r3, #0
  93 0008 FB60     		str	r3, [r7, #12]
 141:.\Temperature.c ****     int16 referenceVoltage = 0;
  94              		.loc 1 141 0
  95 000a 0A23     		mov	r3, #10
  96 000c FB18     		add	r3, r7, r3
  97 000e 0022     		mov	r2, #0
  98 0010 1A80     		strh	r2, [r3]
 142:.\Temperature.c ****     int16 thermistorVoltage = 0;
  99              		.loc 1 142 0
 100 0012 0823     		mov	r3, #8
 101 0014 FB18     		add	r3, r7, r3
 102 0016 0022     		mov	r2, #0
 103 0018 1A80     		strh	r2, [r3]
 143:.\Temperature.c ****     int16 offsetVoltage = 0;
 104              		.loc 1 143 0
 105 001a BB1D     		add	r3, r7, #6
 106 001c 0022     		mov	r2, #0
 107 001e 1A80     		strh	r2, [r3]
 144:.\Temperature.c ****     
 145:.\Temperature.c ****     /* Check if measurement interval has expired */
 146:.\Temperature.c ****     if(1)
 147:.\Temperature.c ****     {
 148:.\Temperature.c ****         /* Disconnect all the pins from Amux input */
 149:.\Temperature.c ****         AMuxSeq_DisconnectAll();
 108              		.loc 1 149 0
 109 0020 FFF7FEFF 		bl	AMuxSeq_DisconnectAll
 150:.\Temperature.c ****         
 151:.\Temperature.c ****         /* Measure reference voltage - Channel 0 */
 152:.\Temperature.c ****         referenceVoltage = MeasureSensorVoltage();
 110              		.loc 1 152 0
 111 0024 FFF7FEFF 		bl	MeasureSensorVoltage
 112 0028 031C     		mov	r3, r0
 113 002a 1A1C     		mov	r2, r3
 114 002c 0A23     		mov	r3, #10
 115 002e FB18     		add	r3, r7, r3
 116 0030 1A80     		strh	r2, [r3]
 153:.\Temperature.c ****         /* Measure thermistor voltage - Channel 0 */
 154:.\Temperature.c ****         thermistorVoltage = MeasureSensorVoltage();
 117              		.loc 1 154 0
 118 0032 FFF7FEFF 		bl	MeasureSensorVoltage
 119 0036 031C     		mov	r3, r0
 120 0038 1A1C     		mov	r2, r3
 121 003a 0823     		mov	r3, #8
 122 003c FB18     		add	r3, r7, r3
 123 003e 1A80     		strh	r2, [r3]
 155:.\Temperature.c ****         /* Measure offset voltage - Channel 0 */
 156:.\Temperature.c ****         offsetVoltage = MeasureSensorVoltage();
ARM GAS  C:\Users\Lonnie\AppData\Local\Temp\cc271nEg.s 			page 6


 124              		.loc 1 156 0
 125 0040 FFF7FEFF 		bl	MeasureSensorVoltage
 126 0044 031C     		mov	r3, r0
 127 0046 1A1C     		mov	r2, r3
 128 0048 BB1D     		add	r3, r7, #6
 129 004a 1A80     		strh	r2, [r3]
 157:.\Temperature.c ****         
 158:.\Temperature.c ****         /* Measure thermistor resistance and remove offset by using correlated 
 159:.\Temperature.c ****         *  double sampling. */
 160:.\Temperature.c ****         UART_UartPutString("VT_ADC_Count=");
 130              		.loc 1 160 0
 131 004c 274B     		ldr	r3, .L5
 132 004e 181C     		mov	r0, r3
 133 0050 FFF7FEFF 		bl	UART_UartPutString
 161:.\Temperature.c ****         printf("%d",thermistorVoltage);
 134              		.loc 1 161 0
 135 0054 0823     		mov	r3, #8
 136 0056 FB18     		add	r3, r7, r3
 137 0058 0022     		mov	r2, #0
 138 005a 9B5E     		ldrsh	r3, [r3, r2]
 139 005c 244A     		ldr	r2, .L5+4
 140 005e 101C     		mov	r0, r2
 141 0060 191C     		mov	r1, r3
 142 0062 FFF7FEFF 		bl	tfp_printf
 162:.\Temperature.c ****         UART_UartPutString("  ");
 143              		.loc 1 162 0
 144 0066 234B     		ldr	r3, .L5+8
 145 0068 181C     		mov	r0, r3
 146 006a FFF7FEFF 		bl	UART_UartPutString
 163:.\Temperature.c ****         UART_UartPutString("VR_ADC_Count=");
 147              		.loc 1 163 0
 148 006e 224B     		ldr	r3, .L5+12
 149 0070 181C     		mov	r0, r3
 150 0072 FFF7FEFF 		bl	UART_UartPutString
 164:.\Temperature.c ****         printf("%d",referenceVoltage);
 151              		.loc 1 164 0
 152 0076 0A23     		mov	r3, #10
 153 0078 FB18     		add	r3, r7, r3
 154 007a 0022     		mov	r2, #0
 155 007c 9B5E     		ldrsh	r3, [r3, r2]
 156 007e 1C4A     		ldr	r2, .L5+4
 157 0080 101C     		mov	r0, r2
 158 0082 191C     		mov	r1, r3
 159 0084 FFF7FEFF 		bl	tfp_printf
 165:.\Temperature.c ****         UART_UartPutString("  ");
 160              		.loc 1 165 0
 161 0088 1A4B     		ldr	r3, .L5+8
 162 008a 181C     		mov	r0, r3
 163 008c FFF7FEFF 		bl	UART_UartPutString
 166:.\Temperature.c ****         thermistorResistance = Thermistor_GetResistance((referenceVoltage - offsetVoltage), (thermi
 164              		.loc 1 166 0
 165 0090 0A23     		mov	r3, #10
 166 0092 FB18     		add	r3, r7, r3
 167 0094 1A88     		ldrh	r2, [r3]
 168 0096 BB1D     		add	r3, r7, #6
 169 0098 1B88     		ldrh	r3, [r3]
 170 009a D31A     		sub	r3, r2, r3
ARM GAS  C:\Users\Lonnie\AppData\Local\Temp\cc271nEg.s 			page 7


 171 009c 9BB2     		uxth	r3, r3
 172 009e 99B2     		uxth	r1, r3
 173 00a0 0823     		mov	r3, #8
 174 00a2 FB18     		add	r3, r7, r3
 175 00a4 1A88     		ldrh	r2, [r3]
 176 00a6 BB1D     		add	r3, r7, #6
 177 00a8 1B88     		ldrh	r3, [r3]
 178 00aa D31A     		sub	r3, r2, r3
 179 00ac 9BB2     		uxth	r3, r3
 180 00ae 9BB2     		uxth	r3, r3
 181 00b0 0AB2     		sxth	r2, r1
 182 00b2 1BB2     		sxth	r3, r3
 183 00b4 101C     		mov	r0, r2
 184 00b6 191C     		mov	r1, r3
 185 00b8 FFF7FEFF 		bl	Thermistor_GetResistance
 186 00bc 031C     		mov	r3, r0
 187 00be FB60     		str	r3, [r7, #12]
 167:.\Temperature.c ****         
 168:.\Temperature.c ****         /* Compute temperature and remove decimal places */
 169:.\Temperature.c ****         temperature = Thermistor_GetTemperature(thermistorResistance);
 188              		.loc 1 169 0
 189 00c0 FB68     		ldr	r3, [r7, #12]
 190 00c2 181C     		mov	r0, r3
 191 00c4 FFF7FEFF 		bl	Thermistor_GetTemperature
 192 00c8 031C     		mov	r3, r0
 193 00ca 181C     		mov	r0, r3
 194 00cc FFF7FEFF 		bl	__aeabi_i2f
 195 00d0 021C     		add	r2, r0, #0
 196 00d2 0A4B     		ldr	r3, .L5+16
 197 00d4 1A60     		str	r2, [r3]
 170:.\Temperature.c ****        // temperature = temperature / 100;
 171:.\Temperature.c ****     }
 172:.\Temperature.c ****     #else
 173:.\Temperature.c ****     /* Check if measurement interval has expired */
 174:.\Temperature.c ****     //if (SystemFlag & MEASUREMENT_INTERVAL)
 175:.\Temperature.c ****     if(1){
 176:.\Temperature.c ****         temperature++;
 177:.\Temperature.c ****         if(temperature > 100)
 178:.\Temperature.c ****         {
 179:.\Temperature.c ****             temperature = 0;
 180:.\Temperature.c ****         }
 181:.\Temperature.c ****     }
 182:.\Temperature.c ****     #endif
 183:.\Temperature.c ****     
 184:.\Temperature.c ****     /* Return measured temperature */
 185:.\Temperature.c ****     return (temperature);
 198              		.loc 1 185 0
 199 00d6 094B     		ldr	r3, .L5+16
 200 00d8 1B68     		ldr	r3, [r3]
 201 00da 181C     		add	r0, r3, #0
 202 00dc FFF7FEFF 		bl	__aeabi_f2iz
 203 00e0 031C     		mov	r3, r0
 186:.\Temperature.c **** }
 204              		.loc 1 186 0
 205 00e2 181C     		mov	r0, r3
 206 00e4 BD46     		mov	sp, r7
 207 00e6 04B0     		add	sp, sp, #16
ARM GAS  C:\Users\Lonnie\AppData\Local\Temp\cc271nEg.s 			page 8


 208              		@ sp needed
 209 00e8 80BD     		pop	{r7, pc}
 210              	.L6:
 211 00ea C046     		.align	2
 212              	.L5:
 213 00ec 00000000 		.word	.LC0
 214 00f0 10000000 		.word	.LC2
 215 00f4 14000000 		.word	.LC4
 216 00f8 18000000 		.word	.LC6
 217 00fc 00000000 		.word	temperature.5396
 218              		.cfi_endproc
 219              	.LFE36:
 220              		.size	ProcessTemperature, .-ProcessTemperature
 221              		.bss
 222              		.align	2
 223              	temperature.5396:
 224 0000 00000000 		.space	4
 225              		.text
 226              	.Letext0:
 227              		.file 2 "Generated_Source\\PSoC4/cytypes.h"